
/usr/lib/x86_64-linux-gnu/libfontconfig.so:     file format elf64-x86-64


Disassembly of section .init:

00000000000064b8 <_init>:
    64b8:	48 83 ec 08          	sub    $0x8,%rsp
    64bc:	48 8b 05 ed 4a 23 00 	mov    0x234aed(%rip),%rax        # 23afb0 <_fini+0x217a24>
    64c3:	48 85 c0             	test   %rax,%rax
    64c6:	74 05                	je     64cd <_init+0x15>
    64c8:	e8 b3 04 00 00       	callq  6980 <__gmon_start__@plt>
    64cd:	48 83 c4 08          	add    $0x8,%rsp
    64d1:	c3                   	retq   

Disassembly of section .plt:

00000000000064e0 <FT_Get_Sfnt_Name_Count@plt-0x10>:
    64e0:	ff 35 22 4b 23 00    	pushq  0x234b22(%rip)        # 23b008 <_fini+0x217a7c>
    64e6:	ff 25 24 4b 23 00    	jmpq   *0x234b24(%rip)        # 23b010 <_fini+0x217a84>
    64ec:	0f 1f 40 00          	nopl   0x0(%rax)

00000000000064f0 <FT_Get_Sfnt_Name_Count@plt>:
    64f0:	ff 25 22 4b 23 00    	jmpq   *0x234b22(%rip)        # 23b018 <_fini+0x217a8c>
    64f6:	68 00 00 00 00       	pushq  $0x0
    64fb:	e9 e0 ff ff ff       	jmpq   64e0 <_init+0x28>

0000000000006500 <getenv@plt>:
    6500:	ff 25 1a 4b 23 00    	jmpq   *0x234b1a(%rip)        # 23b020 <_fini+0x217a94>
    6506:	68 01 00 00 00       	pushq  $0x1
    650b:	e9 d0 ff ff ff       	jmpq   64e0 <_init+0x28>

0000000000006510 <XML_GetBuffer@plt>:
    6510:	ff 25 12 4b 23 00    	jmpq   *0x234b12(%rip)        # 23b028 <_fini+0x217a9c>
    6516:	68 02 00 00 00       	pushq  $0x2
    651b:	e9 c0 ff ff ff       	jmpq   64e0 <_init+0x28>

0000000000006520 <__snprintf_chk@plt>:
    6520:	ff 25 0a 4b 23 00    	jmpq   *0x234b0a(%rip)        # 23b030 <_fini+0x217aa4>
    6526:	68 03 00 00 00       	pushq  $0x3
    652b:	e9 b0 ff ff ff       	jmpq   64e0 <_init+0x28>

0000000000006530 <free@plt>:
    6530:	ff 25 02 4b 23 00    	jmpq   *0x234b02(%rip)        # 23b038 <_fini+0x217aac>
    6536:	68 04 00 00 00       	pushq  $0x4
    653b:	e9 a0 ff ff ff       	jmpq   64e0 <_init+0x28>

0000000000006540 <putchar@plt>:
    6540:	ff 25 fa 4a 23 00    	jmpq   *0x234afa(%rip)        # 23b040 <_fini+0x217ab4>
    6546:	68 05 00 00 00       	pushq  $0x5
    654b:	e9 90 ff ff ff       	jmpq   64e0 <_init+0x28>

0000000000006550 <FT_Get_Glyph_Name@plt>:
    6550:	ff 25 f2 4a 23 00    	jmpq   *0x234af2(%rip)        # 23b048 <_fini+0x217abc>
    6556:	68 06 00 00 00       	pushq  $0x6
    655b:	e9 80 ff ff ff       	jmpq   64e0 <_init+0x28>

0000000000006560 <__vfprintf_chk@plt>:
    6560:	ff 25 ea 4a 23 00    	jmpq   *0x234aea(%rip)        # 23b050 <_fini+0x217ac4>
    6566:	68 07 00 00 00       	pushq  $0x7
    656b:	e9 70 ff ff ff       	jmpq   64e0 <_init+0x28>

0000000000006570 <XML_GetErrorCode@plt>:
    6570:	ff 25 e2 4a 23 00    	jmpq   *0x234ae2(%rip)        # 23b058 <_fini+0x217acc>
    6576:	68 08 00 00 00       	pushq  $0x8
    657b:	e9 60 ff ff ff       	jmpq   64e0 <_init+0x28>

0000000000006580 <__errno_location@plt>:
    6580:	ff 25 da 4a 23 00    	jmpq   *0x234ada(%rip)        # 23b060 <_fini+0x217ad4>
    6586:	68 09 00 00 00       	pushq  $0x9
    658b:	e9 50 ff ff ff       	jmpq   64e0 <_init+0x28>

0000000000006590 <unlink@plt>:
    6590:	ff 25 d2 4a 23 00    	jmpq   *0x234ad2(%rip)        # 23b068 <_fini+0x217adc>
    6596:	68 0a 00 00 00       	pushq  $0xa
    659b:	e9 40 ff ff ff       	jmpq   64e0 <_init+0x28>

00000000000065a0 <strncpy@plt>:
    65a0:	ff 25 ca 4a 23 00    	jmpq   *0x234aca(%rip)        # 23b070 <_fini+0x217ae4>
    65a6:	68 0b 00 00 00       	pushq  $0xb
    65ab:	e9 30 ff ff ff       	jmpq   64e0 <_init+0x28>

00000000000065b0 <FT_Load_Glyph@plt>:
    65b0:	ff 25 c2 4a 23 00    	jmpq   *0x234ac2(%rip)        # 23b078 <_fini+0x217aec>
    65b6:	68 0c 00 00 00       	pushq  $0xc
    65bb:	e9 20 ff ff ff       	jmpq   64e0 <_init+0x28>

00000000000065c0 <FT_Get_X11_Font_Format@plt>:
    65c0:	ff 25 ba 4a 23 00    	jmpq   *0x234aba(%rip)        # 23b080 <_fini+0x217af4>
    65c6:	68 0d 00 00 00       	pushq  $0xd
    65cb:	e9 10 ff ff ff       	jmpq   64e0 <_init+0x28>

00000000000065d0 <strcpy@plt>:
    65d0:	ff 25 b2 4a 23 00    	jmpq   *0x234ab2(%rip)        # 23b088 <_fini+0x217afc>
    65d6:	68 0e 00 00 00       	pushq  $0xe
    65db:	e9 00 ff ff ff       	jmpq   64e0 <_init+0x28>

00000000000065e0 <FT_Load_Sfnt_Table@plt>:
    65e0:	ff 25 aa 4a 23 00    	jmpq   *0x234aaa(%rip)        # 23b090 <_fini+0x217b04>
    65e6:	68 0f 00 00 00       	pushq  $0xf
    65eb:	e9 f0 fe ff ff       	jmpq   64e0 <_init+0x28>

00000000000065f0 <FT_Get_Postscript_Name@plt>:
    65f0:	ff 25 a2 4a 23 00    	jmpq   *0x234aa2(%rip)        # 23b098 <_fini+0x217b0c>
    65f6:	68 10 00 00 00       	pushq  $0x10
    65fb:	e9 e0 fe ff ff       	jmpq   64e0 <_init+0x28>

0000000000006600 <mkdir@plt>:
    6600:	ff 25 9a 4a 23 00    	jmpq   *0x234a9a(%rip)        # 23b0a0 <_fini+0x217b14>
    6606:	68 11 00 00 00       	pushq  $0x11
    660b:	e9 d0 fe ff ff       	jmpq   64e0 <_init+0x28>

0000000000006610 <puts@plt>:
    6610:	ff 25 92 4a 23 00    	jmpq   *0x234a92(%rip)        # 23b0a8 <_fini+0x217b1c>
    6616:	68 12 00 00 00       	pushq  $0x12
    661b:	e9 c0 fe ff ff       	jmpq   64e0 <_init+0x28>

0000000000006620 <qsort@plt>:
    6620:	ff 25 8a 4a 23 00    	jmpq   *0x234a8a(%rip)        # 23b0b0 <_fini+0x217b24>
    6626:	68 13 00 00 00       	pushq  $0x13
    662b:	e9 b0 fe ff ff       	jmpq   64e0 <_init+0x28>

0000000000006630 <XML_SetDoctypeDeclHandler@plt>:
    6630:	ff 25 82 4a 23 00    	jmpq   *0x234a82(%rip)        # 23b0b8 <_fini+0x217b2c>
    6636:	68 14 00 00 00       	pushq  $0x14
    663b:	e9 a0 fe ff ff       	jmpq   64e0 <_init+0x28>

0000000000006640 <XML_ParserCreate@plt>:
    6640:	ff 25 7a 4a 23 00    	jmpq   *0x234a7a(%rip)        # 23b0c0 <_fini+0x217b34>
    6646:	68 15 00 00 00       	pushq  $0x15
    664b:	e9 90 fe ff ff       	jmpq   64e0 <_init+0x28>

0000000000006650 <fread@plt>:
    6650:	ff 25 72 4a 23 00    	jmpq   *0x234a72(%rip)        # 23b0c8 <_fini+0x217b3c>
    6656:	68 16 00 00 00       	pushq  $0x16
    665b:	e9 80 fe ff ff       	jmpq   64e0 <_init+0x28>

0000000000006660 <strtod@plt>:
    6660:	ff 25 6a 4a 23 00    	jmpq   *0x234a6a(%rip)        # 23b0d0 <_fini+0x217b44>
    6666:	68 17 00 00 00       	pushq  $0x17
    666b:	e9 70 fe ff ff       	jmpq   64e0 <_init+0x28>

0000000000006670 <localeconv@plt>:
    6670:	ff 25 62 4a 23 00    	jmpq   *0x234a62(%rip)        # 23b0d8 <_fini+0x217b4c>
    6676:	68 18 00 00 00       	pushq  $0x18
    667b:	e9 60 fe ff ff       	jmpq   64e0 <_init+0x28>

0000000000006680 <readlink@plt>:
    6680:	ff 25 5a 4a 23 00    	jmpq   *0x234a5a(%rip)        # 23b0e0 <_fini+0x217b54>
    6686:	68 19 00 00 00       	pushq  $0x19
    668b:	e9 50 fe ff ff       	jmpq   64e0 <_init+0x28>

0000000000006690 <XML_GetCurrentLineNumber@plt>:
    6690:	ff 25 52 4a 23 00    	jmpq   *0x234a52(%rip)        # 23b0e8 <_fini+0x217b5c>
    6696:	68 1a 00 00 00       	pushq  $0x1a
    669b:	e9 40 fe ff ff       	jmpq   64e0 <_init+0x28>

00000000000066a0 <write@plt>:
    66a0:	ff 25 4a 4a 23 00    	jmpq   *0x234a4a(%rip)        # 23b0f0 <_fini+0x217b64>
    66a6:	68 1b 00 00 00       	pushq  $0x1b
    66ab:	e9 30 fe ff ff       	jmpq   64e0 <_init+0x28>

00000000000066b0 <getpid@plt>:
    66b0:	ff 25 42 4a 23 00    	jmpq   *0x234a42(%rip)        # 23b0f8 <_fini+0x217b6c>
    66b6:	68 1c 00 00 00       	pushq  $0x1c
    66bb:	e9 20 fe ff ff       	jmpq   64e0 <_init+0x28>

00000000000066c0 <__open_2@plt>:
    66c0:	ff 25 3a 4a 23 00    	jmpq   *0x234a3a(%rip)        # 23b100 <_fini+0x217b74>
    66c6:	68 1d 00 00 00       	pushq  $0x1d
    66cb:	e9 10 fe ff ff       	jmpq   64e0 <_init+0x28>

00000000000066d0 <fclose@plt>:
    66d0:	ff 25 32 4a 23 00    	jmpq   *0x234a32(%rip)        # 23b108 <_fini+0x217b7c>
    66d6:	68 1e 00 00 00       	pushq  $0x1e
    66db:	e9 00 fe ff ff       	jmpq   64e0 <_init+0x28>

00000000000066e0 <opendir@plt>:
    66e0:	ff 25 2a 4a 23 00    	jmpq   *0x234a2a(%rip)        # 23b110 <_fini+0x217b84>
    66e6:	68 1f 00 00 00       	pushq  $0x1f
    66eb:	e9 f0 fd ff ff       	jmpq   64e0 <_init+0x28>

00000000000066f0 <FT_Done_Face@plt>:
    66f0:	ff 25 22 4a 23 00    	jmpq   *0x234a22(%rip)        # 23b118 <_fini+0x217b8c>
    66f6:	68 20 00 00 00       	pushq  $0x20
    66fb:	e9 e0 fd ff ff       	jmpq   64e0 <_init+0x28>

0000000000006700 <stpcpy@plt>:
    6700:	ff 25 1a 4a 23 00    	jmpq   *0x234a1a(%rip)        # 23b120 <_fini+0x217b94>
    6706:	68 21 00 00 00       	pushq  $0x21
    670b:	e9 d0 fd ff ff       	jmpq   64e0 <_init+0x28>

0000000000006710 <FT_Done_FreeType@plt>:
    6710:	ff 25 12 4a 23 00    	jmpq   *0x234a12(%rip)        # 23b128 <_fini+0x217b9c>
    6716:	68 22 00 00 00       	pushq  $0x22
    671b:	e9 c0 fd ff ff       	jmpq   64e0 <_init+0x28>

0000000000006720 <rmdir@plt>:
    6720:	ff 25 0a 4a 23 00    	jmpq   *0x234a0a(%rip)        # 23b130 <_fini+0x217ba4>
    6726:	68 23 00 00 00       	pushq  $0x23
    672b:	e9 b0 fd ff ff       	jmpq   64e0 <_init+0x28>

0000000000006730 <regfree@plt>:
    6730:	ff 25 02 4a 23 00    	jmpq   *0x234a02(%rip)        # 23b138 <_fini+0x217bac>
    6736:	68 24 00 00 00       	pushq  $0x24
    673b:	e9 a0 fd ff ff       	jmpq   64e0 <_init+0x28>

0000000000006740 <strlen@plt>:
    6740:	ff 25 fa 49 23 00    	jmpq   *0x2349fa(%rip)        # 23b140 <_fini+0x217bb4>
    6746:	68 25 00 00 00       	pushq  $0x25
    674b:	e9 90 fd ff ff       	jmpq   64e0 <_init+0x28>

0000000000006750 <__lxstat@plt>:
    6750:	ff 25 f2 49 23 00    	jmpq   *0x2349f2(%rip)        # 23b148 <_fini+0x217bbc>
    6756:	68 26 00 00 00       	pushq  $0x26
    675b:	e9 80 fd ff ff       	jmpq   64e0 <_init+0x28>

0000000000006760 <__stack_chk_fail@plt>:
    6760:	ff 25 ea 49 23 00    	jmpq   *0x2349ea(%rip)        # 23b150 <_fini+0x217bc4>
    6766:	68 27 00 00 00       	pushq  $0x27
    676b:	e9 70 fd ff ff       	jmpq   64e0 <_init+0x28>

0000000000006770 <mmap@plt>:
    6770:	ff 25 e2 49 23 00    	jmpq   *0x2349e2(%rip)        # 23b158 <_fini+0x217bcc>
    6776:	68 28 00 00 00       	pushq  $0x28
    677b:	e9 60 fd ff ff       	jmpq   64e0 <_init+0x28>

0000000000006780 <strchr@plt>:
    6780:	ff 25 da 49 23 00    	jmpq   *0x2349da(%rip)        # 23b160 <_fini+0x217bd4>
    6786:	68 29 00 00 00       	pushq  $0x29
    678b:	e9 50 fd ff ff       	jmpq   64e0 <_init+0x28>

0000000000006790 <pthread_mutex_destroy@plt>:
    6790:	ff 25 d2 49 23 00    	jmpq   *0x2349d2(%rip)        # 23b168 <_fini+0x217bdc>
    6796:	68 2a 00 00 00       	pushq  $0x2a
    679b:	e9 40 fd ff ff       	jmpq   64e0 <_init+0x28>

00000000000067a0 <symlink@plt>:
    67a0:	ff 25 ca 49 23 00    	jmpq   *0x2349ca(%rip)        # 23b170 <_fini+0x217be4>
    67a6:	68 2b 00 00 00       	pushq  $0x2b
    67ab:	e9 30 fd ff ff       	jmpq   64e0 <_init+0x28>

00000000000067b0 <strrchr@plt>:
    67b0:	ff 25 c2 49 23 00    	jmpq   *0x2349c2(%rip)        # 23b178 <_fini+0x217bec>
    67b6:	68 2c 00 00 00       	pushq  $0x2c
    67bb:	e9 20 fd ff ff       	jmpq   64e0 <_init+0x28>

00000000000067c0 <FT_New_Face@plt>:
    67c0:	ff 25 ba 49 23 00    	jmpq   *0x2349ba(%rip)        # 23b180 <_fini+0x217bf4>
    67c6:	68 2d 00 00 00       	pushq  $0x2d
    67cb:	e9 10 fd ff ff       	jmpq   64e0 <_init+0x28>

00000000000067d0 <mkostemp@plt>:
    67d0:	ff 25 b2 49 23 00    	jmpq   *0x2349b2(%rip)        # 23b188 <_fini+0x217bfc>
    67d6:	68 2e 00 00 00       	pushq  $0x2e
    67db:	e9 00 fd ff ff       	jmpq   64e0 <_init+0x28>

00000000000067e0 <FT_Init_FreeType@plt>:
    67e0:	ff 25 aa 49 23 00    	jmpq   *0x2349aa(%rip)        # 23b190 <_fini+0x217c04>
    67e6:	68 2f 00 00 00       	pushq  $0x2f
    67eb:	e9 f0 fc ff ff       	jmpq   64e0 <_init+0x28>

00000000000067f0 <__assert_fail@plt>:
    67f0:	ff 25 a2 49 23 00    	jmpq   *0x2349a2(%rip)        # 23b198 <_fini+0x217c0c>
    67f6:	68 30 00 00 00       	pushq  $0x30
    67fb:	e9 e0 fc ff ff       	jmpq   64e0 <_init+0x28>

0000000000006800 <fputs@plt>:
    6800:	ff 25 9a 49 23 00    	jmpq   *0x23499a(%rip)        # 23b1a0 <_fini+0x217c14>
    6806:	68 31 00 00 00       	pushq  $0x31
    680b:	e9 d0 fc ff ff       	jmpq   64e0 <_init+0x28>

0000000000006810 <XML_SetCharacterDataHandler@plt>:
    6810:	ff 25 92 49 23 00    	jmpq   *0x234992(%rip)        # 23b1a8 <_fini+0x217c1c>
    6816:	68 32 00 00 00       	pushq  $0x32
    681b:	e9 c0 fc ff ff       	jmpq   64e0 <_init+0x28>

0000000000006820 <memset@plt>:
    6820:	ff 25 8a 49 23 00    	jmpq   *0x23498a(%rip)        # 23b1b0 <_fini+0x217c24>
    6826:	68 33 00 00 00       	pushq  $0x33
    682b:	e9 b0 fc ff ff       	jmpq   64e0 <_init+0x28>

0000000000006830 <XML_ParserFree@plt>:
    6830:	ff 25 82 49 23 00    	jmpq   *0x234982(%rip)        # 23b1b8 <_fini+0x217c2c>
    6836:	68 34 00 00 00       	pushq  $0x34
    683b:	e9 a0 fc ff ff       	jmpq   64e0 <_init+0x28>

0000000000006840 <FT_Get_First_Char@plt>:
    6840:	ff 25 7a 49 23 00    	jmpq   *0x23497a(%rip)        # 23b1c0 <_fini+0x217c34>
    6846:	68 35 00 00 00       	pushq  $0x35
    684b:	e9 90 fc ff ff       	jmpq   64e0 <_init+0x28>

0000000000006850 <scandir@plt>:
    6850:	ff 25 72 49 23 00    	jmpq   *0x234972(%rip)        # 23b1c8 <_fini+0x217c3c>
    6856:	68 36 00 00 00       	pushq  $0x36
    685b:	e9 80 fc ff ff       	jmpq   64e0 <_init+0x28>

0000000000006860 <getcwd@plt>:
    6860:	ff 25 6a 49 23 00    	jmpq   *0x23496a(%rip)        # 23b1d0 <_fini+0x217c44>
    6866:	68 37 00 00 00       	pushq  $0x37
    686b:	e9 70 fc ff ff       	jmpq   64e0 <_init+0x28>

0000000000006870 <FT_Get_PS_Font_Info@plt>:
    6870:	ff 25 62 49 23 00    	jmpq   *0x234962(%rip)        # 23b1d8 <_fini+0x217c4c>
    6876:	68 38 00 00 00       	pushq  $0x38
    687b:	e9 60 fc ff ff       	jmpq   64e0 <_init+0x28>

0000000000006880 <XML_SetUserData@plt>:
    6880:	ff 25 5a 49 23 00    	jmpq   *0x23495a(%rip)        # 23b1e0 <_fini+0x217c54>
    6886:	68 39 00 00 00       	pushq  $0x39
    688b:	e9 50 fc ff ff       	jmpq   64e0 <_init+0x28>

0000000000006890 <close@plt>:
    6890:	ff 25 52 49 23 00    	jmpq   *0x234952(%rip)        # 23b1e8 <_fini+0x217c5c>
    6896:	68 3a 00 00 00       	pushq  $0x3a
    689b:	e9 40 fc ff ff       	jmpq   64e0 <_init+0x28>

00000000000068a0 <closedir@plt>:
    68a0:	ff 25 4a 49 23 00    	jmpq   *0x23494a(%rip)        # 23b1f0 <_fini+0x217c64>
    68a6:	68 3b 00 00 00       	pushq  $0x3b
    68ab:	e9 30 fc ff ff       	jmpq   64e0 <_init+0x28>

00000000000068b0 <posix_fadvise@plt>:
    68b0:	ff 25 42 49 23 00    	jmpq   *0x234942(%rip)        # 23b1f8 <_fini+0x217c6c>
    68b6:	68 3c 00 00 00       	pushq  $0x3c
    68bb:	e9 20 fc ff ff       	jmpq   64e0 <_init+0x28>

00000000000068c0 <regcomp@plt>:
    68c0:	ff 25 3a 49 23 00    	jmpq   *0x23493a(%rip)        # 23b200 <_fini+0x217c74>
    68c6:	68 3d 00 00 00       	pushq  $0x3d
    68cb:	e9 10 fc ff ff       	jmpq   64e0 <_init+0x28>

00000000000068d0 <fputc@plt>:
    68d0:	ff 25 32 49 23 00    	jmpq   *0x234932(%rip)        # 23b208 <_fini+0x217c7c>
    68d6:	68 3e 00 00 00       	pushq  $0x3e
    68db:	e9 00 fc ff ff       	jmpq   64e0 <_init+0x28>

00000000000068e0 <__strdup@plt>:
    68e0:	ff 25 2a 49 23 00    	jmpq   *0x23492a(%rip)        # 23b210 <_fini+0x217c84>
    68e6:	68 3f 00 00 00       	pushq  $0x3f
    68eb:	e9 f0 fb ff ff       	jmpq   64e0 <_init+0x28>

00000000000068f0 <FT_Select_Charmap@plt>:
    68f0:	ff 25 22 49 23 00    	jmpq   *0x234922(%rip)        # 23b218 <_fini+0x217c8c>
    68f6:	68 40 00 00 00       	pushq  $0x40
    68fb:	e9 e0 fb ff ff       	jmpq   64e0 <_init+0x28>

0000000000006900 <FT_Get_Sfnt_Table@plt>:
    6900:	ff 25 1a 49 23 00    	jmpq   *0x23491a(%rip)        # 23b220 <_fini+0x217c94>
    6906:	68 41 00 00 00       	pushq  $0x41
    690b:	e9 d0 fb ff ff       	jmpq   64e0 <_init+0x28>

0000000000006910 <read@plt>:
    6910:	ff 25 12 49 23 00    	jmpq   *0x234912(%rip)        # 23b228 <_fini+0x217c9c>
    6916:	68 42 00 00 00       	pushq  $0x42
    691b:	e9 c0 fb ff ff       	jmpq   64e0 <_init+0x28>

0000000000006920 <memcmp@plt>:
    6920:	ff 25 0a 49 23 00    	jmpq   *0x23490a(%rip)        # 23b230 <_fini+0x217ca4>
    6926:	68 43 00 00 00       	pushq  $0x43
    692b:	e9 b0 fb ff ff       	jmpq   64e0 <_init+0x28>

0000000000006930 <calloc@plt>:
    6930:	ff 25 02 49 23 00    	jmpq   *0x234902(%rip)        # 23b238 <_fini+0x217cac>
    6936:	68 44 00 00 00       	pushq  $0x44
    693b:	e9 a0 fb ff ff       	jmpq   64e0 <_init+0x28>

0000000000006940 <strcmp@plt>:
    6940:	ff 25 fa 48 23 00    	jmpq   *0x2348fa(%rip)        # 23b240 <_fini+0x217cb4>
    6946:	68 45 00 00 00       	pushq  $0x45
    694b:	e9 90 fb ff ff       	jmpq   64e0 <_init+0x28>

0000000000006950 <random_r@plt>:
    6950:	ff 25 f2 48 23 00    	jmpq   *0x2348f2(%rip)        # 23b248 <_fini+0x217cbc>
    6956:	68 46 00 00 00       	pushq  $0x46
    695b:	e9 80 fb ff ff       	jmpq   64e0 <_init+0x28>

0000000000006960 <__memcpy_chk@plt>:
    6960:	ff 25 ea 48 23 00    	jmpq   *0x2348ea(%rip)        # 23b250 <_fini+0x217cc4>
    6966:	68 47 00 00 00       	pushq  $0x47
    696b:	e9 70 fb ff ff       	jmpq   64e0 <_init+0x28>

0000000000006970 <feof@plt>:
    6970:	ff 25 e2 48 23 00    	jmpq   *0x2348e2(%rip)        # 23b258 <_fini+0x217ccc>
    6976:	68 48 00 00 00       	pushq  $0x48
    697b:	e9 60 fb ff ff       	jmpq   64e0 <_init+0x28>

0000000000006980 <__gmon_start__@plt>:
    6980:	ff 25 da 48 23 00    	jmpq   *0x2348da(%rip)        # 23b260 <_fini+0x217cd4>
    6986:	68 49 00 00 00       	pushq  $0x49
    698b:	e9 50 fb ff ff       	jmpq   64e0 <_init+0x28>

0000000000006990 <strtol@plt>:
    6990:	ff 25 d2 48 23 00    	jmpq   *0x2348d2(%rip)        # 23b268 <_fini+0x217cdc>
    6996:	68 4a 00 00 00       	pushq  $0x4a
    699b:	e9 40 fb ff ff       	jmpq   64e0 <_init+0x28>

00000000000069a0 <XML_ParseBuffer@plt>:
    69a0:	ff 25 ca 48 23 00    	jmpq   *0x2348ca(%rip)        # 23b270 <_fini+0x217ce4>
    69a6:	68 4b 00 00 00       	pushq  $0x4b
    69ab:	e9 30 fb ff ff       	jmpq   64e0 <_init+0x28>

00000000000069b0 <memcpy@plt>:
    69b0:	ff 25 c2 48 23 00    	jmpq   *0x2348c2(%rip)        # 23b278 <_fini+0x217cec>
    69b6:	68 4c 00 00 00       	pushq  $0x4c
    69bb:	e9 20 fb ff ff       	jmpq   64e0 <_init+0x28>

00000000000069c0 <regerror@plt>:
    69c0:	ff 25 ba 48 23 00    	jmpq   *0x2348ba(%rip)        # 23b280 <_fini+0x217cf4>
    69c6:	68 4d 00 00 00       	pushq  $0x4d
    69cb:	e9 10 fb ff ff       	jmpq   64e0 <_init+0x28>

00000000000069d0 <time@plt>:
    69d0:	ff 25 b2 48 23 00    	jmpq   *0x2348b2(%rip)        # 23b288 <_fini+0x217cfc>
    69d6:	68 4e 00 00 00       	pushq  $0x4e
    69db:	e9 00 fb ff ff       	jmpq   64e0 <_init+0x28>

00000000000069e0 <__xstat@plt>:
    69e0:	ff 25 aa 48 23 00    	jmpq   *0x2348aa(%rip)        # 23b290 <_fini+0x217d04>
    69e6:	68 4f 00 00 00       	pushq  $0x4f
    69eb:	e9 f0 fa ff ff       	jmpq   64e0 <_init+0x28>

00000000000069f0 <readdir@plt>:
    69f0:	ff 25 a2 48 23 00    	jmpq   *0x2348a2(%rip)        # 23b298 <_fini+0x217d0c>
    69f6:	68 50 00 00 00       	pushq  $0x50
    69fb:	e9 e0 fa ff ff       	jmpq   64e0 <_init+0x28>

0000000000006a00 <pthread_mutex_unlock@plt>:
    6a00:	ff 25 9a 48 23 00    	jmpq   *0x23489a(%rip)        # 23b2a0 <_fini+0x217d14>
    6a06:	68 51 00 00 00       	pushq  $0x51
    6a0b:	e9 d0 fa ff ff       	jmpq   64e0 <_init+0x28>

0000000000006a10 <malloc@plt>:
    6a10:	ff 25 92 48 23 00    	jmpq   *0x234892(%rip)        # 23b2a8 <_fini+0x217d1c>
    6a16:	68 52 00 00 00       	pushq  $0x52
    6a1b:	e9 c0 fa ff ff       	jmpq   64e0 <_init+0x28>

0000000000006a20 <fflush@plt>:
    6a20:	ff 25 8a 48 23 00    	jmpq   *0x23488a(%rip)        # 23b2b0 <_fini+0x217d24>
    6a26:	68 53 00 00 00       	pushq  $0x53
    6a2b:	e9 b0 fa ff ff       	jmpq   64e0 <_init+0x28>

0000000000006a30 <__fxstat@plt>:
    6a30:	ff 25 82 48 23 00    	jmpq   *0x234882(%rip)        # 23b2b8 <_fini+0x217d2c>
    6a36:	68 54 00 00 00       	pushq  $0x54
    6a3b:	e9 a0 fa ff ff       	jmpq   64e0 <_init+0x28>

0000000000006a40 <sscanf@plt>:
    6a40:	ff 25 7a 48 23 00    	jmpq   *0x23487a(%rip)        # 23b2c0 <_fini+0x217d34>
    6a46:	68 55 00 00 00       	pushq  $0x55
    6a4b:	e9 90 fa ff ff       	jmpq   64e0 <_init+0x28>

0000000000006a50 <regexec@plt>:
    6a50:	ff 25 72 48 23 00    	jmpq   *0x234872(%rip)        # 23b2c8 <_fini+0x217d3c>
    6a56:	68 56 00 00 00       	pushq  $0x56
    6a5b:	e9 80 fa ff ff       	jmpq   64e0 <_init+0x28>

0000000000006a60 <strpbrk@plt>:
    6a60:	ff 25 6a 48 23 00    	jmpq   *0x23486a(%rip)        # 23b2d0 <_fini+0x217d44>
    6a66:	68 57 00 00 00       	pushq  $0x57
    6a6b:	e9 70 fa ff ff       	jmpq   64e0 <_init+0x28>

0000000000006a70 <__strncpy_chk@plt>:
    6a70:	ff 25 62 48 23 00    	jmpq   *0x234862(%rip)        # 23b2d8 <_fini+0x217d4c>
    6a76:	68 58 00 00 00       	pushq  $0x58
    6a7b:	e9 60 fa ff ff       	jmpq   64e0 <_init+0x28>

0000000000006a80 <FT_Select_Size@plt>:
    6a80:	ff 25 5a 48 23 00    	jmpq   *0x23485a(%rip)        # 23b2e0 <_fini+0x217d54>
    6a86:	68 59 00 00 00       	pushq  $0x59
    6a8b:	e9 50 fa ff ff       	jmpq   64e0 <_init+0x28>

0000000000006a90 <realloc@plt>:
    6a90:	ff 25 52 48 23 00    	jmpq   *0x234852(%rip)        # 23b2e8 <_fini+0x217d5c>
    6a96:	68 5a 00 00 00       	pushq  $0x5a
    6a9b:	e9 40 fa ff ff       	jmpq   64e0 <_init+0x28>

0000000000006aa0 <__strcpy_chk@plt>:
    6aa0:	ff 25 4a 48 23 00    	jmpq   *0x23484a(%rip)        # 23b2f0 <_fini+0x217d64>
    6aa6:	68 5b 00 00 00       	pushq  $0x5b
    6aab:	e9 30 fa ff ff       	jmpq   64e0 <_init+0x28>

0000000000006ab0 <fdopen@plt>:
    6ab0:	ff 25 42 48 23 00    	jmpq   *0x234842(%rip)        # 23b2f8 <_fini+0x217d6c>
    6ab6:	68 5c 00 00 00       	pushq  $0x5c
    6abb:	e9 20 fa ff ff       	jmpq   64e0 <_init+0x28>

0000000000006ac0 <munmap@plt>:
    6ac0:	ff 25 3a 48 23 00    	jmpq   *0x23483a(%rip)        # 23b300 <_fini+0x217d74>
    6ac6:	68 5d 00 00 00       	pushq  $0x5d
    6acb:	e9 10 fa ff ff       	jmpq   64e0 <_init+0x28>

0000000000006ad0 <__printf_chk@plt>:
    6ad0:	ff 25 32 48 23 00    	jmpq   *0x234832(%rip)        # 23b308 <_fini+0x217d7c>
    6ad6:	68 5e 00 00 00       	pushq  $0x5e
    6adb:	e9 00 fa ff ff       	jmpq   64e0 <_init+0x28>

0000000000006ae0 <FT_Get_Char_Index@plt>:
    6ae0:	ff 25 2a 48 23 00    	jmpq   *0x23482a(%rip)        # 23b310 <_fini+0x217d84>
    6ae6:	68 5f 00 00 00       	pushq  $0x5f
    6aeb:	e9 f0 f9 ff ff       	jmpq   64e0 <_init+0x28>

0000000000006af0 <XML_ErrorString@plt>:
    6af0:	ff 25 22 48 23 00    	jmpq   *0x234822(%rip)        # 23b318 <_fini+0x217d8c>
    6af6:	68 60 00 00 00       	pushq  $0x60
    6afb:	e9 e0 f9 ff ff       	jmpq   64e0 <_init+0x28>

0000000000006b00 <chmod@plt>:
    6b00:	ff 25 1a 48 23 00    	jmpq   *0x23481a(%rip)        # 23b320 <_fini+0x217d94>
    6b06:	68 61 00 00 00       	pushq  $0x61
    6b0b:	e9 d0 f9 ff ff       	jmpq   64e0 <_init+0x28>

0000000000006b10 <memmove@plt>:
    6b10:	ff 25 12 48 23 00    	jmpq   *0x234812(%rip)        # 23b328 <_fini+0x217d9c>
    6b16:	68 62 00 00 00       	pushq  $0x62
    6b1b:	e9 c0 f9 ff ff       	jmpq   64e0 <_init+0x28>

0000000000006b20 <open@plt>:
    6b20:	ff 25 0a 48 23 00    	jmpq   *0x23480a(%rip)        # 23b330 <_fini+0x217da4>
    6b26:	68 63 00 00 00       	pushq  $0x63
    6b2b:	e9 b0 f9 ff ff       	jmpq   64e0 <_init+0x28>

0000000000006b30 <access@plt>:
    6b30:	ff 25 02 48 23 00    	jmpq   *0x234802(%rip)        # 23b338 <_fini+0x217dac>
    6b36:	68 64 00 00 00       	pushq  $0x64
    6b3b:	e9 a0 f9 ff ff       	jmpq   64e0 <_init+0x28>

0000000000006b40 <XML_SetElementHandler@plt>:
    6b40:	ff 25 fa 47 23 00    	jmpq   *0x2347fa(%rip)        # 23b340 <_fini+0x217db4>
    6b46:	68 65 00 00 00       	pushq  $0x65
    6b4b:	e9 90 f9 ff ff       	jmpq   64e0 <_init+0x28>

0000000000006b50 <fopen@plt>:
    6b50:	ff 25 f2 47 23 00    	jmpq   *0x2347f2(%rip)        # 23b348 <_fini+0x217dbc>
    6b56:	68 66 00 00 00       	pushq  $0x66
    6b5b:	e9 80 f9 ff ff       	jmpq   64e0 <_init+0x28>

0000000000006b60 <FT_Get_Next_Char@plt>:
    6b60:	ff 25 ea 47 23 00    	jmpq   *0x2347ea(%rip)        # 23b350 <_fini+0x217dc4>
    6b66:	68 67 00 00 00       	pushq  $0x67
    6b6b:	e9 70 f9 ff ff       	jmpq   64e0 <_init+0x28>

0000000000006b70 <perror@plt>:
    6b70:	ff 25 e2 47 23 00    	jmpq   *0x2347e2(%rip)        # 23b358 <_fini+0x217dcc>
    6b76:	68 68 00 00 00       	pushq  $0x68
    6b7b:	e9 60 f9 ff ff       	jmpq   64e0 <_init+0x28>

0000000000006b80 <rename@plt>:
    6b80:	ff 25 da 47 23 00    	jmpq   *0x2347da(%rip)        # 23b360 <_fini+0x217dd4>
    6b86:	68 69 00 00 00       	pushq  $0x69
    6b8b:	e9 50 f9 ff ff       	jmpq   64e0 <_init+0x28>

0000000000006b90 <fstatfs@plt>:
    6b90:	ff 25 d2 47 23 00    	jmpq   *0x2347d2(%rip)        # 23b368 <_fini+0x217ddc>
    6b96:	68 6a 00 00 00       	pushq  $0x6a
    6b9b:	e9 40 f9 ff ff       	jmpq   64e0 <_init+0x28>

0000000000006ba0 <strcat@plt>:
    6ba0:	ff 25 ca 47 23 00    	jmpq   *0x2347ca(%rip)        # 23b370 <_fini+0x217de4>
    6ba6:	68 6b 00 00 00       	pushq  $0x6b
    6bab:	e9 30 f9 ff ff       	jmpq   64e0 <_init+0x28>

0000000000006bb0 <link@plt>:
    6bb0:	ff 25 c2 47 23 00    	jmpq   *0x2347c2(%rip)        # 23b378 <_fini+0x217dec>
    6bb6:	68 6c 00 00 00       	pushq  $0x6c
    6bbb:	e9 20 f9 ff ff       	jmpq   64e0 <_init+0x28>

0000000000006bc0 <fwrite@plt>:
    6bc0:	ff 25 ba 47 23 00    	jmpq   *0x2347ba(%rip)        # 23b380 <_fini+0x217df4>
    6bc6:	68 6d 00 00 00       	pushq  $0x6d
    6bcb:	e9 10 f9 ff ff       	jmpq   64e0 <_init+0x28>

0000000000006bd0 <__fprintf_chk@plt>:
    6bd0:	ff 25 b2 47 23 00    	jmpq   *0x2347b2(%rip)        # 23b388 <_fini+0x217dfc>
    6bd6:	68 6e 00 00 00       	pushq  $0x6e
    6bdb:	e9 00 f9 ff ff       	jmpq   64e0 <_init+0x28>

0000000000006be0 <FT_Has_PS_Glyph_Names@plt>:
    6be0:	ff 25 aa 47 23 00    	jmpq   *0x2347aa(%rip)        # 23b390 <_fini+0x217e04>
    6be6:	68 6f 00 00 00       	pushq  $0x6f
    6beb:	e9 f0 f8 ff ff       	jmpq   64e0 <_init+0x28>

0000000000006bf0 <initstate_r@plt>:
    6bf0:	ff 25 a2 47 23 00    	jmpq   *0x2347a2(%rip)        # 23b398 <_fini+0x217e0c>
    6bf6:	68 70 00 00 00       	pushq  $0x70
    6bfb:	e9 e0 f8 ff ff       	jmpq   64e0 <_init+0x28>

0000000000006c00 <pthread_mutex_init@plt>:
    6c00:	ff 25 9a 47 23 00    	jmpq   *0x23479a(%rip)        # 23b3a0 <_fini+0x217e14>
    6c06:	68 71 00 00 00       	pushq  $0x71
    6c0b:	e9 d0 f8 ff ff       	jmpq   64e0 <_init+0x28>

0000000000006c10 <FT_Get_BDF_Property@plt>:
    6c10:	ff 25 92 47 23 00    	jmpq   *0x234792(%rip)        # 23b3a8 <_fini+0x217e1c>
    6c16:	68 72 00 00 00       	pushq  $0x72
    6c1b:	e9 c0 f8 ff ff       	jmpq   64e0 <_init+0x28>

0000000000006c20 <__cxa_finalize@plt>:
    6c20:	ff 25 8a 47 23 00    	jmpq   *0x23478a(%rip)        # 23b3b0 <_fini+0x217e24>
    6c26:	68 73 00 00 00       	pushq  $0x73
    6c2b:	e9 b0 f8 ff ff       	jmpq   64e0 <_init+0x28>

0000000000006c30 <strstr@plt>:
    6c30:	ff 25 82 47 23 00    	jmpq   *0x234782(%rip)        # 23b3b8 <_fini+0x217e2c>
    6c36:	68 74 00 00 00       	pushq  $0x74
    6c3b:	e9 a0 f8 ff ff       	jmpq   64e0 <_init+0x28>

0000000000006c40 <pthread_mutex_lock@plt>:
    6c40:	ff 25 7a 47 23 00    	jmpq   *0x23477a(%rip)        # 23b3c0 <_fini+0x217e34>
    6c46:	68 75 00 00 00       	pushq  $0x75
    6c4b:	e9 90 f8 ff ff       	jmpq   64e0 <_init+0x28>

0000000000006c50 <FT_Get_Sfnt_Name@plt>:
    6c50:	ff 25 72 47 23 00    	jmpq   *0x234772(%rip)        # 23b3c8 <_fini+0x217e3c>
    6c56:	68 76 00 00 00       	pushq  $0x76
    6c5b:	e9 80 f8 ff ff       	jmpq   64e0 <_init+0x28>

0000000000006c60 <__ctype_b_loc@plt>:
    6c60:	ff 25 6a 47 23 00    	jmpq   *0x23476a(%rip)        # 23b3d0 <_fini+0x217e44>
    6c66:	68 77 00 00 00       	pushq  $0x77
    6c6b:	e9 70 f8 ff ff       	jmpq   64e0 <_init+0x28>

0000000000006c70 <__sprintf_chk@plt>:
    6c70:	ff 25 62 47 23 00    	jmpq   *0x234762(%rip)        # 23b3d8 <_fini+0x217e4c>
    6c76:	68 78 00 00 00       	pushq  $0x78
    6c7b:	e9 60 f8 ff ff       	jmpq   64e0 <_init+0x28>

Disassembly of section .text:

0000000000006c80 <FcAtomicCreate-0xf0>:
    6c80:	48 8d 05 70 47 23 00 	lea    0x234770(%rip),%rax        # 23b3f7 <_edata+0x7>
    6c87:	48 8d 3d 62 47 23 00 	lea    0x234762(%rip),%rdi        # 23b3f0 <_edata>
    6c8e:	55                   	push   %rbp
    6c8f:	48 29 f8             	sub    %rdi,%rax
    6c92:	48 89 e5             	mov    %rsp,%rbp
    6c95:	48 83 f8 0e          	cmp    $0xe,%rax
    6c99:	77 02                	ja     6c9d <__sprintf_chk@plt+0x2d>
    6c9b:	5d                   	pop    %rbp
    6c9c:	c3                   	retq   
    6c9d:	48 8b 05 fc 42 23 00 	mov    0x2342fc(%rip),%rax        # 23afa0 <_fini+0x217a14>
    6ca4:	48 85 c0             	test   %rax,%rax
    6ca7:	74 f2                	je     6c9b <__sprintf_chk@plt+0x2b>
    6ca9:	5d                   	pop    %rbp
    6caa:	ff e0                	jmpq   *%rax
    6cac:	0f 1f 40 00          	nopl   0x0(%rax)
    6cb0:	48 8d 05 39 47 23 00 	lea    0x234739(%rip),%rax        # 23b3f0 <_edata>
    6cb7:	48 8d 3d 32 47 23 00 	lea    0x234732(%rip),%rdi        # 23b3f0 <_edata>
    6cbe:	55                   	push   %rbp
    6cbf:	48 29 f8             	sub    %rdi,%rax
    6cc2:	48 89 e5             	mov    %rsp,%rbp
    6cc5:	48 c1 f8 03          	sar    $0x3,%rax
    6cc9:	48 89 c2             	mov    %rax,%rdx
    6ccc:	48 c1 ea 3f          	shr    $0x3f,%rdx
    6cd0:	48 01 d0             	add    %rdx,%rax
    6cd3:	48 d1 f8             	sar    %rax
    6cd6:	75 02                	jne    6cda <__sprintf_chk@plt+0x6a>
    6cd8:	5d                   	pop    %rbp
    6cd9:	c3                   	retq   
    6cda:	48 8b 15 ef 42 23 00 	mov    0x2342ef(%rip),%rdx        # 23afd0 <_fini+0x217a44>
    6ce1:	48 85 d2             	test   %rdx,%rdx
    6ce4:	74 f2                	je     6cd8 <__sprintf_chk@plt+0x68>
    6ce6:	5d                   	pop    %rbp
    6ce7:	48 89 c6             	mov    %rax,%rsi
    6cea:	ff e2                	jmpq   *%rdx
    6cec:	0f 1f 40 00          	nopl   0x0(%rax)
    6cf0:	80 3d 09 47 23 00 00 	cmpb   $0x0,0x234709(%rip)        # 23b400 <_edata+0x10>
    6cf7:	75 27                	jne    6d20 <__sprintf_chk@plt+0xb0>
    6cf9:	48 83 3d d7 42 23 00 	cmpq   $0x0,0x2342d7(%rip)        # 23afd8 <_fini+0x217a4c>
    6d00:	00 
    6d01:	55                   	push   %rbp
    6d02:	48 89 e5             	mov    %rsp,%rbp
    6d05:	74 0c                	je     6d13 <__sprintf_chk@plt+0xa3>
    6d07:	48 8b 3d d2 46 23 00 	mov    0x2346d2(%rip),%rdi        # 23b3e0 <_fini+0x217e54>
    6d0e:	e8 0d ff ff ff       	callq  6c20 <__cxa_finalize@plt>
    6d13:	e8 68 ff ff ff       	callq  6c80 <__sprintf_chk@plt+0x10>
    6d18:	5d                   	pop    %rbp
    6d19:	c6 05 e0 46 23 00 01 	movb   $0x1,0x2346e0(%rip)        # 23b400 <_edata+0x10>
    6d20:	f3 c3                	repz retq 
    6d22:	66 66 66 66 66 2e 0f 	data32 data32 data32 data32 nopw %cs:0x0(%rax,%rax,1)
    6d29:	1f 84 00 00 00 00 00 
    6d30:	48 83 3d a8 2f 23 00 	cmpq   $0x0,0x232fa8(%rip)        # 239ce0 <_fini+0x216754>
    6d37:	00 
    6d38:	74 26                	je     6d60 <__sprintf_chk@plt+0xf0>
    6d3a:	48 8b 05 7f 42 23 00 	mov    0x23427f(%rip),%rax        # 23afc0 <_fini+0x217a34>
    6d41:	48 85 c0             	test   %rax,%rax
    6d44:	74 1a                	je     6d60 <__sprintf_chk@plt+0xf0>
    6d46:	55                   	push   %rbp
    6d47:	48 8d 3d 92 2f 23 00 	lea    0x232f92(%rip),%rdi        # 239ce0 <_fini+0x216754>
    6d4e:	48 89 e5             	mov    %rsp,%rbp
    6d51:	ff d0                	callq  *%rax
    6d53:	5d                   	pop    %rbp
    6d54:	e9 57 ff ff ff       	jmpq   6cb0 <__sprintf_chk@plt+0x40>
    6d59:	0f 1f 80 00 00 00 00 	nopl   0x0(%rax)
    6d60:	e9 4b ff ff ff       	jmpq   6cb0 <__sprintf_chk@plt+0x40>
    6d65:	66 2e 0f 1f 84 00 00 	nopw   %cs:0x0(%rax,%rax,1)
    6d6c:	00 00 00 
    6d6f:	90                   	nop

0000000000006d70 <FcAtomicCreate>:
    6d70:	41 55                	push   %r13
    6d72:	41 54                	push   %r12
    6d74:	55                   	push   %rbp
    6d75:	48 89 fd             	mov    %rdi,%rbp
    6d78:	53                   	push   %rbx
    6d79:	48 83 ec 08          	sub    $0x8,%rsp
    6d7d:	e8 be f9 ff ff       	callq  6740 <strlen@plt>
    6d82:	44 8d 60 05          	lea    0x5(%rax),%r12d
    6d86:	49 89 c5             	mov    %rax,%r13
    6d89:	41 8d 7c 44 30       	lea    0x30(%r12,%rax,2),%edi
    6d8e:	44 01 e7             	add    %r12d,%edi
    6d91:	48 63 ff             	movslq %edi,%rdi
    6d94:	e8 77 fc ff ff       	callq  6a10 <malloc@plt>
    6d99:	48 85 c0             	test   %rax,%rax
    6d9c:	48 89 c3             	mov    %rax,%rbx
    6d9f:	74 7e                	je     6e1f <FcAtomicCreate+0xaf>
    6da1:	48 8d 78 20          	lea    0x20(%rax),%rdi
    6da5:	48 89 ee             	mov    %rbp,%rsi
    6da8:	4d 63 ed             	movslq %r13d,%r13
    6dab:	4d 63 e4             	movslq %r12d,%r12
    6dae:	48 89 38             	mov    %rdi,(%rax)
    6db1:	49 83 c4 01          	add    $0x1,%r12
    6db5:	e8 16 f8 ff ff       	callq  65d0 <strcpy@plt>
    6dba:	48 8b 03             	mov    (%rbx),%rax
    6dbd:	48 89 ee             	mov    %rbp,%rsi
    6dc0:	4a 8d 7c 28 01       	lea    0x1(%rax,%r13,1),%rdi
    6dc5:	48 89 7b 08          	mov    %rdi,0x8(%rbx)
    6dc9:	e8 02 f8 ff ff       	callq  65d0 <strcpy@plt>
    6dce:	4c 8b 6b 08          	mov    0x8(%rbx),%r13
    6dd2:	4c 89 ef             	mov    %r13,%rdi
    6dd5:	e8 66 f9 ff ff       	callq  6740 <strlen@plt>
    6dda:	49 01 c5             	add    %rax,%r13
    6ddd:	4c 89 e7             	mov    %r12,%rdi
    6de0:	48 89 ee             	mov    %rbp,%rsi
    6de3:	41 c7 45 00 2e 4e 45 	movl   $0x57454e2e,0x0(%r13)
    6dea:	57 
    6deb:	41 c6 45 04 00       	movb   $0x0,0x4(%r13)
    6df0:	48 03 7b 08          	add    0x8(%rbx),%rdi
    6df4:	48 89 7b 10          	mov    %rdi,0x10(%rbx)
    6df8:	e8 d3 f7 ff ff       	callq  65d0 <strcpy@plt>
    6dfd:	48 8b 6b 10          	mov    0x10(%rbx),%rbp
    6e01:	48 89 ef             	mov    %rbp,%rdi
    6e04:	e8 37 f9 ff ff       	callq  6740 <strlen@plt>
    6e09:	48 01 c5             	add    %rax,%rbp
    6e0c:	c7 45 00 2e 4c 43 4b 	movl   $0x4b434c2e,0x0(%rbp)
    6e13:	c6 45 04 00          	movb   $0x0,0x4(%rbp)
    6e17:	4c 03 63 10          	add    0x10(%rbx),%r12
    6e1b:	4c 89 63 18          	mov    %r12,0x18(%rbx)
    6e1f:	48 83 c4 08          	add    $0x8,%rsp
    6e23:	48 89 d8             	mov    %rbx,%rax
    6e26:	5b                   	pop    %rbx
    6e27:	5d                   	pop    %rbp
    6e28:	41 5c                	pop    %r12
    6e2a:	41 5d                	pop    %r13
    6e2c:	c3                   	retq   
    6e2d:	0f 1f 00             	nopl   (%rax)

0000000000006e30 <FcAtomicLock>:
    6e30:	41 54                	push   %r12
    6e32:	55                   	push   %rbp
    6e33:	53                   	push   %rbx
    6e34:	48 89 fb             	mov    %rdi,%rbx
    6e37:	48 81 ec 90 00 00 00 	sub    $0x90,%rsp
    6e3e:	48 8b 33             	mov    (%rbx),%rsi
    6e41:	48 8b 7f 18          	mov    0x18(%rdi),%rdi
    6e45:	e8 86 f7 ff ff       	callq  65d0 <strcpy@plt>
    6e4a:	48 8b 6b 18          	mov    0x18(%rbx),%rbp
    6e4e:	48 89 ef             	mov    %rbp,%rdi
    6e51:	e8 ea f8 ff ff       	callq  6740 <strlen@plt>
    6e56:	48 01 c5             	add    %rax,%rbp
    6e59:	48 b8 2e 54 4d 50 2d 	movabs $0x5858582d504d542e,%rax
    6e60:	58 58 58 
    6e63:	48 89 45 00          	mov    %rax,0x0(%rbp)
    6e67:	c7 45 08 58 58 58 00 	movl   $0x585858,0x8(%rbp)
    6e6e:	48 8b 7b 18          	mov    0x18(%rbx),%rdi
    6e72:	e8 49 75 00 00       	callq  e3c0 <FcCharSetCoverage+0xc00>
    6e77:	85 c0                	test   %eax,%eax
    6e79:	89 c5                	mov    %eax,%ebp
    6e7b:	0f 88 8f 00 00 00    	js     6f10 <FcAtomicLock+0xe0>
    6e81:	48 8d 35 08 da 01 00 	lea    0x1da08(%rip),%rsi        # 24890 <_fini+0x1304>
    6e88:	89 c7                	mov    %eax,%edi
    6e8a:	e8 21 fc ff ff       	callq  6ab0 <fdopen@plt>
    6e8f:	48 85 c0             	test   %rax,%rax
    6e92:	49 89 c4             	mov    %rax,%r12
    6e95:	74 69                	je     6f00 <FcAtomicLock+0xd0>
    6e97:	e8 14 f8 ff ff       	callq  66b0 <getpid@plt>
    6e9c:	48 8d 15 fd c6 01 00 	lea    0x1c6fd(%rip),%rdx        # 235a0 <_fini+0x14>
    6ea3:	48 63 c8             	movslq %eax,%rcx
    6ea6:	4c 89 e7             	mov    %r12,%rdi
    6ea9:	31 c0                	xor    %eax,%eax
    6eab:	be 01 00 00 00       	mov    $0x1,%esi
    6eb0:	e8 1b fd ff ff       	callq  6bd0 <__fprintf_chk@plt>
    6eb5:	85 c0                	test   %eax,%eax
    6eb7:	4c 89 e7             	mov    %r12,%rdi
    6eba:	7e 64                	jle    6f20 <FcAtomicLock+0xf0>
    6ebc:	e8 0f f8 ff ff       	callq  66d0 <fclose@plt>
    6ec1:	83 f8 ff             	cmp    $0xffffffff,%eax
    6ec4:	74 41                	je     6f07 <FcAtomicLock+0xd7>
    6ec6:	48 8b 73 10          	mov    0x10(%rbx),%rsi
    6eca:	48 8b 7b 18          	mov    0x18(%rbx),%rdi
    6ece:	e8 dd fc ff ff       	callq  6bb0 <link@plt>
    6ed3:	85 c0                	test   %eax,%eax
    6ed5:	78 69                	js     6f40 <FcAtomicLock+0x110>
    6ed7:	48 8b 7b 18          	mov    0x18(%rbx),%rdi
    6edb:	e8 b0 f6 ff ff       	callq  6590 <unlink@plt>
    6ee0:	48 8b 7b 08          	mov    0x8(%rbx),%rdi
    6ee4:	e8 a7 f6 ff ff       	callq  6590 <unlink@plt>
    6ee9:	48 81 c4 90 00 00 00 	add    $0x90,%rsp
    6ef0:	b8 01 00 00 00       	mov    $0x1,%eax
    6ef5:	5b                   	pop    %rbx
    6ef6:	5d                   	pop    %rbp
    6ef7:	41 5c                	pop    %r12
    6ef9:	c3                   	retq   
    6efa:	66 0f 1f 44 00 00    	nopw   0x0(%rax,%rax,1)
    6f00:	89 ef                	mov    %ebp,%edi
    6f02:	e8 89 f9 ff ff       	callq  6890 <close@plt>
    6f07:	48 8b 7b 18          	mov    0x18(%rbx),%rdi
    6f0b:	e8 80 f6 ff ff       	callq  6590 <unlink@plt>
    6f10:	31 c0                	xor    %eax,%eax
    6f12:	48 81 c4 90 00 00 00 	add    $0x90,%rsp
    6f19:	5b                   	pop    %rbx
    6f1a:	5d                   	pop    %rbp
    6f1b:	41 5c                	pop    %r12
    6f1d:	c3                   	retq   
    6f1e:	66 90                	xchg   %ax,%ax
    6f20:	e8 ab f7 ff ff       	callq  66d0 <fclose@plt>
    6f25:	48 8b 7b 18          	mov    0x18(%rbx),%rdi
    6f29:	e8 62 f6 ff ff       	callq  6590 <unlink@plt>
    6f2e:	48 81 c4 90 00 00 00 	add    $0x90,%rsp
    6f35:	31 c0                	xor    %eax,%eax
    6f37:	5b                   	pop    %rbx
    6f38:	5d                   	pop    %rbp
    6f39:	41 5c                	pop    %r12
    6f3b:	c3                   	retq   
    6f3c:	0f 1f 40 00          	nopl   0x0(%rax)
    6f40:	e8 3b f6 ff ff       	callq  6580 <__errno_location@plt>
    6f45:	83 38 01             	cmpl   $0x1,(%rax)
    6f48:	74 68                	je     6fb2 <FcAtomicLock+0x182>
    6f4a:	48 8b 7b 18          	mov    0x18(%rbx),%rdi
    6f4e:	31 ed                	xor    %ebp,%ebp
    6f50:	e8 3b f6 ff ff       	callq  6590 <unlink@plt>
    6f55:	48 8b 7b 10          	mov    0x10(%rbx),%rdi
    6f59:	48 89 e6             	mov    %rsp,%rsi
    6f5c:	e8 cf 67 01 00       	callq  1d730 <FcPatternFilter+0x8b0>
    6f61:	85 c0                	test   %eax,%eax
    6f63:	78 ab                	js     6f10 <FcAtomicLock+0xe0>
    6f65:	31 ff                	xor    %edi,%edi
    6f67:	e8 64 fa ff ff       	callq  69d0 <time@plt>
    6f6c:	48 2b 44 24 58       	sub    0x58(%rsp),%rax
    6f71:	48 3d 58 02 00 00    	cmp    $0x258,%rax
    6f77:	7e 97                	jle    6f10 <FcAtomicLock+0xe0>
    6f79:	85 ed                	test   %ebp,%ebp
    6f7b:	48 8b 7b 10          	mov    0x10(%rbx),%rdi
    6f7f:	74 1f                	je     6fa0 <FcAtomicLock+0x170>
    6f81:	e8 9a f7 ff ff       	callq  6720 <rmdir@plt>
    6f86:	85 c0                	test   %eax,%eax
    6f88:	75 86                	jne    6f10 <FcAtomicLock+0xe0>
    6f8a:	48 89 df             	mov    %rbx,%rdi
    6f8d:	e8 9e fe ff ff       	callq  6e30 <FcAtomicLock>
    6f92:	e9 7b ff ff ff       	jmpq   6f12 <FcAtomicLock+0xe2>
    6f97:	66 0f 1f 84 00 00 00 	nopw   0x0(%rax,%rax,1)
    6f9e:	00 00 
    6fa0:	e8 eb f5 ff ff       	callq  6590 <unlink@plt>
    6fa5:	85 c0                	test   %eax,%eax
    6fa7:	0f 85 63 ff ff ff    	jne    6f10 <FcAtomicLock+0xe0>
    6fad:	0f 1f 00             	nopl   (%rax)
    6fb0:	eb d8                	jmp    6f8a <FcAtomicLock+0x15a>
    6fb2:	48 8b 7b 10          	mov    0x10(%rbx),%rdi
    6fb6:	be 80 01 00 00       	mov    $0x180,%esi
    6fbb:	e8 40 f6 ff ff       	callq  6600 <mkdir@plt>
    6fc0:	48 8b 7b 18          	mov    0x18(%rbx),%rdi
    6fc4:	89 c5                	mov    %eax,%ebp
    6fc6:	e8 c5 f5 ff ff       	callq  6590 <unlink@plt>
    6fcb:	85 ed                	test   %ebp,%ebp
    6fcd:	0f 89 0d ff ff ff    	jns    6ee0 <FcAtomicLock+0xb0>
    6fd3:	bd 01 00 00 00       	mov    $0x1,%ebp
    6fd8:	e9 78 ff ff ff       	jmpq   6f55 <FcAtomicLock+0x125>
    6fdd:	0f 1f 00             	nopl   (%rax)

0000000000006fe0 <FcAtomicNewFile>:
    6fe0:	48 8b 47 08          	mov    0x8(%rdi),%rax
    6fe4:	c3                   	retq   
    6fe5:	66 66 2e 0f 1f 84 00 	data32 nopw %cs:0x0(%rax,%rax,1)
    6fec:	00 00 00 00 

0000000000006ff0 <FcAtomicOrigFile>:
    6ff0:	48 8b 07             	mov    (%rdi),%rax
    6ff3:	c3                   	retq   
    6ff4:	66 66 66 2e 0f 1f 84 	data32 data32 nopw %cs:0x0(%rax,%rax,1)
    6ffb:	00 00 00 00 00 

0000000000007000 <FcAtomicReplaceOrig>:
    7000:	48 89 f8             	mov    %rdi,%rax
    7003:	48 83 ec 08          	sub    $0x8,%rsp
    7007:	48 8b 7f 08          	mov    0x8(%rdi),%rdi
    700b:	48 8b 30             	mov    (%rax),%rsi
    700e:	e8 6d fb ff ff       	callq  6b80 <rename@plt>
    7013:	f7 d0                	not    %eax
    7015:	48 83 c4 08          	add    $0x8,%rsp
    7019:	c1 e8 1f             	shr    $0x1f,%eax
    701c:	c3                   	retq   
    701d:	0f 1f 00             	nopl   (%rax)

0000000000007020 <FcAtomicDeleteNew>:
    7020:	48 8b 7f 08          	mov    0x8(%rdi),%rdi
    7024:	e9 67 f5 ff ff       	jmpq   6590 <unlink@plt>
    7029:	0f 1f 80 00 00 00 00 	nopl   0x0(%rax)

0000000000007030 <FcAtomicUnlock>:
    7030:	53                   	push   %rbx
    7031:	48 89 fb             	mov    %rdi,%rbx
    7034:	48 8b 7f 10          	mov    0x10(%rdi),%rdi
    7038:	e8 53 f5 ff ff       	callq  6590 <unlink@plt>
    703d:	83 f8 ff             	cmp    $0xffffffff,%eax
    7040:	74 06                	je     7048 <FcAtomicUnlock+0x18>
    7042:	5b                   	pop    %rbx
    7043:	c3                   	retq   
    7044:	0f 1f 40 00          	nopl   0x0(%rax)
    7048:	48 8b 7b 10          	mov    0x10(%rbx),%rdi
    704c:	5b                   	pop    %rbx
    704d:	e9 ce f6 ff ff       	jmpq   6720 <rmdir@plt>
    7052:	66 66 66 66 66 2e 0f 	data32 data32 data32 data32 nopw %cs:0x0(%rax,%rax,1)
    7059:	1f 84 00 00 00 00 00 

0000000000007060 <FcAtomicDestroy>:
    7060:	e9 cb f4 ff ff       	jmpq   6530 <free@plt>
    7065:	66 2e 0f 1f 84 00 00 	nopw   %cs:0x0(%rax,%rax,1)
    706c:	00 00 00 
    706f:	90                   	nop

0000000000007070 <FcBlanksCreate>:
    7070:	48 83 ec 08          	sub    $0x8,%rsp
    7074:	bf 10 00 00 00       	mov    $0x10,%edi
    7079:	e8 92 f9 ff ff       	callq  6a10 <malloc@plt>
    707e:	48 85 c0             	test   %rax,%rax
    7081:	74 15                	je     7098 <FcBlanksCreate+0x28>
    7083:	c7 00 00 00 00 00    	movl   $0x0,(%rax)
    7089:	c7 40 04 00 00 00 00 	movl   $0x0,0x4(%rax)
    7090:	48 c7 40 08 00 00 00 	movq   $0x0,0x8(%rax)
    7097:	00 
    7098:	48 83 c4 08          	add    $0x8,%rsp
    709c:	c3                   	retq   
    709d:	0f 1f 00             	nopl   (%rax)

00000000000070a0 <FcBlanksDestroy>:
    70a0:	53                   	push   %rbx
    70a1:	48 89 fb             	mov    %rdi,%rbx
    70a4:	48 8b 7f 08          	mov    0x8(%rdi),%rdi
    70a8:	48 85 ff             	test   %rdi,%rdi
    70ab:	74 05                	je     70b2 <FcBlanksDestroy+0x12>
    70ad:	e8 7e f4 ff ff       	callq  6530 <free@plt>
    70b2:	48 89 df             	mov    %rbx,%rdi
    70b5:	5b                   	pop    %rbx
    70b6:	e9 75 f4 ff ff       	jmpq   6530 <free@plt>
    70bb:	0f 1f 44 00 00       	nopl   0x0(%rax,%rax,1)

00000000000070c0 <FcBlanksAdd>:
    70c0:	41 54                	push   %r12
    70c2:	55                   	push   %rbp
    70c3:	48 89 fd             	mov    %rdi,%rbp
    70c6:	53                   	push   %rbx
    70c7:	89 f3                	mov    %esi,%ebx
    70c9:	48 63 37             	movslq (%rdi),%rsi
    70cc:	48 8b 7f 08          	mov    0x8(%rdi),%rdi
    70d0:	85 f6                	test   %esi,%esi
    70d2:	7e 22                	jle    70f6 <FcBlanksAdd+0x36>
    70d4:	39 1f                	cmp    %ebx,(%rdi)
    70d6:	74 38                	je     7110 <FcBlanksAdd+0x50>
    70d8:	48 8d 57 04          	lea    0x4(%rdi),%rdx
    70dc:	8d 46 ff             	lea    -0x1(%rsi),%eax
    70df:	48 8d 0c 82          	lea    (%rdx,%rax,4),%rcx
    70e3:	eb 0c                	jmp    70f1 <FcBlanksAdd+0x31>
    70e5:	0f 1f 00             	nopl   (%rax)
    70e8:	48 83 c2 04          	add    $0x4,%rdx
    70ec:	39 5a fc             	cmp    %ebx,-0x4(%rdx)
    70ef:	74 1f                	je     7110 <FcBlanksAdd+0x50>
    70f1:	48 39 ca             	cmp    %rcx,%rdx
    70f4:	75 f2                	jne    70e8 <FcBlanksAdd+0x28>
    70f6:	39 75 04             	cmp    %esi,0x4(%rbp)
    70f9:	74 25                	je     7120 <FcBlanksAdd+0x60>
    70fb:	8d 46 01             	lea    0x1(%rsi),%eax
    70fe:	89 45 00             	mov    %eax,0x0(%rbp)
    7101:	89 1c b7             	mov    %ebx,(%rdi,%rsi,4)
    7104:	b8 01 00 00 00       	mov    $0x1,%eax
    7109:	5b                   	pop    %rbx
    710a:	5d                   	pop    %rbp
    710b:	41 5c                	pop    %r12
    710d:	c3                   	retq   
    710e:	66 90                	xchg   %ax,%ax
    7110:	5b                   	pop    %rbx
    7111:	5d                   	pop    %rbp
    7112:	b8 01 00 00 00       	mov    $0x1,%eax
    7117:	41 5c                	pop    %r12
    7119:	c3                   	retq   
    711a:	66 0f 1f 44 00 00    	nopw   0x0(%rax,%rax,1)
    7120:	48 85 ff             	test   %rdi,%rdi
    7123:	44 8d 66 20          	lea    0x20(%rsi),%r12d
    7127:	74 22                	je     714b <FcBlanksAdd+0x8b>
    7129:	49 63 f4             	movslq %r12d,%rsi
    712c:	48 c1 e6 02          	shl    $0x2,%rsi
    7130:	e8 5b f9 ff ff       	callq  6a90 <realloc@plt>
    7135:	48 85 c0             	test   %rax,%rax
    7138:	74 1f                	je     7159 <FcBlanksAdd+0x99>
    713a:	44 89 65 04          	mov    %r12d,0x4(%rbp)
    713e:	48 89 45 08          	mov    %rax,0x8(%rbp)
    7142:	48 89 c7             	mov    %rax,%rdi
    7145:	48 63 75 00          	movslq 0x0(%rbp),%rsi
    7149:	eb b0                	jmp    70fb <FcBlanksAdd+0x3b>
    714b:	49 63 fc             	movslq %r12d,%rdi
    714e:	48 c1 e7 02          	shl    $0x2,%rdi
    7152:	e8 b9 f8 ff ff       	callq  6a10 <malloc@plt>
    7157:	eb dc                	jmp    7135 <FcBlanksAdd+0x75>
    7159:	31 c0                	xor    %eax,%eax
    715b:	eb ac                	jmp    7109 <FcBlanksAdd+0x49>
    715d:	0f 1f 00             	nopl   (%rax)

0000000000007160 <FcBlanksIsMember>:
    7160:	8b 17                	mov    (%rdi),%edx
    7162:	85 d2                	test   %edx,%edx
    7164:	7e 28                	jle    718e <FcBlanksIsMember+0x2e>
    7166:	48 8b 47 08          	mov    0x8(%rdi),%rax
    716a:	39 30                	cmp    %esi,(%rax)
    716c:	74 2a                	je     7198 <FcBlanksIsMember+0x38>
    716e:	48 83 c0 04          	add    $0x4,%rax
    7172:	83 ea 01             	sub    $0x1,%edx
    7175:	48 8d 14 90          	lea    (%rax,%rdx,4),%rdx
    7179:	eb 0e                	jmp    7189 <FcBlanksIsMember+0x29>
    717b:	0f 1f 44 00 00       	nopl   0x0(%rax,%rax,1)
    7180:	48 83 c0 04          	add    $0x4,%rax
    7184:	39 70 fc             	cmp    %esi,-0x4(%rax)
    7187:	74 0f                	je     7198 <FcBlanksIsMember+0x38>
    7189:	48 39 d0             	cmp    %rdx,%rax
    718c:	75 f2                	jne    7180 <FcBlanksIsMember+0x20>
    718e:	31 c0                	xor    %eax,%eax
    7190:	c3                   	retq   
    7191:	0f 1f 80 00 00 00 00 	nopl   0x0(%rax)
    7198:	b8 01 00 00 00       	mov    $0x1,%eax
    719d:	c3                   	retq   
    719e:	66 90                	xchg   %ax,%ax
    71a0:	48 85 ff             	test   %rdi,%rdi
    71a3:	74 70                	je     7215 <FcBlanksIsMember+0xb5>
    71a5:	44 8b 05 84 42 23 00 	mov    0x234284(%rip),%r8d        # 23b430 <_edata+0x40>
    71ac:	48 8d 35 8d 42 23 00 	lea    0x23428d(%rip),%rsi        # 23b440 <_edata+0x50>
    71b3:	49 63 c0             	movslq %r8d,%rax
    71b6:	41 83 e8 01          	sub    $0x1,%r8d
    71ba:	48 8d 0c c5 f8 ff ff 	lea    -0x8(,%rax,8),%rcx
    71c1:	ff 
    71c2:	78 38                	js     71fc <FcBlanksIsMember+0x9c>
    71c4:	0f 1f 40 00          	nopl   0x0(%rax)
    71c8:	48 8b 04 0e          	mov    (%rsi,%rcx,1),%rax
    71cc:	48 85 c0             	test   %rax,%rax
    71cf:	75 15                	jne    71e6 <FcBlanksIsMember+0x86>
    71d1:	eb 1f                	jmp    71f2 <FcBlanksIsMember+0x92>
    71d3:	0f 1f 44 00 00       	nopl   0x0(%rax,%rax,1)
    71d8:	48 8d 70 30          	lea    0x30(%rax),%rsi
    71dc:	48 8b 44 08 30       	mov    0x30(%rax,%rcx,1),%rax
    71e1:	48 85 c0             	test   %rax,%rax
    71e4:	74 0c                	je     71f2 <FcBlanksIsMember+0x92>
    71e6:	48 8b 10             	mov    (%rax),%rdx
    71e9:	48 03 50 10          	add    0x10(%rax),%rdx
    71ed:	48 39 d7             	cmp    %rdx,%rdi
    71f0:	73 e6                	jae    71d8 <FcBlanksIsMember+0x78>
    71f2:	48 83 e9 08          	sub    $0x8,%rcx
    71f6:	41 83 e8 01          	sub    $0x1,%r8d
    71fa:	79 cc                	jns    71c8 <FcBlanksIsMember+0x68>
    71fc:	48 8b 16             	mov    (%rsi),%rdx
    71ff:	48 85 d2             	test   %rdx,%rdx
    7202:	74 11                	je     7215 <FcBlanksIsMember+0xb5>
    7204:	48 8b 0a             	mov    (%rdx),%rcx
    7207:	48 03 4a 10          	add    0x10(%rdx),%rcx
    720b:	31 c0                	xor    %eax,%eax
    720d:	48 39 cf             	cmp    %rcx,%rdi
    7210:	48 0f 42 c2          	cmovb  %rdx,%rax
    7214:	c3                   	retq   
    7215:	31 c0                	xor    %eax,%eax
    7217:	c3                   	retq   
    7218:	0f 1f 84 00 00 00 00 	nopl   0x0(%rax,%rax,1)
    721f:	00 
    7220:	41 57                	push   %r15
    7222:	8b 07                	mov    (%rdi),%eax
    7224:	8b 4f 0c             	mov    0xc(%rdi),%ecx
    7227:	44 8b 7f 08          	mov    0x8(%rdi),%r15d
    722b:	41 56                	push   %r14
    722d:	44 8b 5f 04          	mov    0x4(%rdi),%r11d
    7231:	41 55                	push   %r13
    7233:	41 54                	push   %r12
    7235:	55                   	push   %rbp
    7236:	53                   	push   %rbx
    7237:	8b 2e                	mov    (%rsi),%ebp
    7239:	8b 5e 04             	mov    0x4(%rsi),%ebx
    723c:	44 8b 56 14          	mov    0x14(%rsi),%r10d
    7240:	8d 94 28 78 a4 6a d7 	lea    -0x28955b88(%rax,%rbp,1),%edx
    7247:	8b 47 0c             	mov    0xc(%rdi),%eax
    724a:	33 47 08             	xor    0x8(%rdi),%eax
    724d:	23 47 04             	and    0x4(%rdi),%eax
    7250:	8d 8c 19 56 b7 c7 e8 	lea    -0x173848aa(%rcx,%rbx,1),%ecx
    7257:	89 5c 24 e0          	mov    %ebx,-0x20(%rsp)
    725b:	33 47 0c             	xor    0xc(%rdi),%eax
    725e:	8b 5e 1c             	mov    0x1c(%rsi),%ebx
    7261:	01 d0                	add    %edx,%eax
    7263:	8b 57 08             	mov    0x8(%rdi),%edx
    7266:	33 57 04             	xor    0x4(%rdi),%edx
    7269:	c1 c8 19             	ror    $0x19,%eax
    726c:	03 47 04             	add    0x4(%rdi),%eax
    726f:	21 c2                	and    %eax,%edx
    7271:	33 57 08             	xor    0x8(%rdi),%edx
    7274:	01 ca                	add    %ecx,%edx
    7276:	8b 4e 08             	mov    0x8(%rsi),%ecx
    7279:	c1 ca 14             	ror    $0x14,%edx
    727c:	01 c2                	add    %eax,%edx
    727e:	45 8d 84 0f db 70 20 	lea    0x242070db(%r15,%rcx,1),%r8d
    7285:	24 
    7286:	44 8b 7f 04          	mov    0x4(%rdi),%r15d
    728a:	89 4c 24 e4          	mov    %ecx,-0x1c(%rsp)
    728e:	41 31 c7             	xor    %eax,%r15d
    7291:	44 89 f9             	mov    %r15d,%ecx
    7294:	44 8b 7e 0c          	mov    0xc(%rsi),%r15d
    7298:	21 d1                	and    %edx,%ecx
    729a:	33 4f 04             	xor    0x4(%rdi),%ecx
    729d:	47 8d 8c 3b ee ce bd 	lea    -0x3e423112(%r11,%r15,1),%r9d
    72a4:	c1 
    72a5:	41 89 d3             	mov    %edx,%r11d
    72a8:	44 89 7c 24 e8       	mov    %r15d,-0x18(%rsp)
    72ad:	41 31 c3             	xor    %eax,%r11d
    72b0:	41 01 c8             	add    %ecx,%r8d
    72b3:	44 89 d9             	mov    %r11d,%ecx
    72b6:	44 8b 5e 10          	mov    0x10(%rsi),%r11d
    72ba:	41 c1 c8 0f          	ror    $0xf,%r8d
    72be:	41 01 d0             	add    %edx,%r8d
    72c1:	44 21 c1             	and    %r8d,%ecx
    72c4:	44 89 5c 24 ec       	mov    %r11d,-0x14(%rsp)
    72c9:	31 c1                	xor    %eax,%ecx
    72cb:	44 01 c9             	add    %r9d,%ecx
    72ce:	46 8d 8c 18 af 0f 7c 	lea    -0xa83f051(%rax,%r11,1),%r9d
    72d5:	f5 
    72d6:	44 89 c0             	mov    %r8d,%eax
    72d9:	c1 c9 0a             	ror    $0xa,%ecx
    72dc:	31 d0                	xor    %edx,%eax
    72de:	44 01 c1             	add    %r8d,%ecx
    72e1:	21 c8                	and    %ecx,%eax
    72e3:	31 d0                	xor    %edx,%eax
    72e5:	44 01 c8             	add    %r9d,%eax
    72e8:	46 8d 8c 12 2a c6 87 	lea    0x4787c62a(%rdx,%r10,1),%r9d
    72ef:	47 
    72f0:	89 ca                	mov    %ecx,%edx
    72f2:	c1 c8 19             	ror    $0x19,%eax
    72f5:	44 31 c2             	xor    %r8d,%edx
    72f8:	01 c8                	add    %ecx,%eax
    72fa:	21 c2                	and    %eax,%edx
    72fc:	44 31 c2             	xor    %r8d,%edx
    72ff:	44 01 ca             	add    %r9d,%edx
    7302:	44 8b 4e 18          	mov    0x18(%rsi),%r9d
    7306:	c1 ca 14             	ror    $0x14,%edx
    7309:	01 c2                	add    %eax,%edx
    730b:	44 89 4c 24 f0       	mov    %r9d,-0x10(%rsp)
    7310:	47 8d 8c 08 13 46 30 	lea    -0x57cfb9ed(%r8,%r9,1),%r9d
    7317:	a8 
    7318:	41 89 c0             	mov    %eax,%r8d
    731b:	41 31 c8             	xor    %ecx,%r8d
    731e:	41 89 d4             	mov    %edx,%r12d
    7321:	41 21 d0             	and    %edx,%r8d
    7324:	41 31 c4             	xor    %eax,%r12d
    7327:	41 31 c8             	xor    %ecx,%r8d
    732a:	45 01 c1             	add    %r8d,%r9d
    732d:	44 8d 84 19 01 95 46 	lea    -0x2b96aff(%rcx,%rbx,1),%r8d
    7334:	fd 
    7335:	44 89 e1             	mov    %r12d,%ecx
    7338:	41 c1 c9 0f          	ror    $0xf,%r9d
    733c:	41 01 d1             	add    %edx,%r9d
    733f:	44 21 c9             	and    %r9d,%ecx
    7342:	31 c1                	xor    %eax,%ecx
    7344:	44 01 c1             	add    %r8d,%ecx
    7347:	44 8b 46 20          	mov    0x20(%rsi),%r8d
    734b:	c1 c9 0a             	ror    $0xa,%ecx
    734e:	44 01 c9             	add    %r9d,%ecx
    7351:	44 89 44 24 f4       	mov    %r8d,-0xc(%rsp)
    7356:	46 8d 84 00 d8 98 80 	lea    0x698098d8(%rax,%r8,1),%r8d
    735d:	69 
    735e:	44 89 c8             	mov    %r9d,%eax
    7361:	31 d0                	xor    %edx,%eax
    7363:	44 8b 7e 24          	mov    0x24(%rsi),%r15d
    7367:	21 c8                	and    %ecx,%eax
    7369:	31 d0                	xor    %edx,%eax
    736b:	44 01 c0             	add    %r8d,%eax
    736e:	46 8d 84 3a af f7 44 	lea    -0x74bb0851(%rdx,%r15,1),%r8d
    7375:	8b 
    7376:	89 ca                	mov    %ecx,%edx
    7378:	c1 c8 19             	ror    $0x19,%eax
    737b:	44 31 ca             	xor    %r9d,%edx
    737e:	01 c8                	add    %ecx,%eax
    7380:	21 c2                	and    %eax,%edx
    7382:	41 89 c5             	mov    %eax,%r13d
    7385:	44 31 ca             	xor    %r9d,%edx
    7388:	41 31 cd             	xor    %ecx,%r13d
    738b:	44 01 c2             	add    %r8d,%edx
    738e:	44 8b 46 28          	mov    0x28(%rsi),%r8d
    7392:	c1 ca 14             	ror    $0x14,%edx
    7395:	01 c2                	add    %eax,%edx
    7397:	47 8d a4 01 b1 5b ff 	lea    -0xa44f(%r9,%r8,1),%r12d
    739e:	ff 
    739f:	45 89 e9             	mov    %r13d,%r9d
    73a2:	44 8b 6e 2c          	mov    0x2c(%rsi),%r13d
    73a6:	41 21 d1             	and    %edx,%r9d
    73a9:	41 31 c9             	xor    %ecx,%r9d
    73ac:	45 01 cc             	add    %r9d,%r12d
    73af:	44 89 6c 24 f8       	mov    %r13d,-0x8(%rsp)
    73b4:	46 8d ac 29 be d7 5c 	lea    -0x76a32842(%rcx,%r13,1),%r13d
    73bb:	89 
    73bc:	41 c1 cc 0f          	ror    $0xf,%r12d
    73c0:	89 d1                	mov    %edx,%ecx
    73c2:	44 8b 4e 30          	mov    0x30(%rsi),%r9d
    73c6:	41 01 d4             	add    %edx,%r12d
    73c9:	31 c1                	xor    %eax,%ecx
    73cb:	44 21 e1             	and    %r12d,%ecx
    73ce:	31 c1                	xor    %eax,%ecx
    73d0:	41 01 cd             	add    %ecx,%r13d
    73d3:	42 8d 8c 08 22 11 90 	lea    0x6b901122(%rax,%r9,1),%ecx
    73da:	6b 
    73db:	44 89 e0             	mov    %r12d,%eax
    73de:	41 c1 cd 0a          	ror    $0xa,%r13d
    73e2:	31 d0                	xor    %edx,%eax
    73e4:	45 01 e5             	add    %r12d,%r13d
    73e7:	44 21 e8             	and    %r13d,%eax
    73ea:	31 d0                	xor    %edx,%eax
    73ec:	01 c8                	add    %ecx,%eax
    73ee:	8b 4e 34             	mov    0x34(%rsi),%ecx
    73f1:	c1 c8 19             	ror    $0x19,%eax
    73f4:	44 01 e8             	add    %r13d,%eax
    73f7:	44 8d 9c 0a 93 71 98 	lea    -0x2678e6d(%rdx,%rcx,1),%r11d
    73fe:	fd 
    73ff:	44 89 ea             	mov    %r13d,%edx
    7402:	44 31 e2             	xor    %r12d,%edx
    7405:	21 c2                	and    %eax,%edx
    7407:	44 31 e2             	xor    %r12d,%edx
    740a:	44 01 da             	add    %r11d,%edx
    740d:	44 8b 5e 38          	mov    0x38(%rsi),%r11d
    7411:	8b 76 3c             	mov    0x3c(%rsi),%esi
    7414:	c1 ca 14             	ror    $0x14,%edx
    7417:	01 c2                	add    %eax,%edx
    7419:	47 8d b4 1c 8e 43 79 	lea    -0x5986bc72(%r12,%r11,1),%r14d
    7420:	a6 
    7421:	41 89 c4             	mov    %eax,%r12d
    7424:	45 31 ec             	xor    %r13d,%r12d
    7427:	41 21 d4             	and    %edx,%r12d
    742a:	45 31 ec             	xor    %r13d,%r12d
    742d:	45 01 f4             	add    %r14d,%r12d
    7430:	45 8d b4 35 21 08 b4 	lea    0x49b40821(%r13,%rsi,1),%r14d
    7437:	49 
    7438:	41 89 d5             	mov    %edx,%r13d
    743b:	41 c1 cc 0f          	ror    $0xf,%r12d
    743f:	41 31 c5             	xor    %eax,%r13d
    7442:	41 01 d4             	add    %edx,%r12d
    7445:	45 21 e5             	and    %r12d,%r13d
    7448:	41 31 c5             	xor    %eax,%r13d
    744b:	45 01 f5             	add    %r14d,%r13d
    744e:	44 8b 74 24 e0       	mov    -0x20(%rsp),%r14d
    7453:	41 c1 cd 0a          	ror    $0xa,%r13d
    7457:	45 01 e5             	add    %r12d,%r13d
    745a:	45 8d b4 06 62 25 1e 	lea    -0x9e1da9e(%r14,%rax,1),%r14d
    7461:	f6 
    7462:	44 89 e8             	mov    %r13d,%eax
    7465:	44 31 e0             	xor    %r12d,%eax
    7468:	21 d0                	and    %edx,%eax
    746a:	44 31 e0             	xor    %r12d,%eax
    746d:	44 01 f0             	add    %r14d,%eax
    7470:	44 8b 74 24 f0       	mov    -0x10(%rsp),%r14d
    7475:	c1 c8 1b             	ror    $0x1b,%eax
    7478:	44 01 e8             	add    %r13d,%eax
    747b:	45 8d b4 16 40 b3 40 	lea    -0x3fbf4cc0(%r14,%rdx,1),%r14d
    7482:	c0 
    7483:	89 c2                	mov    %eax,%edx
    7485:	44 31 ea             	xor    %r13d,%edx
    7488:	44 21 e2             	and    %r12d,%edx
    748b:	44 31 ea             	xor    %r13d,%edx
    748e:	44 01 f2             	add    %r14d,%edx
    7491:	44 8b 74 24 f8       	mov    -0x8(%rsp),%r14d
    7496:	c1 ca 17             	ror    $0x17,%edx
    7499:	01 c2                	add    %eax,%edx
    749b:	47 8d b4 26 51 5a 5e 	lea    0x265e5a51(%r14,%r12,1),%r14d
    74a2:	26 
    74a3:	41 89 d4             	mov    %edx,%r12d
    74a6:	41 31 c4             	xor    %eax,%r12d
    74a9:	45 21 ec             	and    %r13d,%r12d
    74ac:	41 31 c4             	xor    %eax,%r12d
    74af:	45 01 f4             	add    %r14d,%r12d
    74b2:	46 8d b4 2d aa c7 b6 	lea    -0x16493856(%rbp,%r13,1),%r14d
    74b9:	e9 
    74ba:	41 c1 cc 12          	ror    $0x12,%r12d
    74be:	41 01 d4             	add    %edx,%r12d
    74c1:	45 89 e5             	mov    %r12d,%r13d
    74c4:	41 31 d5             	xor    %edx,%r13d
    74c7:	41 21 c5             	and    %eax,%r13d
    74ca:	41 31 d5             	xor    %edx,%r13d
    74cd:	45 01 f5             	add    %r14d,%r13d
    74d0:	45 8d b4 02 5d 10 2f 	lea    -0x29d0efa3(%r10,%rax,1),%r14d
    74d7:	d6 
    74d8:	41 c1 cd 0c          	ror    $0xc,%r13d
    74dc:	45 01 e5             	add    %r12d,%r13d
    74df:	44 89 e8             	mov    %r13d,%eax
    74e2:	44 31 e0             	xor    %r12d,%eax
    74e5:	21 d0                	and    %edx,%eax
    74e7:	44 31 e0             	xor    %r12d,%eax
    74ea:	44 01 f0             	add    %r14d,%eax
    74ed:	45 8d b4 10 53 14 44 	lea    0x2441453(%r8,%rdx,1),%r14d
    74f4:	02 
    74f5:	c1 c8 1b             	ror    $0x1b,%eax
    74f8:	44 01 e8             	add    %r13d,%eax
    74fb:	89 c2                	mov    %eax,%edx
    74fd:	44 31 ea             	xor    %r13d,%edx
    7500:	44 21 e2             	and    %r12d,%edx
    7503:	44 31 ea             	xor    %r13d,%edx
    7506:	44 01 f2             	add    %r14d,%edx
    7509:	46 8d b4 26 81 e6 a1 	lea    -0x275e197f(%rsi,%r12,1),%r14d
    7510:	d8 
    7511:	c1 ca 17             	ror    $0x17,%edx
    7514:	01 c2                	add    %eax,%edx
    7516:	41 89 d4             	mov    %edx,%r12d
    7519:	41 31 c4             	xor    %eax,%r12d
    751c:	45 21 ec             	and    %r13d,%r12d
    751f:	41 31 c4             	xor    %eax,%r12d
    7522:	45 01 f4             	add    %r14d,%r12d
    7525:	44 8b 74 24 ec       	mov    -0x14(%rsp),%r14d
    752a:	41 c1 cc 12          	ror    $0x12,%r12d
    752e:	41 01 d4             	add    %edx,%r12d
    7531:	47 8d b4 2e c8 fb d3 	lea    -0x182c0438(%r14,%r13,1),%r14d
    7538:	e7 
    7539:	45 89 e5             	mov    %r12d,%r13d
    753c:	41 31 d5             	xor    %edx,%r13d
    753f:	41 21 c5             	and    %eax,%r13d
    7542:	41 31 d5             	xor    %edx,%r13d
    7545:	45 01 f5             	add    %r14d,%r13d
    7548:	45 8d b4 07 e6 cd e1 	lea    0x21e1cde6(%r15,%rax,1),%r14d
    754f:	21 
    7550:	41 c1 cd 0c          	ror    $0xc,%r13d
    7554:	45 01 e5             	add    %r12d,%r13d
    7557:	44 89 e8             	mov    %r13d,%eax
    755a:	44 31 e0             	xor    %r12d,%eax
    755d:	21 d0                	and    %edx,%eax
    755f:	44 31 e0             	xor    %r12d,%eax
    7562:	44 01 f0             	add    %r14d,%eax
    7565:	45 8d b4 13 d6 07 37 	lea    -0x3cc8f82a(%r11,%rdx,1),%r14d
    756c:	c3 
    756d:	c1 c8 1b             	ror    $0x1b,%eax
    7570:	44 01 e8             	add    %r13d,%eax
    7573:	89 c2                	mov    %eax,%edx
    7575:	44 31 ea             	xor    %r13d,%edx
    7578:	44 21 e2             	and    %r12d,%edx
    757b:	44 31 ea             	xor    %r13d,%edx
    757e:	44 01 f2             	add    %r14d,%edx
    7581:	44 8b 74 24 e8       	mov    -0x18(%rsp),%r14d
    7586:	c1 ca 17             	ror    $0x17,%edx
    7589:	01 c2                	add    %eax,%edx
    758b:	47 8d b4 26 87 0d d5 	lea    -0xb2af279(%r14,%r12,1),%r14d
    7592:	f4 
    7593:	41 89 d4             	mov    %edx,%r12d
    7596:	41 31 c4             	xor    %eax,%r12d
    7599:	45 21 ec             	and    %r13d,%r12d
    759c:	41 31 c4             	xor    %eax,%r12d
    759f:	45 01 f4             	add    %r14d,%r12d
    75a2:	44 8b 74 24 f4       	mov    -0xc(%rsp),%r14d
    75a7:	41 c1 cc 12          	ror    $0x12,%r12d
    75ab:	41 01 d4             	add    %edx,%r12d
    75ae:	47 8d b4 2e ed 14 5a 	lea    0x455a14ed(%r14,%r13,1),%r14d
    75b5:	45 
    75b6:	45 89 e5             	mov    %r12d,%r13d
    75b9:	41 31 d5             	xor    %edx,%r13d
    75bc:	41 21 c5             	and    %eax,%r13d
    75bf:	41 31 d5             	xor    %edx,%r13d
    75c2:	45 01 f5             	add    %r14d,%r13d
    75c5:	44 8d b4 01 05 e9 e3 	lea    -0x561c16fb(%rcx,%rax,1),%r14d
    75cc:	a9 
    75cd:	41 c1 cd 0c          	ror    $0xc,%r13d
    75d1:	45 01 e5             	add    %r12d,%r13d
    75d4:	44 89 e8             	mov    %r13d,%eax
    75d7:	44 31 e0             	xor    %r12d,%eax
    75da:	21 d0                	and    %edx,%eax
    75dc:	44 31 e0             	xor    %r12d,%eax
    75df:	44 01 f0             	add    %r14d,%eax
    75e2:	44 8b 74 24 e4       	mov    -0x1c(%rsp),%r14d
    75e7:	c1 c8 1b             	ror    $0x1b,%eax
    75ea:	44 01 e8             	add    %r13d,%eax
    75ed:	45 8d b4 16 f8 a3 ef 	lea    -0x3105c08(%r14,%rdx,1),%r14d
    75f4:	fc 
    75f5:	89 c2                	mov    %eax,%edx
    75f7:	44 31 ea             	xor    %r13d,%edx
    75fa:	44 21 e2             	and    %r12d,%edx
    75fd:	44 31 ea             	xor    %r13d,%edx
    7600:	44 01 f2             	add    %r14d,%edx
    7603:	46 8d b4 23 d9 02 6f 	lea    0x676f02d9(%rbx,%r12,1),%r14d
    760a:	67 
    760b:	c1 ca 17             	ror    $0x17,%edx
    760e:	01 c2                	add    %eax,%edx
    7610:	41 89 d4             	mov    %edx,%r12d
    7613:	41 31 c4             	xor    %eax,%r12d
    7616:	45 21 ec             	and    %r13d,%r12d
    7619:	47 8d ac 29 8a 4c 2a 	lea    -0x72d5b376(%r9,%r13,1),%r13d
    7620:	8d 
    7621:	41 31 c4             	xor    %eax,%r12d
    7624:	45 01 f4             	add    %r14d,%r12d
    7627:	44 89 6c 24 fc       	mov    %r13d,-0x4(%rsp)
    762c:	41 c1 cc 12          	ror    $0x12,%r12d
    7630:	41 01 d4             	add    %edx,%r12d
    7633:	45 89 e6             	mov    %r12d,%r14d
    7636:	41 31 d6             	xor    %edx,%r14d
    7639:	45 89 f5             	mov    %r14d,%r13d
    763c:	41 21 c5             	and    %eax,%r13d
    763f:	41 8d 84 02 42 39 fa 	lea    -0x5c6be(%r10,%rax,1),%eax
    7646:	ff 
    7647:	41 31 d5             	xor    %edx,%r13d
    764a:	44 03 6c 24 fc       	add    -0x4(%rsp),%r13d
    764f:	41 c1 cd 0c          	ror    $0xc,%r13d
    7653:	45 01 e5             	add    %r12d,%r13d
    7656:	45 31 ee             	xor    %r13d,%r14d
    7659:	41 01 c6             	add    %eax,%r14d
    765c:	8b 44 24 f4          	mov    -0xc(%rsp),%eax
    7660:	41 c1 ce 1c          	ror    $0x1c,%r14d
    7664:	45 01 ee             	add    %r13d,%r14d
    7667:	8d 94 10 81 f6 71 87 	lea    -0x788e097f(%rax,%rdx,1),%edx
    766e:	44 89 e8             	mov    %r13d,%eax
    7671:	44 31 e0             	xor    %r12d,%eax
    7674:	44 31 f0             	xor    %r14d,%eax
    7677:	01 c2                	add    %eax,%edx
    7679:	8b 44 24 f8          	mov    -0x8(%rsp),%eax
    767d:	c1 ca 15             	ror    $0x15,%edx
    7680:	44 01 f2             	add    %r14d,%edx
    7683:	46 8d a4 20 22 61 9d 	lea    0x6d9d6122(%rax,%r12,1),%r12d
    768a:	6d 
    768b:	44 89 f0             	mov    %r14d,%eax
    768e:	44 31 e8             	xor    %r13d,%eax
    7691:	47 8d ac 2b 0c 38 e5 	lea    -0x21ac7f4(%r11,%r13,1),%r13d
    7698:	fd 
    7699:	31 d0                	xor    %edx,%eax
    769b:	44 01 e0             	add    %r12d,%eax
    769e:	41 89 d4             	mov    %edx,%r12d
    76a1:	c1 c8 10             	ror    $0x10,%eax
    76a4:	45 31 f4             	xor    %r14d,%r12d
    76a7:	01 d0                	add    %edx,%eax
    76a9:	41 31 c4             	xor    %eax,%r12d
    76ac:	45 01 ec             	add    %r13d,%r12d
    76af:	44 8b 6c 24 e0       	mov    -0x20(%rsp),%r13d
    76b4:	41 c1 cc 09          	ror    $0x9,%r12d
    76b8:	41 01 c4             	add    %eax,%r12d
    76bb:	47 8d b4 35 44 ea be 	lea    -0x5b4115bc(%r13,%r14,1),%r14d
    76c2:	a4 
    76c3:	41 89 c5             	mov    %eax,%r13d
    76c6:	41 31 d5             	xor    %edx,%r13d
    76c9:	45 31 e5             	xor    %r12d,%r13d
    76cc:	45 01 f5             	add    %r14d,%r13d
    76cf:	44 8b 74 24 ec       	mov    -0x14(%rsp),%r14d
    76d4:	41 c1 cd 1c          	ror    $0x1c,%r13d
    76d8:	45 01 e5             	add    %r12d,%r13d
    76db:	45 8d b4 16 a9 cf de 	lea    0x4bdecfa9(%r14,%rdx,1),%r14d
    76e2:	4b 
    76e3:	44 89 e2             	mov    %r12d,%edx
    76e6:	31 c2                	xor    %eax,%edx
    76e8:	44 31 ea             	xor    %r13d,%edx
    76eb:	44 01 f2             	add    %r14d,%edx
    76ee:	44 8d b4 03 60 4b bb 	lea    -0x944b4a0(%rbx,%rax,1),%r14d
    76f5:	f6 
    76f6:	44 89 e8             	mov    %r13d,%eax
    76f9:	c1 ca 15             	ror    $0x15,%edx
    76fc:	44 31 e0             	xor    %r12d,%eax
    76ff:	47 8d a4 20 70 bc bf 	lea    -0x41404390(%r8,%r12,1),%r12d
    7706:	be 
    7707:	44 01 ea             	add    %r13d,%edx
    770a:	31 d0                	xor    %edx,%eax
    770c:	41 01 c6             	add    %eax,%r14d
    770f:	89 d0                	mov    %edx,%eax
    7711:	41 c1 ce 10          	ror    $0x10,%r14d
    7715:	44 31 e8             	xor    %r13d,%eax
    7718:	46 8d ac 29 c6 7e 9b 	lea    0x289b7ec6(%rcx,%r13,1),%r13d
    771f:	28 
    7720:	41 01 d6             	add    %edx,%r14d
    7723:	44 31 f0             	xor    %r14d,%eax
    7726:	41 01 c4             	add    %eax,%r12d
    7729:	44 89 f0             	mov    %r14d,%eax
    772c:	41 c1 cc 09          	ror    $0x9,%r12d
    7730:	45 01 f4             	add    %r14d,%r12d
    7733:	31 d0                	xor    %edx,%eax
    7735:	44 31 e0             	xor    %r12d,%eax
    7738:	44 01 e8             	add    %r13d,%eax
    773b:	44 8d ac 15 fa 27 a1 	lea    -0x155ed806(%rbp,%rdx,1),%r13d
    7742:	ea 
    7743:	44 89 e2             	mov    %r12d,%edx
    7746:	c1 c8 1c             	ror    $0x1c,%eax
    7749:	44 31 f2             	xor    %r14d,%edx
    774c:	44 01 e0             	add    %r12d,%eax
    774f:	31 c2                	xor    %eax,%edx
    7751:	41 01 d5             	add    %edx,%r13d
    7754:	8b 54 24 e8          	mov    -0x18(%rsp),%edx
    7758:	41 c1 cd 15          	ror    $0x15,%r13d
    775c:	41 01 c5             	add    %eax,%r13d
    775f:	46 8d b4 32 85 30 ef 	lea    -0x2b10cf7b(%rdx,%r14,1),%r14d
    7766:	d4 
    7767:	89 c2                	mov    %eax,%edx
    7769:	44 31 e2             	xor    %r12d,%edx
    776c:	44 31 ea             	xor    %r13d,%edx
    776f:	41 01 d6             	add    %edx,%r14d
    7772:	8b 54 24 f0          	mov    -0x10(%rsp),%edx
    7776:	41 c1 ce 10          	ror    $0x10,%r14d
    777a:	45 01 ee             	add    %r13d,%r14d
    777d:	46 8d a4 22 05 1d 88 	lea    0x4881d05(%rdx,%r12,1),%r12d
    7784:	04 
    7785:	44 89 ea             	mov    %r13d,%edx
    7788:	31 c2                	xor    %eax,%edx
    778a:	44 31 f2             	xor    %r14d,%edx
    778d:	44 01 e2             	add    %r12d,%edx
    7790:	45 8d a4 07 39 d0 d4 	lea    -0x262b2fc7(%r15,%rax,1),%r12d
    7797:	d9 
    7798:	44 89 f0             	mov    %r14d,%eax
    779b:	c1 ca 09             	ror    $0x9,%edx
    779e:	44 31 e8             	xor    %r13d,%eax
    77a1:	47 8d ac 29 e5 99 db 	lea    -0x1924661b(%r9,%r13,1),%r13d
    77a8:	e6 
    77a9:	44 01 f2             	add    %r14d,%edx
    77ac:	31 d0                	xor    %edx,%eax
    77ae:	41 01 c4             	add    %eax,%r12d
    77b1:	89 d0                	mov    %edx,%eax
    77b3:	41 c1 cc 1c          	ror    $0x1c,%r12d
    77b7:	44 31 f0             	xor    %r14d,%eax
    77ba:	46 8d b4 36 f8 7c a2 	lea    0x1fa27cf8(%rsi,%r14,1),%r14d
    77c1:	1f 
    77c2:	41 01 d4             	add    %edx,%r12d
    77c5:	44 31 e0             	xor    %r12d,%eax
    77c8:	41 01 c5             	add    %eax,%r13d
    77cb:	44 89 e0             	mov    %r12d,%eax
    77ce:	41 c1 cd 15          	ror    $0x15,%r13d
    77d2:	31 d0                	xor    %edx,%eax
    77d4:	45 01 e5             	add    %r12d,%r13d
    77d7:	44 31 e8             	xor    %r13d,%eax
    77da:	44 01 f0             	add    %r14d,%eax
    77dd:	44 8b 74 24 e4       	mov    -0x1c(%rsp),%r14d
    77e2:	c1 c8 10             	ror    $0x10,%eax
    77e5:	44 01 e8             	add    %r13d,%eax
    77e8:	45 8d b4 16 65 56 ac 	lea    -0x3b53a99b(%r14,%rdx,1),%r14d
    77ef:	c4 
    77f0:	44 89 ea             	mov    %r13d,%edx
    77f3:	45 8d 9c 03 a7 23 94 	lea    -0x546bdc59(%r11,%rax,1),%r11d
    77fa:	ab 
    77fb:	44 31 e2             	xor    %r12d,%edx
    77fe:	46 8d a4 25 44 22 29 	lea    -0xbd6ddbc(%rbp,%r12,1),%r12d
    7805:	f4 
    7806:	44 89 ed             	mov    %r13d,%ebp
    7809:	31 c2                	xor    %eax,%edx
    780b:	f7 d5                	not    %ebp
    780d:	44 01 f2             	add    %r14d,%edx
    7810:	44 8b 74 24 e4       	mov    -0x1c(%rsp),%r14d
    7815:	c1 ca 09             	ror    $0x9,%edx
    7818:	01 c2                	add    %eax,%edx
    781a:	09 d5                	or     %edx,%ebp
    781c:	45 8d 94 12 39 a0 93 	lea    -0x36c5fc7(%r10,%rdx,1),%r10d
    7823:	fc 
    7824:	31 c5                	xor    %eax,%ebp
    7826:	44 01 e5             	add    %r12d,%ebp
    7829:	46 8d a4 2b 97 ff 2a 	lea    0x432aff97(%rbx,%r13,1),%r12d
    7830:	43 
    7831:	89 c3                	mov    %eax,%ebx
    7833:	c1 cd 1a             	ror    $0x1a,%ebp
    7836:	f7 d3                	not    %ebx
    7838:	44 8b 6c 24 e0       	mov    -0x20(%rsp),%r13d
    783d:	01 d5                	add    %edx,%ebp
    783f:	09 eb                	or     %ebp,%ebx
    7841:	31 d3                	xor    %edx,%ebx
    7843:	44 01 e3             	add    %r12d,%ebx
    7846:	41 89 d4             	mov    %edx,%r12d
    7849:	c1 cb 16             	ror    $0x16,%ebx
    784c:	41 f7 d4             	not    %r12d
    784f:	01 eb                	add    %ebp,%ebx
    7851:	44 89 e0             	mov    %r12d,%eax
    7854:	41 89 ec             	mov    %ebp,%r12d
    7857:	09 d8                	or     %ebx,%eax
    7859:	41 f7 d4             	not    %r12d
    785c:	31 e8                	xor    %ebp,%eax
    785e:	44 89 e2             	mov    %r12d,%edx
    7861:	44 01 d8             	add    %r11d,%eax
    7864:	44 8b 5c 24 e8       	mov    -0x18(%rsp),%r11d
    7869:	c1 c8 11             	ror    $0x11,%eax
    786c:	01 d8                	add    %ebx,%eax
    786e:	09 c2                	or     %eax,%edx
    7870:	45 8d 9c 1b 92 cc 0c 	lea    -0x70f3336e(%r11,%rbx,1),%r11d
    7877:	8f 
    7878:	45 8d 84 00 7d f4 ef 	lea    -0x100b83(%r8,%rax,1),%r8d
    787f:	ff 
    7880:	31 da                	xor    %ebx,%edx
    7882:	44 01 d2             	add    %r10d,%edx
    7885:	45 8d 94 29 c3 59 5b 	lea    0x655b59c3(%r9,%rbp,1),%r10d
    788c:	65 
    788d:	41 89 d9             	mov    %ebx,%r9d
    7890:	c1 ca 0b             	ror    $0xb,%edx
    7893:	41 f7 d1             	not    %r9d
    7896:	8b 5c 24 f0          	mov    -0x10(%rsp),%ebx
    789a:	01 c2                	add    %eax,%edx
    789c:	41 09 d1             	or     %edx,%r9d
    789f:	89 d5                	mov    %edx,%ebp
    78a1:	41 31 c1             	xor    %eax,%r9d
    78a4:	f7 d5                	not    %ebp
    78a6:	45 01 d1             	add    %r10d,%r9d
    78a9:	41 89 c2             	mov    %eax,%r10d
    78ac:	89 e8                	mov    %ebp,%eax
    78ae:	41 c1 c9 1a          	ror    $0x1a,%r9d
    78b2:	41 f7 d2             	not    %r10d
    78b5:	41 01 d1             	add    %edx,%r9d
    78b8:	45 09 ca             	or     %r9d,%r10d
    78bb:	41 31 d2             	xor    %edx,%r10d
    78be:	45 01 da             	add    %r11d,%r10d
    78c1:	44 8b 5c 24 ec       	mov    -0x14(%rsp),%r11d
    78c6:	41 c1 ca 16          	ror    $0x16,%r10d
    78ca:	45 01 ca             	add    %r9d,%r10d
    78cd:	44 09 d0             	or     %r10d,%eax
    78d0:	44 31 c8             	xor    %r9d,%eax
    78d3:	44 01 c0             	add    %r8d,%eax
    78d6:	45 8d 84 15 d1 5d 84 	lea    -0x7a7ba22f(%r13,%rdx,1),%r8d
    78dd:	85 
    78de:	44 89 ca             	mov    %r9d,%edx
    78e1:	c1 c8 11             	ror    $0x11,%eax
    78e4:	f7 d2                	not    %edx
    78e6:	44 01 d0             	add    %r10d,%eax
    78e9:	09 c2                	or     %eax,%edx
    78eb:	44 31 d2             	xor    %r10d,%edx
    78ee:	44 01 c2             	add    %r8d,%edx
    78f1:	44 8b 44 24 f4       	mov    -0xc(%rsp),%r8d
    78f6:	c1 ca 0b             	ror    $0xb,%edx
    78f9:	01 c2                	add    %eax,%edx
    78fb:	47 8d 8c 08 4f 7e a8 	lea    0x6fa87e4f(%r8,%r9,1),%r9d
    7902:	6f 
    7903:	45 89 d0             	mov    %r10d,%r8d
    7906:	41 f7 d0             	not    %r8d
    7909:	41 09 d0             	or     %edx,%r8d
    790c:	41 31 c0             	xor    %eax,%r8d
    790f:	45 01 c8             	add    %r9d,%r8d
    7912:	46 8d 8c 16 e0 e6 2c 	lea    -0x1d31920(%rsi,%r10,1),%r9d
    7919:	fe 
    791a:	89 c6                	mov    %eax,%esi
    791c:	41 c1 c8 1a          	ror    $0x1a,%r8d
    7920:	f7 d6                	not    %esi
    7922:	41 01 d0             	add    %edx,%r8d
    7925:	44 09 c6             	or     %r8d,%esi
    7928:	31 d6                	xor    %edx,%esi
    792a:	44 01 ce             	add    %r9d,%esi
    792d:	44 8d 8c 03 14 43 01 	lea    -0x5cfebcec(%rbx,%rax,1),%r9d
    7934:	a3 
    7935:	89 d0                	mov    %edx,%eax
    7937:	c1 ce 16             	ror    $0x16,%esi
    793a:	f7 d0                	not    %eax
    793c:	8d 94 11 a1 11 08 4e 	lea    0x4e0811a1(%rcx,%rdx,1),%edx
    7943:	44 01 c6             	add    %r8d,%esi
    7946:	43 8d 8c 03 82 7e 53 	lea    -0x8ac817e(%r11,%r8,1),%ecx
    794d:	f7 
    794e:	8b 5c 24 f8          	mov    -0x8(%rsp),%ebx
    7952:	09 f0                	or     %esi,%eax
    7954:	44 31 c0             	xor    %r8d,%eax
    7957:	41 01 c1             	add    %eax,%r9d
    795a:	44 89 c0             	mov    %r8d,%eax
    795d:	41 c1 c9 11          	ror    $0x11,%r9d
    7961:	f7 d0                	not    %eax
    7963:	41 01 f1             	add    %esi,%r9d
    7966:	44 09 c8             	or     %r9d,%eax
    7969:	47 8d 84 0e bb d2 d7 	lea    0x2ad7d2bb(%r14,%r9,1),%r8d
    7970:	2a 
    7971:	31 f0                	xor    %esi,%eax
    7973:	01 c2                	add    %eax,%edx
    7975:	89 f0                	mov    %esi,%eax
    7977:	8d b4 33 35 f2 3a bd 	lea    -0x42c50dcb(%rbx,%rsi,1),%esi
    797e:	c1 ca 0b             	ror    $0xb,%edx
    7981:	f7 d0                	not    %eax
    7983:	44 01 ca             	add    %r9d,%edx
    7986:	09 d0                	or     %edx,%eax
    7988:	44 31 c8             	xor    %r9d,%eax
    798b:	01 c8                	add    %ecx,%eax
    798d:	44 89 c9             	mov    %r9d,%ecx
    7990:	c1 c8 1a             	ror    $0x1a,%eax
    7993:	f7 d1                	not    %ecx
    7995:	01 d0                	add    %edx,%eax
    7997:	09 c1                	or     %eax,%ecx
    7999:	31 d1                	xor    %edx,%ecx
    799b:	01 f1                	add    %esi,%ecx
    799d:	c1 c9 16             	ror    $0x16,%ecx
    79a0:	8d 34 01             	lea    (%rcx,%rax,1),%esi
    79a3:	89 d1                	mov    %edx,%ecx
    79a5:	f7 d1                	not    %ecx
    79a7:	09 f1                	or     %esi,%ecx
    79a9:	31 c1                	xor    %eax,%ecx
    79ab:	44 01 c1             	add    %r8d,%ecx
    79ae:	45 8d 84 17 91 d3 86 	lea    -0x14792c6f(%r15,%rdx,1),%r8d
    79b5:	eb 
    79b6:	89 c2                	mov    %eax,%edx
    79b8:	03 07                	add    (%rdi),%eax
    79ba:	c1 c9 11             	ror    $0x11,%ecx
    79bd:	f7 d2                	not    %edx
    79bf:	01 f1                	add    %esi,%ecx
    79c1:	09 ca                	or     %ecx,%edx
    79c3:	31 f2                	xor    %esi,%edx
    79c5:	89 07                	mov    %eax,(%rdi)
    79c7:	8b 47 04             	mov    0x4(%rdi),%eax
    79ca:	44 01 c2             	add    %r8d,%edx
    79cd:	c1 ca 0b             	ror    $0xb,%edx
    79d0:	01 c8                	add    %ecx,%eax
    79d2:	01 c2                	add    %eax,%edx
    79d4:	89 57 04             	mov    %edx,0x4(%rdi)
    79d7:	03 4f 08             	add    0x8(%rdi),%ecx
    79da:	5b                   	pop    %rbx
    79db:	5d                   	pop    %rbp
    79dc:	03 77 0c             	add    0xc(%rdi),%esi
    79df:	41 5c                	pop    %r12
    79e1:	41 5d                	pop    %r13
    79e3:	41 5e                	pop    %r14
    79e5:	89 4f 08             	mov    %ecx,0x8(%rdi)
    79e8:	89 77 0c             	mov    %esi,0xc(%rdi)
    79eb:	41 5f                	pop    %r15
    79ed:	c3                   	retq   
    79ee:	66 90                	xchg   %ax,%ax
    79f0:	55                   	push   %rbp
    79f1:	53                   	push   %rbx
    79f2:	48 83 ec 08          	sub    $0x8,%rsp
    79f6:	0f ae f0             	mfence 
    79f9:	48 8b 2d 28 3a 23 00 	mov    0x233a28(%rip),%rbp        # 23b428 <_edata+0x38>
    7a00:	48 85 ed             	test   %rbp,%rbp
    7a03:	75 3b                	jne    7a40 <FcBlanksIsMember+0x8e0>
    7a05:	bf 28 00 00 00       	mov    $0x28,%edi
    7a0a:	e8 01 f0 ff ff       	callq  6a10 <malloc@plt>
    7a0f:	31 f6                	xor    %esi,%esi
    7a11:	48 89 c7             	mov    %rax,%rdi
    7a14:	48 89 c3             	mov    %rax,%rbx
    7a17:	e8 e4 f1 ff ff       	callq  6c00 <pthread_mutex_init@plt>
    7a1c:	48 89 e8             	mov    %rbp,%rax
    7a1f:	f0 48 0f b1 1d 00 3a 	lock cmpxchg %rbx,0x233a00(%rip)        # 23b428 <_edata+0x38>
    7a26:	23 00 
    7a28:	48 89 df             	mov    %rbx,%rdi
    7a2b:	75 21                	jne    7a4e <FcBlanksIsMember+0x8ee>
    7a2d:	e8 0e f2 ff ff       	callq  6c40 <pthread_mutex_lock@plt>
    7a32:	48 83 c4 08          	add    $0x8,%rsp
    7a36:	5b                   	pop    %rbx
    7a37:	5d                   	pop    %rbp
    7a38:	e9 93 69 00 00       	jmpq   e3d0 <FcCharSetCoverage+0xc10>
    7a3d:	0f 1f 00             	nopl   (%rax)
    7a40:	48 83 c4 08          	add    $0x8,%rsp
    7a44:	48 89 ef             	mov    %rbp,%rdi
    7a47:	5b                   	pop    %rbx
    7a48:	5d                   	pop    %rbp
    7a49:	e9 f2 f1 ff ff       	jmpq   6c40 <pthread_mutex_lock@plt>
    7a4e:	e8 3d ed ff ff       	callq  6790 <pthread_mutex_destroy@plt>
    7a53:	eb a1                	jmp    79f6 <FcBlanksIsMember+0x896>
    7a55:	66 66 2e 0f 1f 84 00 	data32 nopw %cs:0x0(%rax,%rax,1)
    7a5c:	00 00 00 00 
    7a60:	41 54                	push   %r12
    7a62:	49 89 f4             	mov    %rsi,%r12
    7a65:	55                   	push   %rbp
    7a66:	53                   	push   %rbx
    7a67:	48 89 fb             	mov    %rdi,%rbx
    7a6a:	48 83 c4 80          	add    $0xffffffffffffff80,%rsp
    7a6e:	e8 7d ff ff ff       	callq  79f0 <FcBlanksIsMember+0x890>
    7a73:	8b 3d b7 39 23 00    	mov    0x2339b7(%rip),%edi        # 23b430 <_edata+0x40>
    7a79:	83 ef 01             	sub    $0x1,%edi
    7a7c:	78 54                	js     7ad2 <FcBlanksIsMember+0x972>
    7a7e:	4c 63 cf             	movslq %edi,%r9
    7a81:	48 8d 0d b8 39 23 00 	lea    0x2339b8(%rip),%rcx        # 23b440 <_edata+0x50>
    7a88:	4e 8d 04 cd 00 00 00 	lea    0x0(,%r9,8),%r8
    7a8f:	00 
    7a90:	4a 8d 14 01          	lea    (%rcx,%r8,1),%rdx
    7a94:	48 8b 02             	mov    (%rdx),%rax
    7a97:	48 85 c0             	test   %rax,%rax
    7a9a:	74 21                	je     7abd <FcBlanksIsMember+0x95d>
    7a9c:	48 3b 18             	cmp    (%rax),%rbx
    7a9f:	73 0c                	jae    7aad <FcBlanksIsMember+0x94d>
    7aa1:	eb 1a                	jmp    7abd <FcBlanksIsMember+0x95d>
    7aa3:	0f 1f 44 00 00       	nopl   0x0(%rax,%rax,1)
    7aa8:	48 39 18             	cmp    %rbx,(%rax)
    7aab:	77 10                	ja     7abd <FcBlanksIsMember+0x95d>
    7aad:	48 8d 48 30          	lea    0x30(%rax),%rcx
    7ab1:	4a 8d 14 01          	lea    (%rcx,%r8,1),%rdx
    7ab5:	48 8b 02             	mov    (%rdx),%rax
    7ab8:	48 85 c0             	test   %rax,%rax
    7abb:	75 eb                	jne    7aa8 <FcBlanksIsMember+0x948>
    7abd:	83 ef 01             	sub    $0x1,%edi
    7ac0:	49 83 e8 08          	sub    $0x8,%r8
    7ac4:	4a 89 14 cc          	mov    %rdx,(%rsp,%r9,8)
    7ac8:	83 ff ff             	cmp    $0xffffffff,%edi
    7acb:	74 05                	je     7ad2 <FcBlanksIsMember+0x972>
    7acd:	4c 63 cf             	movslq %edi,%r9
    7ad0:	eb be                	jmp    7a90 <FcBlanksIsMember+0x930>
    7ad2:	e8 f9 68 00 00       	callq  e3d0 <FcCharSetCoverage+0xc10>
    7ad7:	89 c5                	mov    %eax,%ebp
    7ad9:	e8 f2 68 00 00       	callq  e3d0 <FcCharSetCoverage+0xc10>
    7ade:	89 c2                	mov    %eax,%edx
    7ae0:	09 ea                	or     %ebp,%edx
    7ae2:	48 63 c2             	movslq %edx,%rax
    7ae5:	83 e2 01             	and    $0x1,%edx
    7ae8:	0f 85 f8 00 00 00    	jne    7be6 <FcBlanksIsMember+0xa86>
    7aee:	48 d1 f8             	sar    %rax
    7af1:	bd 02 00 00 00       	mov    $0x2,%ebp
    7af6:	66 2e 0f 1f 84 00 00 	nopw   %cs:0x0(%rax,%rax,1)
    7afd:	00 00 00 
    7b00:	a8 01                	test   $0x1,%al
    7b02:	75 0b                	jne    7b0f <FcBlanksIsMember+0x9af>
    7b04:	83 c5 01             	add    $0x1,%ebp
    7b07:	48 d1 f8             	sar    %rax
    7b0a:	83 fd 10             	cmp    $0x10,%ebp
    7b0d:	75 f1                	jne    7b00 <FcBlanksIsMember+0x9a0>
    7b0f:	48 63 05 1a 39 23 00 	movslq 0x23391a(%rip),%rax        # 23b430 <_edata+0x40>
    7b16:	39 e8                	cmp    %ebp,%eax
    7b18:	7d 18                	jge    7b32 <FcBlanksIsMember+0x9d2>
    7b1a:	48 8d 15 1f 39 23 00 	lea    0x23391f(%rip),%rdx        # 23b440 <_edata+0x50>
    7b21:	8d 68 01             	lea    0x1(%rax),%ebp
    7b24:	48 8d 14 c2          	lea    (%rdx,%rax,8),%rdx
    7b28:	89 2d 02 39 23 00    	mov    %ebp,0x233902(%rip)        # 23b430 <_edata+0x40>
    7b2e:	48 89 14 c4          	mov    %rdx,(%rsp,%rax,8)
    7b32:	8d 45 ff             	lea    -0x1(%rbp),%eax
    7b35:	48 98                	cltq   
    7b37:	48 8d 3c c5 38 00 00 	lea    0x38(,%rax,8),%rdi
    7b3e:	00 
    7b3f:	e8 cc ee ff ff       	callq  6a10 <malloc@plt>
    7b44:	48 85 c0             	test   %rax,%rax
    7b47:	0f 84 8e 00 00 00    	je     7bdb <FcBlanksIsMember+0xa7b>
    7b4d:	48 89 18             	mov    %rbx,(%rax)
    7b50:	48 8b 53 08          	mov    0x8(%rbx),%rdx
    7b54:	4d 85 e4             	test   %r12,%r12
    7b57:	c7 40 08 01 00 00 00 	movl   $0x1,0x8(%rax)
    7b5e:	48 89 50 10          	mov    %rdx,0x10(%rax)
    7b62:	74 5d                	je     7bc1 <FcBlanksIsMember+0xa61>
    7b64:	49 8b 14 24          	mov    (%r12),%rdx
    7b68:	48 89 50 18          	mov    %rdx,0x18(%rax)
    7b6c:	49 8b 54 24 08       	mov    0x8(%r12),%rdx
    7b71:	48 89 50 20          	mov    %rdx,0x20(%rax)
    7b75:	49 8b 54 24 58       	mov    0x58(%r12),%rdx
    7b7a:	48 89 50 28          	mov    %rdx,0x28(%rax)
    7b7e:	31 d2                	xor    %edx,%edx
    7b80:	85 ed                	test   %ebp,%ebp
    7b82:	48 89 e7             	mov    %rsp,%rdi
    7b85:	7e 20                	jle    7ba7 <FcBlanksIsMember+0xa47>
    7b87:	66 0f 1f 84 00 00 00 	nopw   0x0(%rax,%rax,1)
    7b8e:	00 00 
    7b90:	48 8b 0c d7          	mov    (%rdi,%rdx,8),%rcx
    7b94:	48 8b 31             	mov    (%rcx),%rsi
    7b97:	48 89 74 d0 30       	mov    %rsi,0x30(%rax,%rdx,8)
    7b9c:	48 83 c2 01          	add    $0x1,%rdx
    7ba0:	48 89 01             	mov    %rax,(%rcx)
    7ba3:	39 d5                	cmp    %edx,%ebp
    7ba5:	7f e9                	jg     7b90 <FcBlanksIsMember+0xa30>
    7ba7:	48 8b 3d 7a 38 23 00 	mov    0x23387a(%rip),%rdi        # 23b428 <_edata+0x38>
    7bae:	e8 4d ee ff ff       	callq  6a00 <pthread_mutex_unlock@plt>
    7bb3:	48 83 ec 80          	sub    $0xffffffffffffff80,%rsp
    7bb7:	b8 01 00 00 00       	mov    $0x1,%eax
    7bbc:	5b                   	pop    %rbx
    7bbd:	5d                   	pop    %rbp
    7bbe:	41 5c                	pop    %r12
    7bc0:	c3                   	retq   
    7bc1:	48 c7 40 18 00 00 00 	movq   $0x0,0x18(%rax)
    7bc8:	00 
    7bc9:	48 c7 40 20 00 00 00 	movq   $0x0,0x20(%rax)
    7bd0:	00 
    7bd1:	48 c7 40 28 00 00 00 	movq   $0x0,0x28(%rax)
    7bd8:	00 
    7bd9:	eb a3                	jmp    7b7e <FcBlanksIsMember+0xa1e>
    7bdb:	48 83 ec 80          	sub    $0xffffffffffffff80,%rsp
    7bdf:	31 c0                	xor    %eax,%eax
    7be1:	5b                   	pop    %rbx
    7be2:	5d                   	pop    %rbp
    7be3:	41 5c                	pop    %r12
    7be5:	c3                   	retq   
    7be6:	bd 01 00 00 00       	mov    $0x1,%ebp
    7beb:	e9 1f ff ff ff       	jmpq   7b0f <FcBlanksIsMember+0x9af>
    7bf0:	55                   	push   %rbp
    7bf1:	48 89 d5             	mov    %rdx,%rbp
    7bf4:	ba 38 00 00 00       	mov    $0x38,%edx
    7bf9:	53                   	push   %rbx
    7bfa:	48 89 f3             	mov    %rsi,%rbx
    7bfd:	48 83 ec 48          	sub    $0x48,%rsp
    7c01:	48 89 e6             	mov    %rsp,%rsi
    7c04:	e8 07 ed ff ff       	callq  6910 <read@plt>
    7c09:	31 c9                	xor    %ecx,%ecx
    7c0b:	48 83 f8 38          	cmp    $0x38,%rax
    7c0f:	74 0f                	je     7c20 <FcBlanksIsMember+0xac0>
    7c11:	48 83 c4 48          	add    $0x48,%rsp
    7c15:	89 c8                	mov    %ecx,%eax
    7c17:	5b                   	pop    %rbx
    7c18:	5d                   	pop    %rbp
    7c19:	c3                   	retq   
    7c1a:	66 0f 1f 44 00 00    	nopw   0x0(%rax,%rax,1)
    7c20:	81 3c 24 04 fc 02 fc 	cmpl   $0xfc02fc04,(%rsp)
    7c27:	75 e8                	jne    7c11 <FcBlanksIsMember+0xab1>
    7c29:	83 7c 24 04 03       	cmpl   $0x3,0x4(%rsp)
    7c2e:	7e e1                	jle    7c11 <FcBlanksIsMember+0xab1>
    7c30:	48 8b 44 24 08       	mov    0x8(%rsp),%rax
    7c35:	48 39 43 30          	cmp    %rax,0x30(%rbx)
    7c39:	75 d6                	jne    7c11 <FcBlanksIsMember+0xab1>
    7c3b:	31 c9                	xor    %ecx,%ecx
    7c3d:	8b 45 58             	mov    0x58(%rbp),%eax
    7c40:	39 44 24 30          	cmp    %eax,0x30(%rsp)
    7c44:	0f 94 c1             	sete   %cl
    7c47:	eb c8                	jmp    7c11 <FcBlanksIsMember+0xab1>
    7c49:	0f 1f 80 00 00 00 00 	nopl   0x0(%rax)
    7c50:	55                   	push   %rbp
    7c51:	48 89 fd             	mov    %rdi,%rbp
    7c54:	53                   	push   %rbx
    7c55:	48 89 f3             	mov    %rsi,%rbx
    7c58:	48 81 ec 98 00 00 00 	sub    $0x98,%rsp
    7c5f:	48 85 f6             	test   %rsi,%rsi
    7c62:	74 4c                	je     7cb0 <FcBlanksIsMember+0xb50>
    7c64:	f6 05 e5 39 23 00 10 	testb  $0x10,0x2339e5(%rip)        # 23b650 <_edata+0x260>
    7c6b:	75 1b                	jne    7c88 <FcBlanksIsMember+0xb28>
    7c6d:	8b 43 58             	mov    0x58(%rbx),%eax
    7c70:	39 45 30             	cmp    %eax,0x30(%rbp)
    7c73:	0f 94 c0             	sete   %al
    7c76:	0f b6 c0             	movzbl %al,%eax
    7c79:	48 81 c4 98 00 00 00 	add    $0x98,%rsp
    7c80:	5b                   	pop    %rbx
    7c81:	5d                   	pop    %rbp
    7c82:	c3                   	retq   
    7c83:	0f 1f 44 00 00       	nopl   0x0(%rax,%rax,1)
    7c88:	48 89 ea             	mov    %rbp,%rdx
    7c8b:	48 03 55 10          	add    0x10(%rbp),%rdx
    7c8f:	8b 4d 30             	mov    0x30(%rbp),%ecx
    7c92:	44 8b 43 58          	mov    0x58(%rbx),%r8d
    7c96:	48 8d 35 0b b9 01 00 	lea    0x1b90b(%rip),%rsi        # 235a8 <_fini+0x1c>
    7c9d:	bf 01 00 00 00       	mov    $0x1,%edi
    7ca2:	31 c0                	xor    %eax,%eax
    7ca4:	e8 27 ee ff ff       	callq  6ad0 <__printf_chk@plt>
    7ca9:	eb c2                	jmp    7c6d <FcBlanksIsMember+0xb0d>
    7cab:	0f 1f 44 00 00       	nopl   0x0(%rax,%rax,1)
    7cb0:	48 03 7d 10          	add    0x10(%rbp),%rdi
    7cb4:	48 89 e6             	mov    %rsp,%rsi
    7cb7:	48 89 e3             	mov    %rsp,%rbx
    7cba:	e8 01 5b 01 00       	callq  1d7c0 <FcPatternFilter+0x940>
    7cbf:	85 c0                	test   %eax,%eax
    7cc1:	79 a1                	jns    7c64 <FcBlanksIsMember+0xb04>
    7cc3:	31 c0                	xor    %eax,%eax
    7cc5:	eb b2                	jmp    7c79 <FcBlanksIsMember+0xb19>
    7cc7:	66 0f 1f 84 00 00 00 	nopw   0x0(%rax,%rax,1)
    7cce:	00 00 
    7cd0:	55                   	push   %rbp
    7cd1:	31 c0                	xor    %eax,%eax
    7cd3:	48 89 f5             	mov    %rsi,%rbp
    7cd6:	31 f6                	xor    %esi,%esi
    7cd8:	53                   	push   %rbx
    7cd9:	48 83 ec 08          	sub    $0x8,%rsp
    7cdd:	e8 7e 66 00 00       	callq  e360 <FcCharSetCoverage+0xba0>
    7ce2:	85 c0                	test   %eax,%eax
    7ce4:	89 c3                	mov    %eax,%ebx
    7ce6:	78 13                	js     7cfb <FcBlanksIsMember+0xb9b>
    7ce8:	48 89 ea             	mov    %rbp,%rdx
    7ceb:	89 c6                	mov    %eax,%esi
    7ced:	bf 01 00 00 00       	mov    $0x1,%edi
    7cf2:	e8 39 ed ff ff       	callq  6a30 <__fxstat@plt>
    7cf7:	85 c0                	test   %eax,%eax
    7cf9:	78 09                	js     7d04 <FcBlanksIsMember+0xba4>
    7cfb:	48 83 c4 08          	add    $0x8,%rsp
    7cff:	89 d8                	mov    %ebx,%eax
    7d01:	5b                   	pop    %rbx
    7d02:	5d                   	pop    %rbp
    7d03:	c3                   	retq   
    7d04:	89 df                	mov    %ebx,%edi
    7d06:	bb ff ff ff ff       	mov    $0xffffffff,%ebx
    7d0b:	e8 80 eb ff ff       	callq  6890 <close@plt>
    7d10:	eb e9                	jmp    7cfb <FcBlanksIsMember+0xb9b>
    7d12:	66 66 66 66 66 2e 0f 	data32 data32 data32 data32 nopw %cs:0x0(%rax,%rax,1)
    7d19:	1f 84 00 00 00 00 00 
    7d20:	41 57                	push   %r15
    7d22:	41 56                	push   %r14
    7d24:	49 89 f6             	mov    %rsi,%r14
    7d27:	41 55                	push   %r13
    7d29:	49 89 fd             	mov    %rdi,%r13
    7d2c:	41 54                	push   %r12
    7d2e:	55                   	push   %rbp
    7d2f:	53                   	push   %rbx
    7d30:	48 81 ec 88 00 00 00 	sub    $0x88,%rsp
    7d37:	64 48 8b 04 25 28 00 	mov    %fs:0x28,%rax
    7d3e:	00 00 
    7d40:	48 89 44 24 78       	mov    %rax,0x78(%rsp)
    7d45:	31 c0                	xor    %eax,%eax
    7d47:	c7 44 24 20 01 23 45 	movl   $0x67452301,0x20(%rsp)
    7d4e:	67 
    7d4f:	c7 44 24 24 89 ab cd 	movl   $0xefcdab89,0x24(%rsp)
    7d56:	ef 
    7d57:	c7 44 24 28 fe dc ba 	movl   $0x98badcfe,0x28(%rsp)
    7d5e:	98 
    7d5f:	c7 44 24 2c 76 54 32 	movl   $0x10325476,0x2c(%rsp)
    7d66:	10 
    7d67:	c7 44 24 30 00 00 00 	movl   $0x0,0x30(%rsp)
    7d6e:	00 
    7d6f:	c7 44 24 34 00 00 00 	movl   $0x0,0x34(%rsp)
    7d76:	00 
    7d77:	e8 c4 e9 ff ff       	callq  6740 <strlen@plt>
    7d7c:	8d 0c c5 00 00 00 00 	lea    0x0(,%rax,8),%ecx
    7d83:	89 c6                	mov    %eax,%esi
    7d85:	89 c2                	mov    %eax,%edx
    7d87:	c1 ee 1d             	shr    $0x1d,%esi
    7d8a:	83 f8 3f             	cmp    $0x3f,%eax
    7d8d:	89 4c 24 30          	mov    %ecx,0x30(%rsp)
    7d91:	89 74 24 34          	mov    %esi,0x34(%rsp)
    7d95:	0f 86 e9 01 00 00    	jbe    7f84 <FcBlanksIsMember+0xe24>
    7d9b:	83 e8 40             	sub    $0x40,%eax
    7d9e:	48 8d 5c 24 20       	lea    0x20(%rsp),%rbx
    7da3:	4d 89 ef             	mov    %r13,%r15
    7da6:	89 44 24 0c          	mov    %eax,0xc(%rsp)
    7daa:	c1 e8 06             	shr    $0x6,%eax
    7dad:	89 44 24 08          	mov    %eax,0x8(%rsp)
    7db1:	48 89 04 24          	mov    %rax,(%rsp)
    7db5:	48 c1 e0 06          	shl    $0x6,%rax
    7db9:	4d 8d 64 05 40       	lea    0x40(%r13,%rax,1),%r12
    7dbe:	48 8d 6b 18          	lea    0x18(%rbx),%rbp
    7dc2:	66 0f 1f 44 00 00    	nopw   0x0(%rax,%rax,1)
    7dc8:	49 8b 07             	mov    (%r15),%rax
    7dcb:	48 89 ee             	mov    %rbp,%rsi
    7dce:	48 89 df             	mov    %rbx,%rdi
    7dd1:	49 83 c7 40          	add    $0x40,%r15
    7dd5:	48 89 44 24 38       	mov    %rax,0x38(%rsp)
    7dda:	49 8b 47 c8          	mov    -0x38(%r15),%rax
    7dde:	48 89 44 24 40       	mov    %rax,0x40(%rsp)
    7de3:	49 8b 47 d0          	mov    -0x30(%r15),%rax
    7de7:	48 89 44 24 48       	mov    %rax,0x48(%rsp)
    7dec:	49 8b 47 d8          	mov    -0x28(%r15),%rax
    7df0:	48 89 44 24 50       	mov    %rax,0x50(%rsp)
    7df5:	49 8b 47 e0          	mov    -0x20(%r15),%rax
    7df9:	48 89 44 24 58       	mov    %rax,0x58(%rsp)
    7dfe:	49 8b 47 e8          	mov    -0x18(%r15),%rax
    7e02:	48 89 44 24 60       	mov    %rax,0x60(%rsp)
    7e07:	49 8b 47 f0          	mov    -0x10(%r15),%rax
    7e0b:	48 89 44 24 68       	mov    %rax,0x68(%rsp)
    7e10:	49 8b 47 f8          	mov    -0x8(%r15),%rax
    7e14:	48 89 44 24 70       	mov    %rax,0x70(%rsp)
    7e19:	e8 02 f4 ff ff       	callq  7220 <FcBlanksIsMember+0xc0>
    7e1e:	4d 39 e7             	cmp    %r12,%r15
    7e21:	75 a5                	jne    7dc8 <FcBlanksIsMember+0xc68>
    7e23:	4c 8b 3c 24          	mov    (%rsp),%r15
    7e27:	8b 44 24 08          	mov    0x8(%rsp),%eax
    7e2b:	8b 54 24 0c          	mov    0xc(%rsp),%edx
    7e2f:	44 8b 64 24 30       	mov    0x30(%rsp),%r12d
    7e34:	49 83 c7 01          	add    $0x1,%r15
    7e38:	c1 e0 06             	shl    $0x6,%eax
    7e3b:	49 c1 e7 06          	shl    $0x6,%r15
    7e3f:	29 c2                	sub    %eax,%edx
    7e41:	4d 01 fd             	add    %r15,%r13
    7e44:	48 8d 6b 18          	lea    0x18(%rbx),%rbp
    7e48:	b9 40 00 00 00       	mov    $0x40,%ecx
    7e4d:	4c 89 ee             	mov    %r13,%rsi
    7e50:	48 89 ef             	mov    %rbp,%rdi
    7e53:	e8 08 eb ff ff       	callq  6960 <__memcpy_chk@plt>
    7e58:	44 89 e0             	mov    %r12d,%eax
    7e5b:	c1 e8 03             	shr    $0x3,%eax
    7e5e:	83 e0 3f             	and    $0x3f,%eax
    7e61:	89 c2                	mov    %eax,%edx
    7e63:	48 8d 7c 13 19       	lea    0x19(%rbx,%rdx,1),%rdi
    7e68:	c6 44 14 38 80       	movb   $0x80,0x38(%rsp,%rdx,1)
    7e6d:	ba 3f 00 00 00       	mov    $0x3f,%edx
    7e72:	29 c2                	sub    %eax,%edx
    7e74:	83 fa 07             	cmp    $0x7,%edx
    7e77:	0f 86 e3 00 00 00    	jbe    7f60 <FcBlanksIsMember+0xe00>
    7e7d:	ba 37 00 00 00       	mov    $0x37,%edx
    7e82:	31 f6                	xor    %esi,%esi
    7e84:	29 c2                	sub    %eax,%edx
    7e86:	e8 95 e9 ff ff       	callq  6820 <memset@plt>
    7e8b:	8b 44 24 30          	mov    0x30(%rsp),%eax
    7e8f:	48 8d 73 18          	lea    0x18(%rbx),%rsi
    7e93:	48 89 df             	mov    %rbx,%rdi
    7e96:	89 44 24 70          	mov    %eax,0x70(%rsp)
    7e9a:	8b 44 24 34          	mov    0x34(%rsp),%eax
    7e9e:	89 44 24 74          	mov    %eax,0x74(%rsp)
    7ea2:	e8 79 f3 ff ff       	callq  7220 <FcBlanksIsMember+0xc0>
    7ea7:	4c 8b 4c 24 20       	mov    0x20(%rsp),%r9
    7eac:	4c 8b 54 24 28       	mov    0x28(%rsp),%r10
    7eb1:	b9 0b 00 00 00       	mov    $0xb,%ecx
    7eb6:	31 c0                	xor    %eax,%eax
    7eb8:	48 89 df             	mov    %rbx,%rdi
    7ebb:	41 c6 06 2f          	movb   $0x2f,(%r14)
    7ebf:	f3 48 ab             	rep stos %rax,%es:(%rdi)
    7ec2:	48 8d 7c 24 10       	lea    0x10(%rsp),%rdi
    7ec7:	48 8d 0d f2 b9 01 00 	lea    0x1b9f2(%rip),%rcx        # 238c0 <_fini+0x334>
    7ece:	4c 89 4c 24 10       	mov    %r9,0x10(%rsp)
    7ed3:	4c 89 54 24 18       	mov    %r10,0x18(%rsp)
    7ed8:	31 d2                	xor    %edx,%edx
    7eda:	66 0f 1f 44 00 00    	nopw   0x0(%rax,%rax,1)
    7ee0:	0f b6 04 17          	movzbl (%rdi,%rdx,1),%eax
    7ee4:	89 c6                	mov    %eax,%esi
    7ee6:	83 e0 0f             	and    $0xf,%eax
    7ee9:	40 c0 ee 04          	shr    $0x4,%sil
    7eed:	0f b6 04 01          	movzbl (%rcx,%rax,1),%eax
    7ef1:	83 e6 0f             	and    $0xf,%esi
    7ef4:	0f b6 34 31          	movzbl (%rcx,%rsi,1),%esi
    7ef8:	41 88 44 56 02       	mov    %al,0x2(%r14,%rdx,2)
    7efd:	41 88 74 56 01       	mov    %sil,0x1(%r14,%rdx,2)
    7f02:	48 83 c2 01          	add    $0x1,%rdx
    7f06:	48 83 fa 10          	cmp    $0x10,%rdx
    7f0a:	75 d4                	jne    7ee0 <FcBlanksIsMember+0xd80>
    7f0c:	41 c6 46 21 00       	movb   $0x0,0x21(%r14)
    7f11:	4c 89 f7             	mov    %r14,%rdi
    7f14:	48 bb 2d 6c 65 36 34 	movabs $0x61632e3436656c2d,%rbx
    7f1b:	2e 63 61 
    7f1e:	e8 1d e8 ff ff       	callq  6740 <strlen@plt>
    7f23:	4c 01 f0             	add    %r14,%rax
    7f26:	ba 34 00 00 00       	mov    $0x34,%edx
    7f2b:	48 89 18             	mov    %rbx,(%rax)
    7f2e:	c7 40 08 63 68 65 2d 	movl   $0x2d656863,0x8(%rax)
    7f35:	48 8b 5c 24 78       	mov    0x78(%rsp),%rbx
    7f3a:	64 48 33 1c 25 28 00 	xor    %fs:0x28,%rbx
    7f41:	00 00 
    7f43:	66 89 50 0c          	mov    %dx,0xc(%rax)
    7f47:	4c 89 f0             	mov    %r14,%rax
    7f4a:	75 45                	jne    7f91 <FcBlanksIsMember+0xe31>
    7f4c:	48 81 c4 88 00 00 00 	add    $0x88,%rsp
    7f53:	5b                   	pop    %rbx
    7f54:	5d                   	pop    %rbp
    7f55:	41 5c                	pop    %r12
    7f57:	41 5d                	pop    %r13
    7f59:	41 5e                	pop    %r14
    7f5b:	41 5f                	pop    %r15
    7f5d:	c3                   	retq   
    7f5e:	66 90                	xchg   %ax,%ax
    7f60:	31 f6                	xor    %esi,%esi
    7f62:	e8 b9 e8 ff ff       	callq  6820 <memset@plt>
    7f67:	48 89 df             	mov    %rbx,%rdi
    7f6a:	48 89 ee             	mov    %rbp,%rsi
    7f6d:	e8 ae f2 ff ff       	callq  7220 <FcBlanksIsMember+0xc0>
    7f72:	b9 07 00 00 00       	mov    $0x7,%ecx
    7f77:	31 c0                	xor    %eax,%eax
    7f79:	48 89 ef             	mov    %rbp,%rdi
    7f7c:	f3 48 ab             	rep stos %rax,%es:(%rdi)
    7f7f:	e9 07 ff ff ff       	jmpq   7e8b <FcBlanksIsMember+0xd2b>
    7f84:	41 89 cc             	mov    %ecx,%r12d
    7f87:	48 8d 5c 24 20       	lea    0x20(%rsp),%rbx
    7f8c:	e9 b3 fe ff ff       	jmpq   7e44 <FcBlanksIsMember+0xce4>
    7f91:	e8 ca e7 ff ff       	callq  6760 <__stack_chk_fail@plt>
    7f96:	66 2e 0f 1f 84 00 00 	nopw   %cs:0x0(%rax,%rax,1)
    7f9d:	00 00 00 
    7fa0:	41 57                	push   %r15
    7fa2:	41 56                	push   %r14
    7fa4:	41 55                	push   %r13
    7fa6:	49 89 fd             	mov    %rdi,%r13
    7fa9:	41 54                	push   %r12
    7fab:	55                   	push   %rbp
    7fac:	53                   	push   %rbx
    7fad:	48 89 f3             	mov    %rsi,%rbx
    7fb0:	48 89 df             	mov    %rbx,%rdi
    7fb3:	48 81 ec 98 01 00 00 	sub    $0x198,%rsp
    7fba:	64 48 8b 04 25 28 00 	mov    %fs:0x28,%rax
    7fc1:	00 00 
    7fc3:	48 89 84 24 88 01 00 	mov    %rax,0x188(%rsp)
    7fca:	00 
    7fcb:	31 c0                	xor    %eax,%eax
    7fcd:	48 8d 84 24 c0 00 00 	lea    0xc0(%rsp),%rax
    7fd4:	00 
    7fd5:	48 89 54 24 10       	mov    %rdx,0x10(%rsp)
    7fda:	48 89 4c 24 18       	mov    %rcx,0x18(%rsp)
    7fdf:	4c 89 44 24 28       	mov    %r8,0x28(%rsp)
    7fe4:	48 89 c6             	mov    %rax,%rsi
    7fe7:	48 89 44 24 20       	mov    %rax,0x20(%rsp)
    7fec:	e8 cf 57 01 00       	callq  1d7c0 <FcPatternFilter+0x940>
    7ff1:	85 c0                	test   %eax,%eax
    7ff3:	0f 88 d7 00 00 00    	js     80d0 <FcBlanksIsMember+0xf70>
    7ff9:	48 8d 84 24 50 01 00 	lea    0x150(%rsp),%rax
    8000:	00 
    8001:	48 89 df             	mov    %rbx,%rdi
    8004:	48 89 c6             	mov    %rax,%rsi
    8007:	48 89 44 24 08       	mov    %rax,0x8(%rsp)
    800c:	e8 0f fd ff ff       	callq  7d20 <FcBlanksIsMember+0xbc0>
    8011:	49 8b 7d 18          	mov    0x18(%r13),%rdi
    8015:	e8 b6 73 01 00       	callq  1f3d0 <FcStrListCreate>
    801a:	48 85 c0             	test   %rax,%rax
    801d:	49 89 c4             	mov    %rax,%r12
    8020:	0f 84 aa 00 00 00    	je     80d0 <FcBlanksIsMember+0xf70>
    8026:	48 8d 5c 24 30       	lea    0x30(%rsp),%rbx
    802b:	eb 5d                	jmp    808a <FcBlanksIsMember+0xf2a>
    802d:	0f 1f 00             	nopl   (%rax)
    8030:	48 8b 54 24 08       	mov    0x8(%rsp),%rdx
    8035:	31 c9                	xor    %ecx,%ecx
    8037:	48 89 c7             	mov    %rax,%rdi
    803a:	48 89 ee             	mov    %rbp,%rsi
    803d:	31 c0                	xor    %eax,%eax
    803f:	e8 cc 73 01 00       	callq  1f410 <FcStrListCreate+0x40>
    8044:	49 89 c7             	mov    %rax,%r15
    8047:	4d 85 ff             	test   %r15,%r15
    804a:	74 74                	je     80c0 <FcBlanksIsMember+0xf60>
    804c:	48 89 de             	mov    %rbx,%rsi
    804f:	4c 89 ff             	mov    %r15,%rdi
    8052:	e8 79 fc ff ff       	callq  7cd0 <FcBlanksIsMember+0xb70>
    8057:	85 c0                	test   %eax,%eax
    8059:	41 89 c6             	mov    %eax,%r14d
    805c:	78 24                	js     8082 <FcBlanksIsMember+0xf22>
    805e:	89 c7                	mov    %eax,%edi
    8060:	48 8b 4c 24 18       	mov    0x18(%rsp),%rcx
    8065:	48 8b 54 24 20       	mov    0x20(%rsp),%rdx
    806a:	48 89 de             	mov    %rbx,%rsi
    806d:	48 8b 44 24 10       	mov    0x10(%rsp),%rax
    8072:	ff d0                	callq  *%rax
    8074:	44 89 f7             	mov    %r14d,%edi
    8077:	89 c5                	mov    %eax,%ebp
    8079:	e8 12 e8 ff ff       	callq  6890 <close@plt>
    807e:	85 ed                	test   %ebp,%ebp
    8080:	75 7e                	jne    8100 <FcBlanksIsMember+0xfa0>
    8082:	4c 89 ff             	mov    %r15,%rdi
    8085:	e8 46 5d 01 00       	callq  1ddd0 <FcStrFree>
    808a:	4c 89 e7             	mov    %r12,%rdi
    808d:	e8 5e 77 01 00       	callq  1f7f0 <FcStrListNext>
    8092:	48 85 c0             	test   %rax,%rax
    8095:	48 89 c5             	mov    %rax,%rbp
    8098:	74 26                	je     80c0 <FcBlanksIsMember+0xf60>
    809a:	4c 89 ef             	mov    %r13,%rdi
    809d:	e8 4e 45 00 00       	callq  c5f0 <FcConfigGetSysRoot>
    80a2:	48 85 c0             	test   %rax,%rax
    80a5:	75 89                	jne    8030 <FcBlanksIsMember+0xed0>
    80a7:	48 8b 74 24 08       	mov    0x8(%rsp),%rsi
    80ac:	31 d2                	xor    %edx,%edx
    80ae:	31 c0                	xor    %eax,%eax
    80b0:	48 89 ef             	mov    %rbp,%rdi
    80b3:	e8 58 73 01 00       	callq  1f410 <FcStrListCreate+0x40>
    80b8:	49 89 c7             	mov    %rax,%r15
    80bb:	4d 85 ff             	test   %r15,%r15
    80be:	75 8c                	jne    804c <FcBlanksIsMember+0xeec>
    80c0:	31 ed                	xor    %ebp,%ebp
    80c2:	4c 89 e7             	mov    %r12,%rdi
    80c5:	e8 56 77 01 00       	callq  1f820 <FcStrListDone>
    80ca:	89 e8                	mov    %ebp,%eax
    80cc:	eb 04                	jmp    80d2 <FcBlanksIsMember+0xf72>
    80ce:	66 90                	xchg   %ax,%ax
    80d0:	31 c0                	xor    %eax,%eax
    80d2:	48 8b 8c 24 88 01 00 	mov    0x188(%rsp),%rcx
    80d9:	00 
    80da:	64 48 33 0c 25 28 00 	xor    %fs:0x28,%rcx
    80e1:	00 00 
    80e3:	75 34                	jne    8119 <FcBlanksIsMember+0xfb9>
    80e5:	48 81 c4 98 01 00 00 	add    $0x198,%rsp
    80ec:	5b                   	pop    %rbx
    80ed:	5d                   	pop    %rbp
    80ee:	41 5c                	pop    %r12
    80f0:	41 5d                	pop    %r13
    80f2:	41 5e                	pop    %r14
    80f4:	41 5f                	pop    %r15
    80f6:	c3                   	retq   
    80f7:	66 0f 1f 84 00 00 00 	nopw   0x0(%rax,%rax,1)
    80fe:	00 00 
    8100:	48 8b 44 24 28       	mov    0x28(%rsp),%rax
    8105:	48 85 c0             	test   %rax,%rax
    8108:	74 05                	je     810f <FcBlanksIsMember+0xfaf>
    810a:	4c 89 38             	mov    %r15,(%rax)
    810d:	eb b3                	jmp    80c2 <FcBlanksIsMember+0xf62>
    810f:	4c 89 ff             	mov    %r15,%rdi
    8112:	e8 b9 5c 01 00       	callq  1ddd0 <FcStrFree>
    8117:	eb a9                	jmp    80c2 <FcBlanksIsMember+0xf62>
    8119:	e8 42 e6 ff ff       	callq  6760 <__stack_chk_fail@plt>
    811e:	66 90                	xchg   %ax,%ax

0000000000008120 <FcDirCacheUnlink>:
    8120:	41 55                	push   %r13
    8122:	41 54                	push   %r12
    8124:	49 89 fc             	mov    %rdi,%r12
    8127:	48 89 f7             	mov    %rsi,%rdi
    812a:	55                   	push   %rbp
    812b:	53                   	push   %rbx
    812c:	48 89 f3             	mov    %rsi,%rbx
    812f:	48 83 ec 48          	sub    $0x48,%rsp
    8133:	64 48 8b 04 25 28 00 	mov    %fs:0x28,%rax
    813a:	00 00 
    813c:	48 89 44 24 38       	mov    %rax,0x38(%rsp)
    8141:	31 c0                	xor    %eax,%eax
    8143:	e8 a8 44 00 00       	callq  c5f0 <FcConfigGetSysRoot>
    8148:	4c 89 e7             	mov    %r12,%rdi
    814b:	48 89 e6             	mov    %rsp,%rsi
    814e:	48 89 c5             	mov    %rax,%rbp
    8151:	e8 ca fb ff ff       	callq  7d20 <FcBlanksIsMember+0xbc0>
    8156:	48 8b 7b 18          	mov    0x18(%rbx),%rdi
    815a:	49 89 e5             	mov    %rsp,%r13
    815d:	e8 6e 72 01 00       	callq  1f3d0 <FcStrListCreate>
    8162:	48 85 c0             	test   %rax,%rax
    8165:	49 89 c4             	mov    %rax,%r12
    8168:	75 30                	jne    819a <FcDirCacheUnlink+0x7a>
    816a:	e9 91 00 00 00       	jmpq   8200 <FcDirCacheUnlink+0xe0>
    816f:	90                   	nop
    8170:	31 c9                	xor    %ecx,%ecx
    8172:	48 89 c6             	mov    %rax,%rsi
    8175:	4c 89 ea             	mov    %r13,%rdx
    8178:	31 c0                	xor    %eax,%eax
    817a:	48 89 ef             	mov    %rbp,%rdi
    817d:	e8 8e 72 01 00       	callq  1f410 <FcStrListCreate+0x40>
    8182:	48 89 c3             	mov    %rax,%rbx
    8185:	48 85 db             	test   %rbx,%rbx
    8188:	74 3e                	je     81c8 <FcDirCacheUnlink+0xa8>
    818a:	48 89 df             	mov    %rbx,%rdi
    818d:	e8 fe e3 ff ff       	callq  6590 <unlink@plt>
    8192:	48 89 df             	mov    %rbx,%rdi
    8195:	e8 36 5c 01 00       	callq  1ddd0 <FcStrFree>
    819a:	4c 89 e7             	mov    %r12,%rdi
    819d:	e8 4e 76 01 00       	callq  1f7f0 <FcStrListNext>
    81a2:	48 85 c0             	test   %rax,%rax
    81a5:	74 31                	je     81d8 <FcDirCacheUnlink+0xb8>
    81a7:	48 85 ed             	test   %rbp,%rbp
    81aa:	75 c4                	jne    8170 <FcDirCacheUnlink+0x50>
    81ac:	31 d2                	xor    %edx,%edx
    81ae:	48 89 c7             	mov    %rax,%rdi
    81b1:	4c 89 ee             	mov    %r13,%rsi
    81b4:	31 c0                	xor    %eax,%eax
    81b6:	e8 55 72 01 00       	callq  1f410 <FcStrListCreate+0x40>
    81bb:	48 89 c3             	mov    %rax,%rbx
    81be:	48 85 db             	test   %rbx,%rbx
    81c1:	75 c7                	jne    818a <FcDirCacheUnlink+0x6a>
    81c3:	0f 1f 44 00 00       	nopl   0x0(%rax,%rax,1)
    81c8:	4c 89 e7             	mov    %r12,%rdi
    81cb:	e8 50 76 01 00       	callq  1f820 <FcStrListDone>
    81d0:	31 c0                	xor    %eax,%eax
    81d2:	eb 11                	jmp    81e5 <FcDirCacheUnlink+0xc5>
    81d4:	0f 1f 40 00          	nopl   0x0(%rax)
    81d8:	4c 89 e7             	mov    %r12,%rdi
    81db:	e8 40 76 01 00       	callq  1f820 <FcStrListDone>
    81e0:	b8 01 00 00 00       	mov    $0x1,%eax
    81e5:	48 8b 4c 24 38       	mov    0x38(%rsp),%rcx
    81ea:	64 48 33 0c 25 28 00 	xor    %fs:0x28,%rcx
    81f1:	00 00 
    81f3:	75 0f                	jne    8204 <FcDirCacheUnlink+0xe4>
    81f5:	48 83 c4 48          	add    $0x48,%rsp
    81f9:	5b                   	pop    %rbx
    81fa:	5d                   	pop    %rbp
    81fb:	41 5c                	pop    %r12
    81fd:	41 5d                	pop    %r13
    81ff:	c3                   	retq   
    8200:	31 c0                	xor    %eax,%eax
    8202:	eb e1                	jmp    81e5 <FcDirCacheUnlink+0xc5>
    8204:	e8 57 e5 ff ff       	callq  6760 <__stack_chk_fail@plt>
    8209:	0f 1f 80 00 00 00 00 	nopl   0x0(%rax)
    8210:	53                   	push   %rbx
    8211:	48 89 fb             	mov    %rdi,%rbx
    8214:	e8 d7 f7 ff ff       	callq  79f0 <FcBlanksIsMember+0x890>
    8219:	48 89 df             	mov    %rbx,%rdi
    821c:	e8 7f ef ff ff       	callq  71a0 <FcBlanksIsMember+0x40>
    8221:	48 8b 3d 00 32 23 00 	mov    0x233200(%rip),%rdi        # 23b428 <_edata+0x38>
    8228:	48 89 c3             	mov    %rax,%rbx
    822b:	e8 d0 e7 ff ff       	callq  6a00 <pthread_mutex_unlock@plt>
    8230:	48 85 db             	test   %rbx,%rbx
    8233:	74 05                	je     823a <FcDirCacheUnlink+0x11a>
    8235:	f0 83 43 08 01       	lock addl $0x1,0x8(%rbx)
    823a:	5b                   	pop    %rbx
    823b:	c3                   	retq   
    823c:	0f 1f 40 00          	nopl   0x0(%rax)
    8240:	53                   	push   %rbx
    8241:	48 89 fb             	mov    %rdi,%rbx
    8244:	48 83 c4 80          	add    $0xffffffffffffff80,%rsp
    8248:	e8 a3 f7 ff ff       	callq  79f0 <FcBlanksIsMember+0x890>
    824d:	48 89 df             	mov    %rbx,%rdi
    8250:	e8 4b ef ff ff       	callq  71a0 <FcBlanksIsMember+0x40>
    8255:	48 85 c0             	test   %rax,%rax
    8258:	74 07                	je     8261 <FcDirCacheUnlink+0x141>
    825a:	f0 83 68 08 01       	lock subl $0x1,0x8(%rax)
    825f:	74 11                	je     8272 <FcDirCacheUnlink+0x152>
    8261:	48 8b 3d c0 31 23 00 	mov    0x2331c0(%rip),%rdi        # 23b428 <_edata+0x38>
    8268:	48 83 ec 80          	sub    $0xffffffffffffff80,%rsp
    826c:	5b                   	pop    %rbx
    826d:	e9 8e e7 ff ff       	jmpq   6a00 <pthread_mutex_unlock@plt>
    8272:	44 8b 0d b7 31 23 00 	mov    0x2331b7(%rip),%r9d        # 23b430 <_edata+0x40>
    8279:	48 8b 18             	mov    (%rax),%rbx
    827c:	45 89 ca             	mov    %r9d,%r10d
    827f:	41 83 ea 01          	sub    $0x1,%r10d
    8283:	0f 88 f3 00 00 00    	js     837c <FcDirCacheUnlink+0x25c>
    8289:	4c 8d 05 b0 31 23 00 	lea    0x2331b0(%rip),%r8        # 23b440 <_edata+0x50>
    8290:	49 63 f2             	movslq %r10d,%rsi
    8293:	44 89 d7             	mov    %r10d,%edi
    8296:	48 c1 e6 03          	shl    $0x3,%rsi
    829a:	4c 89 c1             	mov    %r8,%rcx
    829d:	eb 0a                	jmp    82a9 <FcDirCacheUnlink+0x189>
    829f:	90                   	nop
    82a0:	48 3b 18             	cmp    (%rax),%rbx
    82a3:	76 10                	jbe    82b5 <FcDirCacheUnlink+0x195>
    82a5:	48 8d 48 30          	lea    0x30(%rax),%rcx
    82a9:	48 8d 14 31          	lea    (%rcx,%rsi,1),%rdx
    82ad:	48 8b 02             	mov    (%rdx),%rax
    82b0:	48 85 c0             	test   %rax,%rax
    82b3:	75 eb                	jne    82a0 <FcDirCacheUnlink+0x180>
    82b5:	48 63 c7             	movslq %edi,%rax
    82b8:	83 ef 01             	sub    $0x1,%edi
    82bb:	48 83 ee 08          	sub    $0x8,%rsi
    82bf:	83 ff ff             	cmp    $0xffffffff,%edi
    82c2:	48 89 14 c4          	mov    %rdx,(%rsp,%rax,8)
    82c6:	75 e1                	jne    82a9 <FcDirCacheUnlink+0x189>
    82c8:	45 85 c9             	test   %r9d,%r9d
    82cb:	48 8b 39             	mov    (%rcx),%rdi
    82ce:	7e 6d                	jle    833d <FcDirCacheUnlink+0x21d>
    82d0:	48 8b 14 24          	mov    (%rsp),%rdx
    82d4:	48 3b 3a             	cmp    (%rdx),%rdi
    82d7:	75 31                	jne    830a <FcDirCacheUnlink+0x1ea>
    82d9:	44 89 d6             	mov    %r10d,%esi
    82dc:	31 c0                	xor    %eax,%eax
    82de:	4c 8d 4c 24 08       	lea    0x8(%rsp),%r9
    82e3:	48 c1 e6 03          	shl    $0x3,%rsi
    82e7:	eb 14                	jmp    82fd <FcDirCacheUnlink+0x1dd>
    82e9:	0f 1f 80 00 00 00 00 	nopl   0x0(%rax)
    82f0:	49 8b 14 01          	mov    (%r9,%rax,1),%rdx
    82f4:	48 83 c0 08          	add    $0x8,%rax
    82f8:	48 3b 3a             	cmp    (%rdx),%rdi
    82fb:	75 0d                	jne    830a <FcDirCacheUnlink+0x1ea>
    82fd:	48 8b 4c 07 30       	mov    0x30(%rdi,%rax,1),%rcx
    8302:	48 39 f0             	cmp    %rsi,%rax
    8305:	48 89 0a             	mov    %rcx,(%rdx)
    8308:	75 e6                	jne    82f0 <FcDirCacheUnlink+0x1d0>
    830a:	49 63 d2             	movslq %r10d,%rdx
    830d:	44 89 d0             	mov    %r10d,%eax
    8310:	49 83 3c d0 00       	cmpq   $0x0,(%r8,%rdx,8)
    8315:	74 18                	je     832f <FcDirCacheUnlink+0x20f>
    8317:	eb 24                	jmp    833d <FcDirCacheUnlink+0x21d>
    8319:	0f 1f 80 00 00 00 00 	nopl   0x0(%rax)
    8320:	8d 50 ff             	lea    -0x1(%rax),%edx
    8323:	48 63 ca             	movslq %edx,%rcx
    8326:	49 83 3c c8 00       	cmpq   $0x0,(%r8,%rcx,8)
    832b:	75 36                	jne    8363 <FcDirCacheUnlink+0x243>
    832d:	89 d0                	mov    %edx,%eax
    832f:	85 c0                	test   %eax,%eax
    8331:	75 ed                	jne    8320 <FcDirCacheUnlink+0x200>
    8333:	c7 05 f3 30 23 00 00 	movl   $0x0,0x2330f3(%rip)        # 23b430 <_edata+0x40>
    833a:	00 00 00 
    833d:	e8 ee e1 ff ff       	callq  6530 <free@plt>
    8342:	8b 03                	mov    (%rbx),%eax
    8344:	3d 04 fc 02 fc       	cmp    $0xfc02fc04,%eax
    8349:	74 20                	je     836b <FcDirCacheUnlink+0x24b>
    834b:	3d 05 fc 02 fc       	cmp    $0xfc02fc05,%eax
    8350:	0f 85 0b ff ff ff    	jne    8261 <FcDirCacheUnlink+0x141>
    8356:	48 89 df             	mov    %rbx,%rdi
    8359:	e8 d2 e1 ff ff       	callq  6530 <free@plt>
    835e:	e9 fe fe ff ff       	jmpq   8261 <FcDirCacheUnlink+0x141>
    8363:	89 05 c7 30 23 00    	mov    %eax,0x2330c7(%rip)        # 23b430 <_edata+0x40>
    8369:	eb d2                	jmp    833d <FcDirCacheUnlink+0x21d>
    836b:	48 8b 73 08          	mov    0x8(%rbx),%rsi
    836f:	48 89 df             	mov    %rbx,%rdi
    8372:	e8 49 e7 ff ff       	callq  6ac0 <munmap@plt>
    8377:	e9 e5 fe ff ff       	jmpq   8261 <FcDirCacheUnlink+0x141>
    837c:	4c 8d 05 bd 30 23 00 	lea    0x2330bd(%rip),%r8        # 23b440 <_edata+0x50>
    8383:	4c 89 c1             	mov    %r8,%rcx
    8386:	e9 3d ff ff ff       	jmpq   82c8 <FcDirCacheUnlink+0x1a8>
    838b:	0f 1f 44 00 00       	nopl   0x0(%rax,%rax,1)
    8390:	41 55                	push   %r13
    8392:	41 54                	push   %r12
    8394:	55                   	push   %rbp
    8395:	48 89 f5             	mov    %rsi,%rbp
    8398:	53                   	push   %rbx
    8399:	48 83 ec 28          	sub    $0x28,%rsp
    839d:	48 83 7e 30 37       	cmpq   $0x37,0x30(%rsi)
    83a2:	0f 8e 74 01 00 00    	jle    851c <FcDirCacheUnlink+0x3fc>
    83a8:	41 89 fd             	mov    %edi,%r13d
    83ab:	49 89 d4             	mov    %rdx,%r12
    83ae:	e8 3d f6 ff ff       	callq  79f0 <FcBlanksIsMember+0x890>
    83b3:	48 8b 1d 86 30 23 00 	mov    0x233086(%rip),%rbx        # 23b440 <_edata+0x50>
    83ba:	48 85 db             	test   %rbx,%rbx
    83bd:	0f 84 ed 00 00 00    	je     84b0 <FcDirCacheUnlink+0x390>
    83c3:	48 8b 45 00          	mov    0x0(%rbp),%rax
    83c7:	eb 14                	jmp    83dd <FcDirCacheUnlink+0x2bd>
    83c9:	0f 1f 80 00 00 00 00 	nopl   0x0(%rax)
    83d0:	48 8b 5b 30          	mov    0x30(%rbx),%rbx
    83d4:	48 85 db             	test   %rbx,%rbx
    83d7:	0f 84 d3 00 00 00    	je     84b0 <FcDirCacheUnlink+0x390>
    83dd:	48 3b 43 18          	cmp    0x18(%rbx),%rax
    83e1:	75 ed                	jne    83d0 <FcDirCacheUnlink+0x2b0>
    83e3:	48 8b 4d 08          	mov    0x8(%rbp),%rcx
    83e7:	48 39 4b 20          	cmp    %rcx,0x20(%rbx)
    83eb:	75 e3                	jne    83d0 <FcDirCacheUnlink+0x2b0>
    83ed:	48 8b 55 58          	mov    0x58(%rbp),%rdx
    83f1:	48 39 53 28          	cmp    %rdx,0x28(%rbx)
    83f5:	75 d9                	jne    83d0 <FcDirCacheUnlink+0x2b0>
    83f7:	f0 83 43 08 01       	lock addl $0x1,0x8(%rbx)
    83fc:	48 8b 3d 25 30 23 00 	mov    0x233025(%rip),%rdi        # 23b428 <_edata+0x38>
    8403:	e8 f8 e5 ff ff       	callq  6a00 <pthread_mutex_unlock@plt>
    8408:	48 8b 1b             	mov    (%rbx),%rbx
    840b:	48 85 db             	test   %rbx,%rbx
    840e:	0f 84 a8 00 00 00    	je     84bc <FcDirCacheUnlink+0x39c>
    8414:	4c 89 e6             	mov    %r12,%rsi
    8417:	48 89 df             	mov    %rbx,%rdi
    841a:	e8 31 f8 ff ff       	callq  7c50 <FcBlanksIsMember+0xaf0>
    841f:	85 c0                	test   %eax,%eax
    8421:	0f 85 f7 00 00 00    	jne    851e <FcDirCacheUnlink+0x3fe>
    8427:	48 89 df             	mov    %rbx,%rdi
    842a:	e8 11 fe ff ff       	callq  8240 <FcDirCacheUnlink+0x120>
    842f:	0f ae f0             	mfence 
    8432:	48 8b 05 e7 2f 23 00 	mov    0x232fe7(%rip),%rax        # 23b420 <_edata+0x30>
    8439:	85 c0                	test   %eax,%eax
    843b:	89 c2                	mov    %eax,%edx
    843d:	0f 84 8d 00 00 00    	je     84d0 <FcDirCacheUnlink+0x3b0>
    8443:	31 c0                	xor    %eax,%eax
    8445:	83 fa 01             	cmp    $0x1,%edx
    8448:	0f 94 c0             	sete   %al
    844b:	83 fa 03             	cmp    $0x3,%edx
    844e:	0f 84 ac 01 00 00    	je     8600 <FcDirCacheUnlink+0x4e0>
    8454:	85 c0                	test   %eax,%eax
    8456:	48 8b 75 30          	mov    0x30(%rbp),%rsi
    845a:	74 0d                	je     8469 <FcDirCacheUnlink+0x349>
    845c:	48 81 fe ff 03 00 00 	cmp    $0x3ff,%rsi
    8463:	0f 8f c3 00 00 00    	jg     852c <FcDirCacheUnlink+0x40c>
    8469:	48 89 f7             	mov    %rsi,%rdi
    846c:	48 89 74 24 08       	mov    %rsi,0x8(%rsp)
    8471:	e8 9a e5 ff ff       	callq  6a10 <malloc@plt>
    8476:	48 85 c0             	test   %rax,%rax
    8479:	48 89 c3             	mov    %rax,%rbx
    847c:	0f 84 9a 00 00 00    	je     851c <FcDirCacheUnlink+0x3fc>
    8482:	48 8b 74 24 08       	mov    0x8(%rsp),%rsi
    8487:	44 89 ef             	mov    %r13d,%edi
    848a:	41 bd 01 00 00 00    	mov    $0x1,%r13d
    8490:	48 89 f2             	mov    %rsi,%rdx
    8493:	48 89 c6             	mov    %rax,%rsi
    8496:	e8 75 e4 ff ff       	callq  6910 <read@plt>
    849b:	48 39 45 30          	cmp    %rax,0x30(%rbp)
    849f:	0f 84 c2 00 00 00    	je     8567 <FcDirCacheUnlink+0x447>
    84a5:	e9 ca 00 00 00       	jmpq   8574 <FcDirCacheUnlink+0x454>
    84aa:	66 0f 1f 44 00 00    	nopw   0x0(%rax,%rax,1)
    84b0:	48 8b 3d 71 2f 23 00 	mov    0x232f71(%rip),%rdi        # 23b428 <_edata+0x38>
    84b7:	e8 44 e5 ff ff       	callq  6a00 <pthread_mutex_unlock@plt>
    84bc:	0f ae f0             	mfence 
    84bf:	48 8b 05 5a 2f 23 00 	mov    0x232f5a(%rip),%rax        # 23b420 <_edata+0x30>
    84c6:	85 c0                	test   %eax,%eax
    84c8:	89 c2                	mov    %eax,%edx
    84ca:	0f 85 73 ff ff ff    	jne    8443 <FcDirCacheUnlink+0x323>
    84d0:	48 8d 3d 20 b2 01 00 	lea    0x1b220(%rip),%rdi        # 236f7 <_fini+0x16b>
    84d7:	e8 24 e0 ff ff       	callq  6500 <getenv@plt>
    84dc:	48 85 c0             	test   %rax,%rax
    84df:	74 15                	je     84f6 <FcDirCacheUnlink+0x3d6>
    84e1:	48 8d 74 24 1c       	lea    0x1c(%rsp),%rsi
    84e6:	48 89 c7             	mov    %rax,%rdi
    84e9:	e8 a2 1f 01 00       	callq  1a490 <FcNameConstant+0x30>
    84ee:	85 c0                	test   %eax,%eax
    84f0:	0f 85 96 00 00 00    	jne    858c <FcDirCacheUnlink+0x46c>
    84f6:	b9 03 00 00 00       	mov    $0x3,%ecx
    84fb:	ba 03 00 00 00       	mov    $0x3,%edx
    8500:	31 c0                	xor    %eax,%eax
    8502:	f0 48 0f b1 0d 15 2f 	lock cmpxchg %rcx,0x232f15(%rip)        # 23b420 <_edata+0x30>
    8509:	23 00 
    850b:	e9 33 ff ff ff       	jmpq   8443 <FcDirCacheUnlink+0x323>
    8510:	48 8b 75 30          	mov    0x30(%rbp),%rsi
    8514:	48 89 df             	mov    %rbx,%rdi
    8517:	e8 a4 e5 ff ff       	callq  6ac0 <munmap@plt>
    851c:	31 db                	xor    %ebx,%ebx
    851e:	48 83 c4 28          	add    $0x28,%rsp
    8522:	48 89 d8             	mov    %rbx,%rax
    8525:	5b                   	pop    %rbx
    8526:	5d                   	pop    %rbp
    8527:	41 5c                	pop    %r12
    8529:	41 5d                	pop    %r13
    852b:	c3                   	retq   
    852c:	45 31 c9             	xor    %r9d,%r9d
    852f:	31 ff                	xor    %edi,%edi
    8531:	45 89 e8             	mov    %r13d,%r8d
    8534:	b9 01 00 00 00       	mov    $0x1,%ecx
    8539:	ba 01 00 00 00       	mov    $0x1,%edx
    853e:	e8 2d e2 ff ff       	callq  6770 <mmap@plt>
    8543:	48 8b 55 30          	mov    0x30(%rbp),%rdx
    8547:	48 89 c3             	mov    %rax,%rbx
    854a:	31 f6                	xor    %esi,%esi
    854c:	b9 03 00 00 00       	mov    $0x3,%ecx
    8551:	44 89 ef             	mov    %r13d,%edi
    8554:	e8 57 e3 ff ff       	callq  68b0 <posix_fadvise@plt>
    8559:	48 83 fb ff          	cmp    $0xffffffffffffffff,%rbx
    855d:	74 4d                	je     85ac <FcDirCacheUnlink+0x48c>
    855f:	48 85 db             	test   %rbx,%rbx
    8562:	74 48                	je     85ac <FcDirCacheUnlink+0x48c>
    8564:	45 31 ed             	xor    %r13d,%r13d
    8567:	81 3b 04 fc 02 fc    	cmpl   $0xfc02fc04,(%rbx)
    856d:	74 49                	je     85b8 <FcDirCacheUnlink+0x498>
    856f:	45 85 ed             	test   %r13d,%r13d
    8572:	74 9c                	je     8510 <FcDirCacheUnlink+0x3f0>
    8574:	48 89 df             	mov    %rbx,%rdi
    8577:	31 db                	xor    %ebx,%ebx
    8579:	e8 b2 df ff ff       	callq  6530 <free@plt>
    857e:	48 83 c4 28          	add    $0x28,%rsp
    8582:	48 89 d8             	mov    %rbx,%rax
    8585:	5b                   	pop    %rbx
    8586:	5d                   	pop    %rbp
    8587:	41 5c                	pop    %r12
    8589:	41 5d                	pop    %r13
    858b:	c3                   	retq   
    858c:	83 7c 24 1c 01       	cmpl   $0x1,0x1c(%rsp)
    8591:	48 19 c9             	sbb    %rcx,%rcx
    8594:	48 f7 d1             	not    %rcx
    8597:	48 83 c1 02          	add    $0x2,%rcx
    859b:	83 7c 24 1c 01       	cmpl   $0x1,0x1c(%rsp)
    85a0:	19 d2                	sbb    %edx,%edx
    85a2:	f7 d2                	not    %edx
    85a4:	83 c2 02             	add    $0x2,%edx
    85a7:	e9 54 ff ff ff       	jmpq   8500 <FcDirCacheUnlink+0x3e0>
    85ac:	48 8b 75 30          	mov    0x30(%rbp),%rsi
    85b0:	e9 b4 fe ff ff       	jmpq   8469 <FcDirCacheUnlink+0x349>
    85b5:	0f 1f 00             	nopl   (%rax)
    85b8:	83 7b 04 03          	cmpl   $0x3,0x4(%rbx)
    85bc:	7e b1                	jle    856f <FcDirCacheUnlink+0x44f>
    85be:	48 8b 45 30          	mov    0x30(%rbp),%rax
    85c2:	48 39 43 08          	cmp    %rax,0x8(%rbx)
    85c6:	75 a7                	jne    856f <FcDirCacheUnlink+0x44f>
    85c8:	4c 89 e6             	mov    %r12,%rsi
    85cb:	48 89 df             	mov    %rbx,%rdi
    85ce:	e8 7d f6 ff ff       	callq  7c50 <FcBlanksIsMember+0xaf0>
    85d3:	85 c0                	test   %eax,%eax
    85d5:	74 98                	je     856f <FcDirCacheUnlink+0x44f>
    85d7:	48 89 ee             	mov    %rbp,%rsi
    85da:	48 89 df             	mov    %rbx,%rdi
    85dd:	e8 7e f4 ff ff       	callq  7a60 <FcBlanksIsMember+0x900>
    85e2:	85 c0                	test   %eax,%eax
    85e4:	74 89                	je     856f <FcDirCacheUnlink+0x44f>
    85e6:	45 85 ed             	test   %r13d,%r13d
    85e9:	0f 84 2f ff ff ff    	je     851e <FcDirCacheUnlink+0x3fe>
    85ef:	c7 03 05 fc 02 fc    	movl   $0xfc02fc05,(%rbx)
    85f5:	e9 24 ff ff ff       	jmpq   851e <FcDirCacheUnlink+0x3fe>
    85fa:	66 0f 1f 44 00 00    	nopw   0x0(%rax,%rax,1)
    8600:	44 89 ef             	mov    %r13d,%edi
    8603:	e8 38 51 01 00       	callq  1d740 <FcPatternFilter+0x8c0>
    8608:	e9 47 fe ff ff       	jmpq   8454 <FcDirCacheUnlink+0x334>
    860d:	0f 1f 00             	nopl   (%rax)
    8610:	53                   	push   %rbx
    8611:	48 89 cb             	mov    %rcx,%rbx
    8614:	e8 77 fd ff ff       	callq  8390 <FcDirCacheUnlink+0x270>
    8619:	48 85 c0             	test   %rax,%rax
    861c:	74 12                	je     8630 <FcDirCacheUnlink+0x510>
    861e:	48 89 03             	mov    %rax,(%rbx)
    8621:	b8 01 00 00 00       	mov    $0x1,%eax
    8626:	5b                   	pop    %rbx
    8627:	c3                   	retq   
    8628:	0f 1f 84 00 00 00 00 	nopl   0x0(%rax,%rax,1)
    862f:	00 
    8630:	31 c0                	xor    %eax,%eax
    8632:	5b                   	pop    %rbx
    8633:	c3                   	retq   
    8634:	66 66 66 2e 0f 1f 84 	data32 data32 nopw %cs:0x0(%rax,%rax,1)
    863b:	00 00 00 00 00 
    8640:	53                   	push   %rbx
    8641:	48 8d 05 f8 2d 23 00 	lea    0x232df8(%rip),%rax        # 23b440 <_edata+0x50>
    8648:	48 8d 15 71 2e 23 00 	lea    0x232e71(%rip),%rdx        # 23b4c0 <_edata+0xd0>
    864f:	90                   	nop
    8650:	48 83 38 00          	cmpq   $0x0,(%rax)
    8654:	75 4c                	jne    86a2 <FcDirCacheUnlink+0x582>
    8656:	48 83 c0 08          	add    $0x8,%rax
    865a:	48 39 d0             	cmp    %rdx,%rax
    865d:	75 f1                	jne    8650 <FcDirCacheUnlink+0x530>
    865f:	8b 05 cb 2d 23 00    	mov    0x232dcb(%rip),%eax        # 23b430 <_edata+0x40>
    8665:	85 c0                	test   %eax,%eax
    8667:	75 58                	jne    86c1 <FcDirCacheUnlink+0x5a1>
    8669:	0f ae f0             	mfence 
    866c:	48 8b 1d b5 2d 23 00 	mov    0x232db5(%rip),%rbx        # 23b428 <_edata+0x38>
    8673:	48 85 db             	test   %rbx,%rbx
    8676:	74 28                	je     86a0 <FcDirCacheUnlink+0x580>
    8678:	31 d2                	xor    %edx,%edx
    867a:	48 89 d8             	mov    %rbx,%rax
    867d:	f0 48 0f b1 15 a2 2d 	lock cmpxchg %rdx,0x232da2(%rip)        # 23b428 <_edata+0x38>
    8684:	23 00 
    8686:	75 18                	jne    86a0 <FcDirCacheUnlink+0x580>
    8688:	48 89 df             	mov    %rbx,%rdi
    868b:	e8 00 e1 ff ff       	callq  6790 <pthread_mutex_destroy@plt>
    8690:	48 89 df             	mov    %rbx,%rdi
    8693:	5b                   	pop    %rbx
    8694:	e9 97 de ff ff       	jmpq   6530 <free@plt>
    8699:	0f 1f 80 00 00 00 00 	nopl   0x0(%rax)
    86a0:	5b                   	pop    %rbx
    86a1:	c3                   	retq   
    86a2:	48 8d 0d 00 b2 01 00 	lea    0x1b200(%rip),%rcx        # 238a9 <_fini+0x31d>
    86a9:	48 8d 35 5b b0 01 00 	lea    0x1b05b(%rip),%rsi        # 2370b <_fini+0x17f>
    86b0:	48 8d 3d 31 af 01 00 	lea    0x1af31(%rip),%rdi        # 235e8 <_fini+0x5c>
    86b7:	ba 0c 02 00 00       	mov    $0x20c,%edx
    86bc:	e8 2f e1 ff ff       	callq  67f0 <__assert_fail@plt>
    86c1:	48 8d 0d e1 b1 01 00 	lea    0x1b1e1(%rip),%rcx        # 238a9 <_fini+0x31d>
    86c8:	48 8d 35 3c b0 01 00 	lea    0x1b03c(%rip),%rsi        # 2370b <_fini+0x17f>
    86cf:	48 8d 3d 3f b0 01 00 	lea    0x1b03f(%rip),%rdi        # 23715 <_fini+0x189>
    86d6:	ba 0d 02 00 00       	mov    $0x20d,%edx
    86db:	e8 10 e1 ff ff       	callq  67f0 <__assert_fail@plt>
    86e0:	55                   	push   %rbp
    86e1:	89 f5                	mov    %esi,%ebp
    86e3:	53                   	push   %rbx
    86e4:	48 89 fb             	mov    %rdi,%rbx
    86e7:	48 83 ec 08          	sub    $0x8,%rsp
    86eb:	e8 00 f3 ff ff       	callq  79f0 <FcBlanksIsMember+0x890>
    86f0:	48 89 df             	mov    %rbx,%rdi
    86f3:	e8 a8 ea ff ff       	callq  71a0 <FcBlanksIsMember+0x40>
    86f8:	48 8b 3d 29 2d 23 00 	mov    0x232d29(%rip),%rdi        # 23b428 <_edata+0x38>
    86ff:	48 89 c3             	mov    %rax,%rbx
    8702:	e8 f9 e2 ff ff       	callq  6a00 <pthread_mutex_unlock@plt>
    8707:	48 85 db             	test   %rbx,%rbx
    870a:	74 04                	je     8710 <FcDirCacheUnlink+0x5f0>
    870c:	f0 01 6b 08          	lock add %ebp,0x8(%rbx)
    8710:	48 83 c4 08          	add    $0x8,%rsp
    8714:	5b                   	pop    %rbx
    8715:	5d                   	pop    %rbp
    8716:	c3                   	retq   
    8717:	66 0f 1f 84 00 00 00 	nopw   0x0(%rax,%rax,1)
    871e:	00 00 

0000000000008720 <FcDirCacheUnload>:
    8720:	e9 1b fb ff ff       	jmpq   8240 <FcDirCacheUnlink+0x120>
    8725:	66 66 2e 0f 1f 84 00 	data32 nopw %cs:0x0(%rax,%rax,1)
    872c:	00 00 00 00 

0000000000008730 <FcDirCacheLoad>:
    8730:	48 83 ec 18          	sub    $0x18,%rsp
    8734:	48 89 f8             	mov    %rdi,%rax
    8737:	49 89 d0             	mov    %rdx,%r8
    873a:	48 8d 4c 24 08       	lea    0x8(%rsp),%rcx
    873f:	48 8d 15 ca fe ff ff 	lea    -0x136(%rip),%rdx        # 8610 <FcDirCacheUnlink+0x4f0>
    8746:	48 89 f7             	mov    %rsi,%rdi
    8749:	48 89 c6             	mov    %rax,%rsi
    874c:	48 c7 44 24 08 00 00 	movq   $0x0,0x8(%rsp)
    8753:	00 00 
    8755:	e8 46 f8 ff ff       	callq  7fa0 <FcBlanksIsMember+0xe40>
    875a:	85 c0                	test   %eax,%eax
    875c:	74 12                	je     8770 <FcDirCacheLoad+0x40>
    875e:	48 8b 44 24 08       	mov    0x8(%rsp),%rax
    8763:	48 83 c4 18          	add    $0x18,%rsp
    8767:	c3                   	retq   
    8768:	0f 1f 84 00 00 00 00 	nopl   0x0(%rax,%rax,1)
    876f:	00 
    8770:	31 c0                	xor    %eax,%eax
    8772:	48 83 c4 18          	add    $0x18,%rsp
    8776:	c3                   	retq   
    8777:	66 0f 1f 84 00 00 00 	nopw   0x0(%rax,%rax,1)
    877e:	00 00 

0000000000008780 <FcDirCacheLoadFile>:
    8780:	55                   	push   %rbp
    8781:	53                   	push   %rbx
    8782:	48 89 f3             	mov    %rsi,%rbx
    8785:	48 81 ec 98 00 00 00 	sub    $0x98,%rsp
    878c:	48 85 f6             	test   %rsi,%rsi
    878f:	48 0f 44 dc          	cmove  %rsp,%rbx
    8793:	48 89 de             	mov    %rbx,%rsi
    8796:	e8 35 f5 ff ff       	callq  7cd0 <FcBlanksIsMember+0xb70>
    879b:	85 c0                	test   %eax,%eax
    879d:	89 c5                	mov    %eax,%ebp
    879f:	78 27                	js     87c8 <FcDirCacheLoadFile+0x48>
    87a1:	48 89 de             	mov    %rbx,%rsi
    87a4:	31 d2                	xor    %edx,%edx
    87a6:	89 c7                	mov    %eax,%edi
    87a8:	e8 e3 fb ff ff       	callq  8390 <FcDirCacheUnlink+0x270>
    87ad:	89 ef                	mov    %ebp,%edi
    87af:	48 89 c3             	mov    %rax,%rbx
    87b2:	e8 d9 e0 ff ff       	callq  6890 <close@plt>
    87b7:	48 89 d8             	mov    %rbx,%rax
    87ba:	48 81 c4 98 00 00 00 	add    $0x98,%rsp
    87c1:	5b                   	pop    %rbx
    87c2:	5d                   	pop    %rbp
    87c3:	c3                   	retq   
    87c4:	0f 1f 40 00          	nopl   0x0(%rax)
    87c8:	31 c0                	xor    %eax,%eax
    87ca:	eb ee                	jmp    87ba <FcDirCacheLoadFile+0x3a>
    87cc:	0f 1f 40 00          	nopl   0x0(%rax)

00000000000087d0 <FcDirCacheValid>:
    87d0:	53                   	push   %rbx
    87d1:	48 89 fb             	mov    %rdi,%rbx
    87d4:	e8 97 16 00 00       	callq  9e70 <FcConfigGetCurrent>
    87d9:	48 85 c0             	test   %rax,%rax
    87dc:	74 22                	je     8800 <FcDirCacheValid+0x30>
    87de:	48 89 de             	mov    %rbx,%rsi
    87e1:	48 8d 15 08 f4 ff ff 	lea    -0xbf8(%rip),%rdx        # 7bf0 <FcBlanksIsMember+0xa90>
    87e8:	45 31 c0             	xor    %r8d,%r8d
    87eb:	5b                   	pop    %rbx
    87ec:	31 c9                	xor    %ecx,%ecx
    87ee:	48 89 c7             	mov    %rax,%rdi
    87f1:	e9 aa f7 ff ff       	jmpq   7fa0 <FcBlanksIsMember+0xe40>
    87f6:	66 2e 0f 1f 84 00 00 	nopw   %cs:0x0(%rax,%rax,1)
    87fd:	00 00 00 
    8800:	31 c0                	xor    %eax,%eax
    8802:	5b                   	pop    %rbx
    8803:	c3                   	retq   
    8804:	66 66 66 2e 0f 1f 84 	data32 data32 nopw %cs:0x0(%rax,%rax,1)
    880b:	00 00 00 00 00 
    8810:	41 57                	push   %r15
    8812:	49 89 d7             	mov    %rdx,%r15
    8815:	41 56                	push   %r14
    8817:	41 55                	push   %r13
    8819:	49 89 f5             	mov    %rsi,%r13
    881c:	41 54                	push   %r12
    881e:	55                   	push   %rbp
    881f:	48 89 cd             	mov    %rcx,%rbp
    8822:	53                   	push   %rbx
    8823:	48 83 ec 18          	sub    $0x18,%rsp
    8827:	48 89 7c 24 08       	mov    %rdi,0x8(%rsp)
    882c:	e8 5f 4b 01 00       	callq  1d390 <FcPatternFilter+0x510>
    8831:	48 85 c0             	test   %rax,%rax
    8834:	49 89 c4             	mov    %rax,%r12
    8837:	0f 84 a0 01 00 00    	je     89dd <FcDirCacheValid+0x20d>
    883d:	be 38 00 00 00       	mov    $0x38,%esi
    8842:	48 89 c7             	mov    %rax,%rdi
    8845:	e8 c6 4c 01 00       	callq  1d510 <FcPatternFilter+0x690>
    884a:	4c 89 ee             	mov    %r13,%rsi
    884d:	4c 89 e7             	mov    %r12,%rdi
    8850:	e8 ab 4d 01 00       	callq  1d600 <FcPatternFilter+0x780>
    8855:	85 c0                	test   %eax,%eax
    8857:	74 47                	je     88a0 <FcDirCacheValid+0xd0>
    8859:	8b 45 04             	mov    0x4(%rbp),%eax
    885c:	48 89 ee             	mov    %rbp,%rsi
    885f:	4c 89 e7             	mov    %r12,%rdi
    8862:	31 db                	xor    %ebx,%ebx
    8864:	8d 14 c5 00 00 00 00 	lea    0x0(,%rax,8),%edx
    886b:	e8 c0 4b 01 00       	callq  1d430 <FcPatternFilter+0x5b0>
    8870:	8b 55 04             	mov    0x4(%rbp),%edx
    8873:	85 d2                	test   %edx,%edx
    8875:	7f 15                	jg     888c <FcDirCacheValid+0xbc>
    8877:	eb 47                	jmp    88c0 <FcDirCacheValid+0xf0>
    8879:	0f 1f 80 00 00 00 00 	nopl   0x0(%rax)
    8880:	8d 43 01             	lea    0x1(%rbx),%eax
    8883:	48 83 c3 01          	add    $0x1,%rbx
    8887:	39 45 04             	cmp    %eax,0x4(%rbp)
    888a:	7e 34                	jle    88c0 <FcDirCacheValid+0xf0>
    888c:	48 8b 45 10          	mov    0x10(%rbp),%rax
    8890:	4c 89 e7             	mov    %r12,%rdi
    8893:	48 8b 34 d8          	mov    (%rax,%rbx,8),%rsi
    8897:	e8 64 4d 01 00       	callq  1d600 <FcPatternFilter+0x780>
    889c:	85 c0                	test   %eax,%eax
    889e:	75 e0                	jne    8880 <FcDirCacheValid+0xb0>
    88a0:	4c 89 e7             	mov    %r12,%rdi
    88a3:	e8 28 4b 01 00       	callq  1d3d0 <FcPatternFilter+0x550>
    88a8:	31 c0                	xor    %eax,%eax
    88aa:	48 83 c4 18          	add    $0x18,%rsp
    88ae:	5b                   	pop    %rbx
    88af:	5d                   	pop    %rbp
    88b0:	41 5c                	pop    %r12
    88b2:	41 5d                	pop    %r13
    88b4:	41 5e                	pop    %r14
    88b6:	41 5f                	pop    %r15
    88b8:	c3                   	retq   
    88b9:	0f 1f 80 00 00 00 00 	nopl   0x0(%rax)
    88c0:	48 8b 74 24 08       	mov    0x8(%rsp),%rsi
    88c5:	4c 89 e7             	mov    %r12,%rdi
    88c8:	e8 03 c6 00 00       	callq  14ed0 <FcFontSetAdd+0x80>
    88cd:	85 c0                	test   %eax,%eax
    88cf:	74 cf                	je     88a0 <FcDirCacheValid+0xd0>
    88d1:	4d 8b 34 24          	mov    (%r12),%r14
    88d5:	4c 89 f7             	mov    %r14,%rdi
    88d8:	e8 33 e1 ff ff       	callq  6a10 <malloc@plt>
    88dd:	48 85 c0             	test   %rax,%rax
    88e0:	48 89 c3             	mov    %rax,%rbx
    88e3:	74 bb                	je     88a0 <FcDirCacheValid+0xd0>
    88e5:	31 f6                	xor    %esi,%esi
    88e7:	4c 89 f2             	mov    %r14,%rdx
    88ea:	48 89 c7             	mov    %rax,%rdi
    88ed:	e8 2e df ff ff       	callq  6820 <memset@plt>
    88f2:	49 89 5c 24 10       	mov    %rbx,0x10(%r12)
    88f7:	c7 03 05 fc 02 fc    	movl   $0xfc02fc05,(%rbx)
    88fd:	4c 89 ee             	mov    %r13,%rsi
    8900:	c7 43 04 04 00 00 00 	movl   $0x4,0x4(%rbx)
    8907:	49 8b 04 24          	mov    (%r12),%rax
    890b:	4c 89 e7             	mov    %r12,%rdi
    890e:	48 89 43 08          	mov    %rax,0x8(%rbx)
    8912:	49 8b 47 58          	mov    0x58(%r15),%rax
    8916:	89 43 30             	mov    %eax,0x30(%rbx)
    8919:	e8 12 4d 01 00       	callq  1d630 <FcPatternFilter+0x7b0>
    891e:	48 85 c0             	test   %rax,%rax
    8921:	74 67                	je     898a <FcDirCacheValid+0x1ba>
    8923:	48 29 d8             	sub    %rbx,%rax
    8926:	48 89 ee             	mov    %rbp,%rsi
    8929:	4c 89 e7             	mov    %r12,%rdi
    892c:	48 89 43 10          	mov    %rax,0x10(%rbx)
    8930:	e8 5b 4c 01 00       	callq  1d590 <FcPatternFilter+0x710>
    8935:	48 85 c0             	test   %rax,%rax
    8938:	49 89 c7             	mov    %rax,%r15
    893b:	74 4d                	je     898a <FcDirCacheValid+0x1ba>
    893d:	48 29 d8             	sub    %rbx,%rax
    8940:	45 31 ed             	xor    %r13d,%r13d
    8943:	45 31 f6             	xor    %r14d,%r14d
    8946:	48 89 43 18          	mov    %rax,0x18(%rbx)
    894a:	8b 45 04             	mov    0x4(%rbp),%eax
    894d:	89 43 20             	mov    %eax,0x20(%rbx)
    8950:	8b 45 04             	mov    0x4(%rbp),%eax
    8953:	85 c0                	test   %eax,%eax
    8955:	7f 1e                	jg     8975 <FcDirCacheValid+0x1a5>
    8957:	eb 47                	jmp    89a0 <FcDirCacheValid+0x1d0>
    8959:	0f 1f 80 00 00 00 00 	nopl   0x0(%rax)
    8960:	4c 29 f8             	sub    %r15,%rax
    8963:	41 83 c6 01          	add    $0x1,%r14d
    8967:	4b 89 04 2f          	mov    %rax,(%r15,%r13,1)
    896b:	49 83 c5 08          	add    $0x8,%r13
    896f:	44 39 75 04          	cmp    %r14d,0x4(%rbp)
    8973:	7e 2b                	jle    89a0 <FcDirCacheValid+0x1d0>
    8975:	48 8b 45 10          	mov    0x10(%rbp),%rax
    8979:	4c 89 e7             	mov    %r12,%rdi
    897c:	4a 8b 34 28          	mov    (%rax,%r13,1),%rsi
    8980:	e8 ab 4c 01 00       	callq  1d630 <FcPatternFilter+0x7b0>
    8985:	48 85 c0             	test   %rax,%rax
    8988:	75 d6                	jne    8960 <FcDirCacheValid+0x190>
    898a:	48 89 df             	mov    %rbx,%rdi
    898d:	e8 9e db ff ff       	callq  6530 <free@plt>
    8992:	e9 09 ff ff ff       	jmpq   88a0 <FcDirCacheValid+0xd0>
    8997:	66 0f 1f 84 00 00 00 	nopw   0x0(%rax,%rax,1)
    899e:	00 00 
    89a0:	48 8b 74 24 08       	mov    0x8(%rsp),%rsi
    89a5:	4c 89 e7             	mov    %r12,%rdi
    89a8:	e8 a3 c5 00 00       	callq  14f50 <FcFontSetAdd+0x100>
    89ad:	48 85 c0             	test   %rax,%rax
    89b0:	74 d8                	je     898a <FcDirCacheValid+0x1ba>
    89b2:	48 29 d8             	sub    %rbx,%rax
    89b5:	4c 89 e7             	mov    %r12,%rdi
    89b8:	48 89 43 28          	mov    %rax,0x28(%rbx)
    89bc:	e8 0f 4a 01 00       	callq  1d3d0 <FcPatternFilter+0x550>
    89c1:	48 89 df             	mov    %rbx,%rdi
    89c4:	31 f6                	xor    %esi,%esi
    89c6:	e8 95 f0 ff ff       	callq  7a60 <FcBlanksIsMember+0x900>
    89cb:	48 83 c4 18          	add    $0x18,%rsp
    89cf:	48 89 d8             	mov    %rbx,%rax
    89d2:	5b                   	pop    %rbx
    89d3:	5d                   	pop    %rbp
    89d4:	41 5c                	pop    %r12
    89d6:	41 5d                	pop    %r13
    89d8:	41 5e                	pop    %r14
    89da:	41 5f                	pop    %r15
    89dc:	c3                   	retq   
    89dd:	31 c0                	xor    %eax,%eax
    89df:	e9 c6 fe ff ff       	jmpq   88aa <FcDirCacheValid+0xda>
    89e4:	66 66 66 2e 0f 1f 84 	data32 data32 nopw %cs:0x0(%rax,%rax,1)
    89eb:	00 00 00 00 00 

00000000000089f0 <FcDirCacheClean>:
    89f0:	41 57                	push   %r15
    89f2:	41 56                	push   %r14
    89f4:	41 55                	push   %r13
    89f6:	41 89 f5             	mov    %esi,%r13d
    89f9:	41 54                	push   %r12
    89fb:	55                   	push   %rbp
    89fc:	53                   	push   %rbx
    89fd:	48 89 fb             	mov    %rdi,%rbx
    8a00:	31 ff                	xor    %edi,%edi
    8a02:	48 81 ec b8 00 00 00 	sub    $0xb8,%rsp
    8a09:	e8 e2 3b 00 00       	callq  c5f0 <FcConfigGetSysRoot>
    8a0e:	48 85 c0             	test   %rax,%rax
    8a11:	0f 84 e9 01 00 00    	je     8c00 <FcDirCacheClean+0x210>
    8a17:	31 d2                	xor    %edx,%edx
    8a19:	48 89 c7             	mov    %rax,%rdi
    8a1c:	48 89 de             	mov    %rbx,%rsi
    8a1f:	31 c0                	xor    %eax,%eax
    8a21:	e8 ea 69 01 00       	callq  1f410 <FcStrListCreate+0x40>
    8a26:	49 89 c4             	mov    %rax,%r12
    8a29:	4d 85 e4             	test   %r12,%r12
    8a2c:	0f 84 e6 01 00 00    	je     8c18 <FcDirCacheClean+0x228>
    8a32:	be 02 00 00 00       	mov    $0x2,%esi
    8a37:	4c 89 e7             	mov    %r12,%rdi
    8a3a:	e8 f1 e0 ff ff       	callq  6b30 <access@plt>
    8a3f:	85 c0                	test   %eax,%eax
    8a41:	74 3d                	je     8a80 <FcDirCacheClean+0x90>
    8a43:	45 85 ed             	test   %r13d,%r13d
    8a46:	0f 85 54 01 00 00    	jne    8ba0 <FcDirCacheClean+0x1b0>
    8a4c:	f6 05 fd 2b 23 00 10 	testb  $0x10,0x232bfd(%rip)        # 23b650 <_edata+0x260>
    8a53:	41 bf 01 00 00 00    	mov    $0x1,%r15d
    8a59:	0f 85 41 01 00 00    	jne    8ba0 <FcDirCacheClean+0x1b0>
    8a5f:	90                   	nop
    8a60:	4c 89 e7             	mov    %r12,%rdi
    8a63:	e8 68 53 01 00       	callq  1ddd0 <FcStrFree>
    8a68:	44 89 f8             	mov    %r15d,%eax
    8a6b:	48 81 c4 b8 00 00 00 	add    $0xb8,%rsp
    8a72:	5b                   	pop    %rbx
    8a73:	5d                   	pop    %rbp
    8a74:	41 5c                	pop    %r12
    8a76:	41 5d                	pop    %r13
    8a78:	41 5e                	pop    %r14
    8a7a:	41 5f                	pop    %r15
    8a7c:	c3                   	retq   
    8a7d:	0f 1f 00             	nopl   (%rax)
    8a80:	45 85 ed             	test   %r13d,%r13d
    8a83:	0f 85 57 01 00 00    	jne    8be0 <FcDirCacheClean+0x1f0>
    8a89:	f6 05 c0 2b 23 00 10 	testb  $0x10,0x232bc0(%rip)        # 23b650 <_edata+0x260>
    8a90:	0f 85 4a 01 00 00    	jne    8be0 <FcDirCacheClean+0x1f0>
    8a96:	4c 89 e7             	mov    %r12,%rdi
    8a99:	e8 42 dc ff ff       	callq  66e0 <opendir@plt>
    8a9e:	48 85 c0             	test   %rax,%rax
    8aa1:	48 89 c5             	mov    %rax,%rbp
    8aa4:	0f 84 21 02 00 00    	je     8ccb <FcDirCacheClean+0x2db>
    8aaa:	48 8d 44 24 20       	lea    0x20(%rsp),%rax
    8aaf:	41 bf 01 00 00 00    	mov    $0x1,%r15d
    8ab5:	48 89 44 24 08       	mov    %rax,0x8(%rsp)
    8aba:	66 0f 1f 44 00 00    	nopw   0x0(%rax,%rax,1)
    8ac0:	48 89 ef             	mov    %rbp,%rdi
    8ac3:	e8 28 df ff ff       	callq  69f0 <readdir@plt>
    8ac8:	48 85 c0             	test   %rax,%rax
    8acb:	49 89 c6             	mov    %rax,%r14
    8ace:	0f 84 bc 00 00 00    	je     8b90 <FcDirCacheClean+0x1a0>
    8ad4:	41 80 7e 13 2e       	cmpb   $0x2e,0x13(%r14)
    8ad9:	74 e5                	je     8ac0 <FcDirCacheClean+0xd0>
    8adb:	49 8d 5e 13          	lea    0x13(%r14),%rbx
    8adf:	48 89 df             	mov    %rbx,%rdi
    8ae2:	e8 59 dc ff ff       	callq  6740 <strlen@plt>
    8ae7:	48 83 f8 2d          	cmp    $0x2d,%rax
    8aeb:	75 d3                	jne    8ac0 <FcDirCacheClean+0xd0>
    8aed:	49 8d 76 33          	lea    0x33(%r14),%rsi
    8af1:	48 8d 3d 68 ac 01 00 	lea    0x1ac68(%rip),%rdi        # 23760 <_fini+0x1d4>
    8af8:	b9 0e 00 00 00       	mov    $0xe,%ecx
    8afd:	f3 a6                	repz cmpsb %es:(%rdi),%ds:(%rsi)
    8aff:	75 bf                	jne    8ac0 <FcDirCacheClean+0xd0>
    8b01:	31 d2                	xor    %edx,%edx
    8b03:	31 c0                	xor    %eax,%eax
    8b05:	48 89 de             	mov    %rbx,%rsi
    8b08:	4c 89 e7             	mov    %r12,%rdi
    8b0b:	e8 00 69 01 00       	callq  1f410 <FcStrListCreate+0x40>
    8b10:	48 85 c0             	test   %rax,%rax
    8b13:	49 89 c6             	mov    %rax,%r14
    8b16:	0f 84 bf 01 00 00    	je     8cdb <FcDirCacheClean+0x2eb>
    8b1c:	31 f6                	xor    %esi,%esi
    8b1e:	48 89 c7             	mov    %rax,%rdi
    8b21:	e8 5a fc ff ff       	callq  8780 <FcDirCacheLoadFile>
    8b26:	48 85 c0             	test   %rax,%rax
    8b29:	0f 84 11 01 00 00    	je     8c40 <FcDirCacheClean+0x250>
    8b2f:	49 89 c0             	mov    %rax,%r8
    8b32:	4c 03 40 10          	add    0x10(%rax),%r8
    8b36:	48 8b 54 24 08       	mov    0x8(%rsp),%rdx
    8b3b:	bf 01 00 00 00       	mov    $0x1,%edi
    8b40:	48 89 44 24 18       	mov    %rax,0x18(%rsp)
    8b45:	4c 89 c6             	mov    %r8,%rsi
    8b48:	4c 89 44 24 10       	mov    %r8,0x10(%rsp)
    8b4d:	e8 8e de ff ff       	callq  69e0 <__xstat@plt>
    8b52:	85 c0                	test   %eax,%eax
    8b54:	4c 8b 44 24 10       	mov    0x10(%rsp),%r8
    8b59:	4c 8b 4c 24 18       	mov    0x18(%rsp),%r9
    8b5e:	0f 88 2c 01 00 00    	js     8c90 <FcDirCacheClean+0x2a0>
    8b64:	4c 89 cf             	mov    %r9,%rdi
    8b67:	e8 d4 f6 ff ff       	callq  8240 <FcDirCacheUnlink+0x120>
    8b6c:	4c 89 f7             	mov    %r14,%rdi
    8b6f:	e8 5c 52 01 00       	callq  1ddd0 <FcStrFree>
    8b74:	48 89 ef             	mov    %rbp,%rdi
    8b77:	e8 74 de ff ff       	callq  69f0 <readdir@plt>
    8b7c:	48 85 c0             	test   %rax,%rax
    8b7f:	49 89 c6             	mov    %rax,%r14
    8b82:	0f 85 4c ff ff ff    	jne    8ad4 <FcDirCacheClean+0xe4>
    8b88:	0f 1f 84 00 00 00 00 	nopl   0x0(%rax,%rax,1)
    8b8f:	00 
    8b90:	48 89 ef             	mov    %rbp,%rdi
    8b93:	e8 08 dd ff ff       	callq  68a0 <closedir@plt>
    8b98:	e9 c3 fe ff ff       	jmpq   8a60 <FcDirCacheClean+0x70>
    8b9d:	0f 1f 00             	nopl   (%rax)
    8ba0:	31 f6                	xor    %esi,%esi
    8ba2:	4c 89 e7             	mov    %r12,%rdi
    8ba5:	41 bf 01 00 00 00    	mov    $0x1,%r15d
    8bab:	e8 80 df ff ff       	callq  6b30 <access@plt>
    8bb0:	48 8d 0d 73 ab 01 00 	lea    0x1ab73(%rip),%rcx        # 2372a <_fini+0x19e>
    8bb7:	85 c0                	test   %eax,%eax
    8bb9:	48 8d 05 75 ab 01 00 	lea    0x1ab75(%rip),%rax        # 23735 <_fini+0x1a9>
    8bc0:	48 8d 35 69 aa 01 00 	lea    0x1aa69(%rip),%rsi        # 23630 <_fini+0xa4>
    8bc7:	4c 89 e2             	mov    %r12,%rdx
    8bca:	bf 01 00 00 00       	mov    $0x1,%edi
    8bcf:	48 0f 45 c8          	cmovne %rax,%rcx
    8bd3:	31 c0                	xor    %eax,%eax
    8bd5:	e8 f6 de ff ff       	callq  6ad0 <__printf_chk@plt>
    8bda:	e9 81 fe ff ff       	jmpq   8a60 <FcDirCacheClean+0x70>
    8bdf:	90                   	nop
    8be0:	48 8d 35 5b ab 01 00 	lea    0x1ab5b(%rip),%rsi        # 23742 <_fini+0x1b6>
    8be7:	4c 89 e2             	mov    %r12,%rdx
    8bea:	bf 01 00 00 00       	mov    $0x1,%edi
    8bef:	31 c0                	xor    %eax,%eax
    8bf1:	e8 da de ff ff       	callq  6ad0 <__printf_chk@plt>
    8bf6:	e9 9b fe ff ff       	jmpq   8a96 <FcDirCacheClean+0xa6>
    8bfb:	0f 1f 44 00 00       	nopl   0x0(%rax,%rax,1)
    8c00:	48 89 df             	mov    %rbx,%rdi
    8c03:	e8 c8 6a 01 00       	callq  1f6d0 <FcStrCopyFilename>
    8c08:	49 89 c4             	mov    %rax,%r12
    8c0b:	4d 85 e4             	test   %r12,%r12
    8c0e:	0f 85 1e fe ff ff    	jne    8a32 <FcDirCacheClean+0x42>
    8c14:	0f 1f 40 00          	nopl   0x0(%rax)
    8c18:	48 8b 05 c1 23 23 00 	mov    0x2323c1(%rip),%rax        # 23afe0 <_fini+0x217a54>
    8c1f:	48 8d 15 e2 a9 01 00 	lea    0x1a9e2(%rip),%rdx        # 23608 <_fini+0x7c>
    8c26:	48 89 d9             	mov    %rbx,%rcx
    8c29:	be 01 00 00 00       	mov    $0x1,%esi
    8c2e:	48 8b 38             	mov    (%rax),%rdi
    8c31:	31 c0                	xor    %eax,%eax
    8c33:	e8 98 df ff ff       	callq  6bd0 <__fprintf_chk@plt>
    8c38:	31 c0                	xor    %eax,%eax
    8c3a:	e9 2c fe ff ff       	jmpq   8a6b <FcDirCacheClean+0x7b>
    8c3f:	90                   	nop
    8c40:	45 85 ed             	test   %r13d,%r13d
    8c43:	75 09                	jne    8c4e <FcDirCacheClean+0x25e>
    8c45:	f6 05 04 2a 23 00 10 	testb  $0x10,0x232a04(%rip)        # 23b650 <_edata+0x260>
    8c4c:	74 19                	je     8c67 <FcDirCacheClean+0x277>
    8c4e:	48 8d 35 19 ab 01 00 	lea    0x1ab19(%rip),%rsi        # 2376e <_fini+0x1e2>
    8c55:	48 89 d9             	mov    %rbx,%rcx
    8c58:	4c 89 e2             	mov    %r12,%rdx
    8c5b:	bf 01 00 00 00       	mov    $0x1,%edi
    8c60:	31 c0                	xor    %eax,%eax
    8c62:	e8 69 de ff ff       	callq  6ad0 <__printf_chk@plt>
    8c67:	4c 89 f7             	mov    %r14,%rdi
    8c6a:	e8 21 d9 ff ff       	callq  6590 <unlink@plt>
    8c6f:	85 c0                	test   %eax,%eax
    8c71:	0f 89 f5 fe ff ff    	jns    8b6c <FcDirCacheClean+0x17c>
    8c77:	4c 89 f7             	mov    %r14,%rdi
    8c7a:	45 31 ff             	xor    %r15d,%r15d
    8c7d:	e8 ee de ff ff       	callq  6b70 <perror@plt>
    8c82:	e9 e5 fe ff ff       	jmpq   8b6c <FcDirCacheClean+0x17c>
    8c87:	66 0f 1f 84 00 00 00 	nopw   0x0(%rax,%rax,1)
    8c8e:	00 00 
    8c90:	45 85 ed             	test   %r13d,%r13d
    8c93:	75 09                	jne    8c9e <FcDirCacheClean+0x2ae>
    8c95:	f6 05 b4 29 23 00 10 	testb  $0x10,0x2329b4(%rip)        # 23b650 <_edata+0x260>
    8c9c:	74 23                	je     8cc1 <FcDirCacheClean+0x2d1>
    8c9e:	48 8d 35 e3 a9 01 00 	lea    0x1a9e3(%rip),%rsi        # 23688 <_fini+0xfc>
    8ca5:	48 89 d9             	mov    %rbx,%rcx
    8ca8:	4c 89 e2             	mov    %r12,%rdx
    8cab:	bf 01 00 00 00       	mov    $0x1,%edi
    8cb0:	31 c0                	xor    %eax,%eax
    8cb2:	4c 89 4c 24 10       	mov    %r9,0x10(%rsp)
    8cb7:	e8 14 de ff ff       	callq  6ad0 <__printf_chk@plt>
    8cbc:	4c 8b 4c 24 10       	mov    0x10(%rsp),%r9
    8cc1:	4c 89 cf             	mov    %r9,%rdi
    8cc4:	e8 77 f5 ff ff       	callq  8240 <FcDirCacheUnlink+0x120>
    8cc9:	eb 9c                	jmp    8c67 <FcDirCacheClean+0x277>
    8ccb:	4c 89 e7             	mov    %r12,%rdi
    8cce:	45 31 ff             	xor    %r15d,%r15d
    8cd1:	e8 9a de ff ff       	callq  6b70 <perror@plt>
    8cd6:	e9 85 fd ff ff       	jmpq   8a60 <FcDirCacheClean+0x70>
    8cdb:	48 8b 05 fe 22 23 00 	mov    0x2322fe(%rip),%rax        # 23afe0 <_fini+0x217a54>
    8ce2:	48 8d 15 6f a9 01 00 	lea    0x1a96f(%rip),%rdx        # 23658 <_fini+0xcc>
    8ce9:	4c 89 e1             	mov    %r12,%rcx
    8cec:	be 01 00 00 00       	mov    $0x1,%esi
    8cf1:	45 31 ff             	xor    %r15d,%r15d
    8cf4:	48 8b 38             	mov    (%rax),%rdi
    8cf7:	31 c0                	xor    %eax,%eax
    8cf9:	e8 d2 de ff ff       	callq  6bd0 <__fprintf_chk@plt>
    8cfe:	e9 8d fe ff ff       	jmpq   8b90 <FcDirCacheClean+0x1a0>
    8d03:	66 66 66 66 2e 0f 1f 	data32 data32 data32 nopw %cs:0x0(%rax,%rax,1)
    8d0a:	84 00 00 00 00 00 

0000000000008d10 <FcCacheDir>:
    8d10:	48 89 f8             	mov    %rdi,%rax
    8d13:	48 03 47 10          	add    0x10(%rdi),%rax
    8d17:	c3                   	retq   
    8d18:	0f 1f 84 00 00 00 00 	nopl   0x0(%rax,%rax,1)
    8d1f:	00 

0000000000008d20 <FcCacheCopySet>:
    8d20:	41 56                	push   %r14
    8d22:	41 55                	push   %r13
    8d24:	41 54                	push   %r12
    8d26:	55                   	push   %rbp
    8d27:	48 89 fd             	mov    %rdi,%rbp
    8d2a:	53                   	push   %rbx
    8d2b:	48 03 6f 28          	add    0x28(%rdi),%rbp
    8d2f:	e8 9c c0 00 00       	callq  14dd0 <FcFontSetCreate>
    8d34:	48 85 c0             	test   %rax,%rax
    8d37:	49 89 c6             	mov    %rax,%r14
    8d3a:	74 7f                	je     8dbb <FcCacheCopySet+0x9b>
    8d3c:	8b 45 00             	mov    0x0(%rbp),%eax
    8d3f:	85 c0                	test   %eax,%eax
    8d41:	7e 55                	jle    8d98 <FcCacheCopySet+0x78>
    8d43:	45 31 ed             	xor    %r13d,%r13d
    8d46:	31 db                	xor    %ebx,%ebx
    8d48:	eb 3b                	jmp    8d85 <FcCacheCopySet+0x65>
    8d4a:	66 0f 1f 44 00 00    	nopw   0x0(%rax,%rax,1)
    8d50:	48 83 e2 fe          	and    $0xfffffffffffffffe,%rdx
    8d54:	48 01 ea             	add    %rbp,%rdx
    8d57:	4e 8b 24 2a          	mov    (%rdx,%r13,1),%r12
    8d5b:	49 83 e4 fe          	and    $0xfffffffffffffffe,%r12
    8d5f:	49 01 ec             	add    %rbp,%r12
    8d62:	4c 89 e7             	mov    %r12,%rdi
    8d65:	e8 46 3c 01 00       	callq  1c9b0 <FcPatternReference>
    8d6a:	4c 89 e6             	mov    %r12,%rsi
    8d6d:	4c 89 f7             	mov    %r14,%rdi
    8d70:	e8 db c0 00 00       	callq  14e50 <FcFontSetAdd>
    8d75:	85 c0                	test   %eax,%eax
    8d77:	74 2f                	je     8da8 <FcCacheCopySet+0x88>
    8d79:	83 c3 01             	add    $0x1,%ebx
    8d7c:	49 83 c5 08          	add    $0x8,%r13
    8d80:	39 5d 00             	cmp    %ebx,0x0(%rbp)
    8d83:	7e 13                	jle    8d98 <FcCacheCopySet+0x78>
    8d85:	48 8b 55 08          	mov    0x8(%rbp),%rdx
    8d89:	f6 c2 01             	test   $0x1,%dl
    8d8c:	75 c2                	jne    8d50 <FcCacheCopySet+0x30>
    8d8e:	4e 8b 24 2a          	mov    (%rdx,%r13,1),%r12
    8d92:	eb ce                	jmp    8d62 <FcCacheCopySet+0x42>
    8d94:	0f 1f 40 00          	nopl   0x0(%rax)
    8d98:	4c 89 f0             	mov    %r14,%rax
    8d9b:	5b                   	pop    %rbx
    8d9c:	5d                   	pop    %rbp
    8d9d:	41 5c                	pop    %r12
    8d9f:	41 5d                	pop    %r13
    8da1:	41 5e                	pop    %r14
    8da3:	c3                   	retq   
    8da4:	0f 1f 40 00          	nopl   0x0(%rax)
    8da8:	4c 89 f7             	mov    %r14,%rdi
    8dab:	e8 50 c0 00 00       	callq  14e00 <FcFontSetDestroy>
    8db0:	5b                   	pop    %rbx
    8db1:	5d                   	pop    %rbp
    8db2:	41 5c                	pop    %r12
    8db4:	41 5d                	pop    %r13
    8db6:	31 c0                	xor    %eax,%eax
    8db8:	41 5e                	pop    %r14
    8dba:	c3                   	retq   
    8dbb:	31 c0                	xor    %eax,%eax
    8dbd:	eb dc                	jmp    8d9b <FcCacheCopySet+0x7b>
    8dbf:	90                   	nop

0000000000008dc0 <FcCacheSubdir>:
    8dc0:	48 89 f8             	mov    %rdi,%rax
    8dc3:	48 03 47 18          	add    0x18(%rdi),%rax
    8dc7:	48 63 f6             	movslq %esi,%rsi
    8dca:	48 03 04 f0          	add    (%rax,%rsi,8),%rax
    8dce:	c3                   	retq   
    8dcf:	90                   	nop

0000000000008dd0 <FcCacheNumSubdir>:
    8dd0:	8b 47 20             	mov    0x20(%rdi),%eax
    8dd3:	c3                   	retq   
    8dd4:	66 66 66 2e 0f 1f 84 	data32 data32 nopw %cs:0x0(%rax,%rax,1)
    8ddb:	00 00 00 00 00 

0000000000008de0 <FcCacheNumFont>:
    8de0:	48 8b 47 28          	mov    0x28(%rdi),%rax
    8de4:	8b 04 07             	mov    (%rdi,%rax,1),%eax
    8de7:	c3                   	retq   
    8de8:	0f 1f 84 00 00 00 00 	nopl   0x0(%rax,%rax,1)
    8def:	00 
    8df0:	41 55                	push   %r13
    8df2:	41 54                	push   %r12
    8df4:	55                   	push   %rbp
    8df5:	53                   	push   %rbx
    8df6:	48 89 fb             	mov    %rdi,%rbx
    8df9:	48 83 ec 08          	sub    $0x8,%rsp
    8dfd:	48 85 ff             	test   %rdi,%rdi
    8e00:	74 1e                	je     8e20 <FcCacheNumFont+0x40>
    8e02:	be 02 00 00 00       	mov    $0x2,%esi
    8e07:	e8 24 dd ff ff       	callq  6b30 <access@plt>
    8e0c:	85 c0                	test   %eax,%eax
    8e0e:	74 20                	je     8e30 <FcCacheNumFont+0x50>
    8e10:	f6 05 39 28 23 00 10 	testb  $0x10,0x232839(%rip)        # 23b650 <_edata+0x260>
    8e17:	75 67                	jne    8e80 <FcCacheNumFont+0xa0>
    8e19:	0f 1f 80 00 00 00 00 	nopl   0x0(%rax)
    8e20:	31 c0                	xor    %eax,%eax
    8e22:	48 83 c4 08          	add    $0x8,%rsp
    8e26:	5b                   	pop    %rbx
    8e27:	5d                   	pop    %rbp
    8e28:	41 5c                	pop    %r12
    8e2a:	41 5d                	pop    %r13
    8e2c:	c3                   	retq   
    8e2d:	0f 1f 00             	nopl   (%rax)
    8e30:	48 8d 35 53 a9 01 00 	lea    0x1a953(%rip),%rsi        # 2378a <_fini+0x1fe>
    8e37:	31 d2                	xor    %edx,%edx
    8e39:	48 89 df             	mov    %rbx,%rdi
    8e3c:	e8 cf 65 01 00       	callq  1f410 <FcStrListCreate+0x40>
    8e41:	48 85 c0             	test   %rax,%rax
    8e44:	48 89 c5             	mov    %rax,%rbp
    8e47:	74 d7                	je     8e20 <FcCacheNumFont+0x40>
    8e49:	48 89 c7             	mov    %rax,%rdi
    8e4c:	e8 1f df ff ff       	callq  6d70 <FcAtomicCreate>
    8e51:	48 85 c0             	test   %rax,%rax
    8e54:	49 89 c4             	mov    %rax,%r12
    8e57:	74 14                	je     8e6d <FcCacheNumFont+0x8d>
    8e59:	48 89 c7             	mov    %rax,%rdi
    8e5c:	e8 cf df ff ff       	callq  6e30 <FcAtomicLock>
    8e61:	85 c0                	test   %eax,%eax
    8e63:	4c 89 e7             	mov    %r12,%rdi
    8e66:	75 40                	jne    8ea8 <FcCacheNumFont+0xc8>
    8e68:	e8 f3 e1 ff ff       	callq  7060 <FcAtomicDestroy>
    8e6d:	48 89 ef             	mov    %rbp,%rdi
    8e70:	e8 5b 4f 01 00       	callq  1ddd0 <FcStrFree>
    8e75:	eb 99                	jmp    8e10 <FcCacheNumFont+0x30>
    8e77:	66 0f 1f 84 00 00 00 	nopw   0x0(%rax,%rax,1)
    8e7e:	00 00 
    8e80:	48 8d 35 21 a8 01 00 	lea    0x1a821(%rip),%rsi        # 236a8 <_fini+0x11c>
    8e87:	48 89 da             	mov    %rbx,%rdx
    8e8a:	bf 01 00 00 00       	mov    $0x1,%edi
    8e8f:	31 c0                	xor    %eax,%eax
    8e91:	e8 3a dc ff ff       	callq  6ad0 <__printf_chk@plt>
    8e96:	48 83 c4 08          	add    $0x8,%rsp
    8e9a:	31 c0                	xor    %eax,%eax
    8e9c:	5b                   	pop    %rbx
    8e9d:	5d                   	pop    %rbp
    8e9e:	41 5c                	pop    %r12
    8ea0:	41 5d                	pop    %r13
    8ea2:	c3                   	retq   
    8ea3:	0f 1f 44 00 00       	nopl   0x0(%rax,%rax,1)
    8ea8:	e8 33 e1 ff ff       	callq  6fe0 <FcAtomicNewFile>
    8ead:	ba a4 01 00 00       	mov    $0x1a4,%edx
    8eb2:	48 89 c7             	mov    %rax,%rdi
    8eb5:	be 42 00 00 00       	mov    $0x42,%esi
    8eba:	31 c0                	xor    %eax,%eax
    8ebc:	e8 9f 54 00 00       	callq  e360 <FcCharSetCoverage+0xba0>
    8ec1:	83 f8 ff             	cmp    $0xffffffff,%eax
    8ec4:	0f 84 a6 00 00 00    	je     8f70 <FcCacheNumFont+0x190>
    8eca:	48 8d 35 c6 a8 01 00 	lea    0x1a8c6(%rip),%rsi        # 23797 <_fini+0x20b>
    8ed1:	89 c7                	mov    %eax,%edi
    8ed3:	e8 d8 db ff ff       	callq  6ab0 <fdopen@plt>
    8ed8:	48 85 c0             	test   %rax,%rax
    8edb:	49 89 c5             	mov    %rax,%r13
    8ede:	0f 84 8c 00 00 00    	je     8f70 <FcCacheNumFont+0x190>
    8ee4:	48 8d 3d f5 a8 01 00 	lea    0x1a8f5(%rip),%rdi        # 237e0 <_fini+0x254>
    8eeb:	48 89 c1             	mov    %rax,%rcx
    8eee:	ba 01 00 00 00       	mov    $0x1,%edx
    8ef3:	be c8 00 00 00       	mov    $0xc8,%esi
    8ef8:	e8 c3 dc ff ff       	callq  6bc0 <fwrite@plt>
    8efd:	4c 89 ef             	mov    %r13,%rdi
    8f00:	45 31 ed             	xor    %r13d,%r13d
    8f03:	e8 c8 d7 ff ff       	callq  66d0 <fclose@plt>
    8f08:	4c 89 e7             	mov    %r12,%rdi
    8f0b:	e8 f0 e0 ff ff       	callq  7000 <FcAtomicReplaceOrig>
    8f10:	85 c0                	test   %eax,%eax
    8f12:	41 0f 95 c5          	setne  %r13b
    8f16:	4c 89 e7             	mov    %r12,%rdi
    8f19:	e8 12 e1 ff ff       	callq  7030 <FcAtomicUnlock>
    8f1e:	4c 89 e7             	mov    %r12,%rdi
    8f21:	e8 3a e1 ff ff       	callq  7060 <FcAtomicDestroy>
    8f26:	48 89 ef             	mov    %rbp,%rdi
    8f29:	e8 a2 4e 01 00       	callq  1ddd0 <FcStrFree>
    8f2e:	f6 05 1b 27 23 00 10 	testb  $0x10,0x23271b(%rip)        # 23b650 <_edata+0x260>
    8f35:	44 89 e8             	mov    %r13d,%eax
    8f38:	0f 84 e4 fe ff ff    	je     8e22 <FcCacheNumFont+0x42>
    8f3e:	45 85 ed             	test   %r13d,%r13d
    8f41:	0f 84 39 ff ff ff    	je     8e80 <FcCacheNumFont+0xa0>
    8f47:	48 8d 35 4c a8 01 00 	lea    0x1a84c(%rip),%rsi        # 2379a <_fini+0x20e>
    8f4e:	48 89 da             	mov    %rbx,%rdx
    8f51:	bf 01 00 00 00       	mov    $0x1,%edi
    8f56:	31 c0                	xor    %eax,%eax
    8f58:	e8 73 db ff ff       	callq  6ad0 <__printf_chk@plt>
    8f5d:	48 83 c4 08          	add    $0x8,%rsp
    8f61:	b8 01 00 00 00       	mov    $0x1,%eax
    8f66:	5b                   	pop    %rbx
    8f67:	5d                   	pop    %rbp
    8f68:	41 5c                	pop    %r12
    8f6a:	41 5d                	pop    %r13
    8f6c:	c3                   	retq   
    8f6d:	0f 1f 00             	nopl   (%rax)
    8f70:	45 31 ed             	xor    %r13d,%r13d
    8f73:	eb a1                	jmp    8f16 <FcCacheNumFont+0x136>
    8f75:	66 66 2e 0f 1f 84 00 	data32 nopw %cs:0x0(%rax,%rax,1)
    8f7c:	00 00 00 00 
    8f80:	41 57                	push   %r15
    8f82:	41 56                	push   %r14
    8f84:	49 89 fe             	mov    %rdi,%r14
    8f87:	41 55                	push   %r13
    8f89:	41 54                	push   %r12
    8f8b:	55                   	push   %rbp
    8f8c:	53                   	push   %rbx
    8f8d:	48 89 f3             	mov    %rsi,%rbx
    8f90:	48 81 ec d8 00 00 00 	sub    $0xd8,%rsp
    8f97:	4c 8b 7f 10          	mov    0x10(%rdi),%r15
    8f9b:	48 89 f7             	mov    %rsi,%rdi
    8f9e:	64 48 8b 04 25 28 00 	mov    %fs:0x28,%rax
    8fa5:	00 00 
    8fa7:	48 89 84 24 c8 00 00 	mov    %rax,0xc8(%rsp)
    8fae:	00 
    8faf:	31 c0                	xor    %eax,%eax
    8fb1:	e8 3a 36 00 00       	callq  c5f0 <FcConfigGetSysRoot>
    8fb6:	48 8b 7b 18          	mov    0x18(%rbx),%rdi
    8fba:	49 89 c4             	mov    %rax,%r12
    8fbd:	e8 0e 64 01 00       	callq  1f3d0 <FcStrListCreate>
    8fc2:	48 85 c0             	test   %rax,%rax
    8fc5:	49 89 c5             	mov    %rax,%r13
    8fc8:	0f 84 8e 01 00 00    	je     915c <FcCacheNumFont+0x37c>
    8fce:	31 db                	xor    %ebx,%ebx
    8fd0:	4c 89 ef             	mov    %r13,%rdi
    8fd3:	e8 18 68 01 00       	callq  1f7f0 <FcStrListNext>
    8fd8:	48 85 c0             	test   %rax,%rax
    8fdb:	48 89 c5             	mov    %rax,%rbp
    8fde:	74 74                	je     9054 <FcCacheNumFont+0x274>
    8fe0:	48 85 db             	test   %rbx,%rbx
    8fe3:	74 08                	je     8fed <FcCacheNumFont+0x20d>
    8fe5:	48 89 df             	mov    %rbx,%rdi
    8fe8:	e8 e3 4d 01 00       	callq  1ddd0 <FcStrFree>
    8fed:	4d 85 e4             	test   %r12,%r12
    8ff0:	0f 84 b2 01 00 00    	je     91a8 <FcCacheNumFont+0x3c8>
    8ff6:	31 d2                	xor    %edx,%edx
    8ff8:	48 89 ee             	mov    %rbp,%rsi
    8ffb:	4c 89 e7             	mov    %r12,%rdi
    8ffe:	31 c0                	xor    %eax,%eax
    9000:	e8 0b 64 01 00       	callq  1f410 <FcStrListCreate+0x40>
    9005:	48 89 c3             	mov    %rax,%rbx
    9008:	be 02 00 00 00       	mov    $0x2,%esi
    900d:	48 89 df             	mov    %rbx,%rdi
    9010:	e8 1b db ff ff       	callq  6b30 <access@plt>
    9015:	85 c0                	test   %eax,%eax
    9017:	0f 84 a3 01 00 00    	je     91c0 <FcCacheNumFont+0x3e0>
    901d:	31 f6                	xor    %esi,%esi
    901f:	48 89 df             	mov    %rbx,%rdi
    9022:	e8 09 db ff ff       	callq  6b30 <access@plt>
    9027:	83 f8 ff             	cmp    $0xffffffff,%eax
    902a:	0f 84 60 01 00 00    	je     9190 <FcCacheNumFont+0x3b0>
    9030:	be ed 01 00 00       	mov    $0x1ed,%esi
    9035:	48 89 df             	mov    %rbx,%rdi
    9038:	e8 c3 da ff ff       	callq  6b00 <chmod@plt>
    903d:	85 c0                	test   %eax,%eax
    903f:	75 8f                	jne    8fd0 <FcCacheNumFont+0x1f0>
    9041:	48 89 df             	mov    %rbx,%rdi
    9044:	e8 87 66 01 00       	callq  1f6d0 <FcStrCopyFilename>
    9049:	48 89 df             	mov    %rbx,%rdi
    904c:	48 89 c5             	mov    %rax,%rbp
    904f:	e8 9c fd ff ff       	callq  8df0 <FcCacheNumFont+0x10>
    9054:	48 85 db             	test   %rbx,%rbx
    9057:	74 08                	je     9061 <FcCacheNumFont+0x281>
    9059:	48 89 df             	mov    %rbx,%rdi
    905c:	e8 6f 4d 01 00       	callq  1ddd0 <FcStrFree>
    9061:	4c 89 ef             	mov    %r13,%rdi
    9064:	e8 b7 67 01 00       	callq  1f820 <FcStrListDone>
    9069:	48 85 ed             	test   %rbp,%rbp
    906c:	0f 84 ea 00 00 00    	je     915c <FcCacheNumFont+0x37c>
    9072:	48 8d 9c 24 90 00 00 	lea    0x90(%rsp),%rbx
    9079:	00 
    907a:	4d 01 f7             	add    %r14,%r15
    907d:	4c 89 ff             	mov    %r15,%rdi
    9080:	48 89 de             	mov    %rbx,%rsi
    9083:	e8 98 ec ff ff       	callq  7d20 <FcBlanksIsMember+0xbc0>
    9088:	31 d2                	xor    %edx,%edx
    908a:	48 89 de             	mov    %rbx,%rsi
    908d:	31 c0                	xor    %eax,%eax
    908f:	48 89 ef             	mov    %rbp,%rdi
    9092:	e8 79 63 01 00       	callq  1f410 <FcStrListCreate+0x40>
    9097:	48 85 c0             	test   %rax,%rax
    909a:	48 89 c3             	mov    %rax,%rbx
    909d:	0f 84 b9 00 00 00    	je     915c <FcCacheNumFont+0x37c>
    90a3:	48 89 ef             	mov    %rbp,%rdi
    90a6:	e8 25 4d 01 00       	callq  1ddd0 <FcStrFree>
    90ab:	f6 05 9e 25 23 00 10 	testb  $0x10,0x23259e(%rip)        # 23b650 <_edata+0x260>
    90b2:	0f 85 18 01 00 00    	jne    91d0 <FcCacheNumFont+0x3f0>
    90b8:	48 89 df             	mov    %rbx,%rdi
    90bb:	e8 b0 dc ff ff       	callq  6d70 <FcAtomicCreate>
    90c0:	48 85 c0             	test   %rax,%rax
    90c3:	48 89 c5             	mov    %rax,%rbp
    90c6:	0f 84 88 00 00 00    	je     9154 <FcCacheNumFont+0x374>
    90cc:	48 89 c7             	mov    %rax,%rdi
    90cf:	e8 5c dd ff ff       	callq  6e30 <FcAtomicLock>
    90d4:	85 c0                	test   %eax,%eax
    90d6:	74 74                	je     914c <FcCacheNumFont+0x36c>
    90d8:	48 89 ef             	mov    %rbp,%rdi
    90db:	e8 00 df ff ff       	callq  6fe0 <FcAtomicNewFile>
    90e0:	ba b6 01 00 00       	mov    $0x1b6,%edx
    90e5:	48 89 c7             	mov    %rax,%rdi
    90e8:	be 42 00 00 00       	mov    $0x42,%esi
    90ed:	31 c0                	xor    %eax,%eax
    90ef:	e8 6c 52 00 00       	callq  e360 <FcCharSetCoverage+0xba0>
    90f4:	83 f8 ff             	cmp    $0xffffffff,%eax
    90f7:	41 89 c4             	mov    %eax,%r12d
    90fa:	74 48                	je     9144 <FcCacheNumFont+0x364>
    90fc:	45 8b 2e             	mov    (%r14),%r13d
    90ff:	41 81 fd 04 fc 02 fc 	cmp    $0xfc02fc04,%r13d
    9106:	0f 84 f6 00 00 00    	je     9202 <FcCacheNumFont+0x422>
    910c:	49 8b 56 08          	mov    0x8(%r14),%rdx
    9110:	41 c7 06 04 fc 02 fc 	movl   $0xfc02fc04,(%r14)
    9117:	4c 89 f6             	mov    %r14,%rsi
    911a:	89 c7                	mov    %eax,%edi
    911c:	e8 7f d5 ff ff       	callq  66a0 <write@plt>
    9121:	45 89 2e             	mov    %r13d,(%r14)
    9124:	48 98                	cltq   
    9126:	49 3b 46 08          	cmp    0x8(%r14),%rax
    912a:	0f 84 e5 00 00 00    	je     9215 <FcCacheNumFont+0x435>
    9130:	48 8d 3d 7f a6 01 00 	lea    0x1a67f(%rip),%rdi        # 237b6 <_fini+0x22a>
    9137:	e8 34 da ff ff       	callq  6b70 <perror@plt>
    913c:	44 89 e7             	mov    %r12d,%edi
    913f:	e8 4c d7 ff ff       	callq  6890 <close@plt>
    9144:	48 89 ef             	mov    %rbp,%rdi
    9147:	e8 e4 de ff ff       	callq  7030 <FcAtomicUnlock>
    914c:	48 89 ef             	mov    %rbp,%rdi
    914f:	e8 0c df ff ff       	callq  7060 <FcAtomicDestroy>
    9154:	48 89 df             	mov    %rbx,%rdi
    9157:	e8 74 4c 01 00       	callq  1ddd0 <FcStrFree>
    915c:	31 c0                	xor    %eax,%eax
    915e:	48 8b 8c 24 c8 00 00 	mov    0xc8(%rsp),%rcx
    9165:	00 
    9166:	64 48 33 0c 25 28 00 	xor    %fs:0x28,%rcx
    916d:	00 00 
    916f:	0f 85 2d 01 00 00    	jne    92a2 <FcCacheNumFont+0x4c2>
    9175:	48 81 c4 d8 00 00 00 	add    $0xd8,%rsp
    917c:	5b                   	pop    %rbx
    917d:	5d                   	pop    %rbp
    917e:	41 5c                	pop    %r12
    9180:	41 5d                	pop    %r13
    9182:	41 5e                	pop    %r14
    9184:	41 5f                	pop    %r15
    9186:	c3                   	retq   
    9187:	66 0f 1f 84 00 00 00 	nopw   0x0(%rax,%rax,1)
    918e:	00 00 
    9190:	48 89 df             	mov    %rbx,%rdi
    9193:	e8 98 52 00 00       	callq  e430 <FcCharSetCoverage+0xc70>
    9198:	85 c0                	test   %eax,%eax
    919a:	0f 84 30 fe ff ff    	je     8fd0 <FcCacheNumFont+0x1f0>
    91a0:	e9 9c fe ff ff       	jmpq   9041 <FcCacheNumFont+0x261>
    91a5:	0f 1f 00             	nopl   (%rax)
    91a8:	48 89 ef             	mov    %rbp,%rdi
    91ab:	e8 20 65 01 00       	callq  1f6d0 <FcStrCopyFilename>
    91b0:	48 89 c3             	mov    %rax,%rbx
    91b3:	e9 50 fe ff ff       	jmpq   9008 <FcCacheNumFont+0x228>
    91b8:	0f 1f 84 00 00 00 00 	nopl   0x0(%rax,%rax,1)
    91bf:	00 
    91c0:	48 89 df             	mov    %rbx,%rdi
    91c3:	e8 08 65 01 00       	callq  1f6d0 <FcStrCopyFilename>
    91c8:	48 89 c5             	mov    %rax,%rbp
    91cb:	e9 84 fe ff ff       	jmpq   9054 <FcCacheNumFont+0x274>
    91d0:	48 8d 35 f9 a4 01 00 	lea    0x1a4f9(%rip),%rsi        # 236d0 <_fini+0x144>
    91d7:	48 89 d9             	mov    %rbx,%rcx
    91da:	4c 89 fa             	mov    %r15,%rdx
    91dd:	bf 01 00 00 00       	mov    $0x1,%edi
    91e2:	31 c0                	xor    %eax,%eax
    91e4:	e8 e7 d8 ff ff       	callq  6ad0 <__printf_chk@plt>
    91e9:	48 89 df             	mov    %rbx,%rdi
    91ec:	e8 7f db ff ff       	callq  6d70 <FcAtomicCreate>
    91f1:	48 85 c0             	test   %rax,%rax
    91f4:	48 89 c5             	mov    %rax,%rbp
    91f7:	0f 85 cf fe ff ff    	jne    90cc <FcCacheNumFont+0x2ec>
    91fd:	e9 52 ff ff ff       	jmpq   9154 <FcCacheNumFont+0x374>
    9202:	49 8b 56 08          	mov    0x8(%r14),%rdx
    9206:	4c 89 f6             	mov    %r14,%rsi
    9209:	89 c7                	mov    %eax,%edi
    920b:	e8 90 d4 ff ff       	callq  66a0 <write@plt>
    9210:	e9 0f ff ff ff       	jmpq   9124 <FcCacheNumFont+0x344>
    9215:	44 89 e7             	mov    %r12d,%edi
    9218:	e8 73 d6 ff ff       	callq  6890 <close@plt>
    921d:	48 89 ef             	mov    %rbp,%rdi
    9220:	e8 db dd ff ff       	callq  7000 <FcAtomicReplaceOrig>
    9225:	85 c0                	test   %eax,%eax
    9227:	0f 84 17 ff ff ff    	je     9144 <FcCacheNumFont+0x364>
    922d:	49 81 7e 08 ff 03 00 	cmpq   $0x3ff,0x8(%r14)
    9234:	00 
    9235:	7e 22                	jle    9259 <FcCacheNumFont+0x479>
    9237:	48 89 df             	mov    %rbx,%rdi
    923a:	e8 91 4b 01 00       	callq  1ddd0 <FcStrFree>
    923f:	48 89 ef             	mov    %rbp,%rdi
    9242:	e8 e9 dd ff ff       	callq  7030 <FcAtomicUnlock>
    9247:	48 89 ef             	mov    %rbp,%rdi
    924a:	e8 11 de ff ff       	callq  7060 <FcAtomicDestroy>
    924f:	b8 01 00 00 00       	mov    $0x1,%eax
    9254:	e9 05 ff ff ff       	jmpq   915e <FcCacheNumFont+0x37e>
    9259:	48 89 e6             	mov    %rsp,%rsi
    925c:	48 89 df             	mov    %rbx,%rdi
    925f:	e8 cc 44 01 00       	callq  1d730 <FcPatternFilter+0x8b0>
    9264:	85 c0                	test   %eax,%eax
    9266:	74 cf                	je     9237 <FcCacheNumFont+0x457>
    9268:	e8 83 e7 ff ff       	callq  79f0 <FcBlanksIsMember+0x890>
    926d:	4c 89 f7             	mov    %r14,%rdi
    9270:	e8 2b df ff ff       	callq  71a0 <FcBlanksIsMember+0x40>
    9275:	48 85 c0             	test   %rax,%rax
    9278:	74 1a                	je     9294 <FcCacheNumFont+0x4b4>
    927a:	48 8b 14 24          	mov    (%rsp),%rdx
    927e:	48 89 50 18          	mov    %rdx,0x18(%rax)
    9282:	48 8b 54 24 08       	mov    0x8(%rsp),%rdx
    9287:	48 89 50 20          	mov    %rdx,0x20(%rax)
    928b:	48 8b 54 24 58       	mov    0x58(%rsp),%rdx
    9290:	48 89 50 28          	mov    %rdx,0x28(%rax)
    9294:	48 8b 3d 8d 21 23 00 	mov    0x23218d(%rip),%rdi        # 23b428 <_edata+0x38>
    929b:	e8 60 d7 ff ff       	callq  6a00 <pthread_mutex_unlock@plt>
    92a0:	eb 95                	jmp    9237 <FcCacheNumFont+0x457>
    92a2:	e8 b9 d4 ff ff       	callq  6760 <__stack_chk_fail@plt>
    92a7:	66 0f 1f 84 00 00 00 	nopw   0x0(%rax,%rax,1)
    92ae:	00 00 

00000000000092b0 <FcCacheCreateTagFile>:
    92b0:	41 55                	push   %r13
    92b2:	41 54                	push   %r12
    92b4:	55                   	push   %rbp
    92b5:	53                   	push   %rbx
    92b6:	48 89 fb             	mov    %rdi,%rbx
    92b9:	48 83 ec 08          	sub    $0x8,%rsp
    92bd:	e8 2e 33 00 00       	callq  c5f0 <FcConfigGetSysRoot>
    92c2:	48 89 df             	mov    %rbx,%rdi
    92c5:	49 89 c4             	mov    %rax,%r12
    92c8:	e8 a3 0c 00 00       	callq  9f70 <FcConfigGetCacheDirs>
    92cd:	48 85 c0             	test   %rax,%rax
    92d0:	49 89 c5             	mov    %rax,%r13
    92d3:	0f 84 86 00 00 00    	je     935f <FcCacheCreateTagFile+0xaf>
    92d9:	31 db                	xor    %ebx,%ebx
    92db:	eb 21                	jmp    92fe <FcCacheCreateTagFile+0x4e>
    92dd:	0f 1f 00             	nopl   (%rax)
    92e0:	31 d2                	xor    %edx,%edx
    92e2:	48 89 ee             	mov    %rbp,%rsi
    92e5:	4c 89 e7             	mov    %r12,%rdi
    92e8:	31 c0                	xor    %eax,%eax
    92ea:	e8 21 61 01 00       	callq  1f410 <FcStrListCreate+0x40>
    92ef:	48 89 c3             	mov    %rax,%rbx
    92f2:	48 89 df             	mov    %rbx,%rdi
    92f5:	e8 f6 fa ff ff       	callq  8df0 <FcCacheNumFont+0x10>
    92fa:	85 c0                	test   %eax,%eax
    92fc:	75 42                	jne    9340 <FcCacheCreateTagFile+0x90>
    92fe:	4c 89 ef             	mov    %r13,%rdi
    9301:	e8 ea 64 01 00       	callq  1f7f0 <FcStrListNext>
    9306:	48 85 c0             	test   %rax,%rax
    9309:	48 89 c5             	mov    %rax,%rbp
    930c:	74 32                	je     9340 <FcCacheCreateTagFile+0x90>
    930e:	48 85 db             	test   %rbx,%rbx
    9311:	74 08                	je     931b <FcCacheCreateTagFile+0x6b>
    9313:	48 89 df             	mov    %rbx,%rdi
    9316:	e8 b5 4a 01 00       	callq  1ddd0 <FcStrFree>
    931b:	4d 85 e4             	test   %r12,%r12
    931e:	75 c0                	jne    92e0 <FcCacheCreateTagFile+0x30>
    9320:	48 89 ef             	mov    %rbp,%rdi
    9323:	e8 a8 63 01 00       	callq  1f6d0 <FcStrCopyFilename>
    9328:	48 89 c3             	mov    %rax,%rbx
    932b:	48 89 df             	mov    %rbx,%rdi
    932e:	e8 bd fa ff ff       	callq  8df0 <FcCacheNumFont+0x10>
    9333:	85 c0                	test   %eax,%eax
    9335:	74 c7                	je     92fe <FcCacheCreateTagFile+0x4e>
    9337:	66 0f 1f 84 00 00 00 	nopw   0x0(%rax,%rax,1)
    933e:	00 00 
    9340:	48 85 db             	test   %rbx,%rbx
    9343:	74 08                	je     934d <FcCacheCreateTagFile+0x9d>
    9345:	48 89 df             	mov    %rbx,%rdi
    9348:	e8 83 4a 01 00       	callq  1ddd0 <FcStrFree>
    934d:	48 83 c4 08          	add    $0x8,%rsp
    9351:	4c 89 ef             	mov    %r13,%rdi
    9354:	5b                   	pop    %rbx
    9355:	5d                   	pop    %rbp
    9356:	41 5c                	pop    %r12
    9358:	41 5d                	pop    %r13
    935a:	e9 c1 64 01 00       	jmpq   1f820 <FcStrListDone>
    935f:	48 83 c4 08          	add    $0x8,%rsp
    9363:	5b                   	pop    %rbx
    9364:	5d                   	pop    %rbp
    9365:	41 5c                	pop    %r12
    9367:	41 5d                	pop    %r13
    9369:	c3                   	retq   
    936a:	66 0f 1f 44 00 00    	nopw   0x0(%rax,%rax,1)
    9370:	41 55                	push   %r13
    9372:	45 31 ed             	xor    %r13d,%r13d
    9375:	41 54                	push   %r12
    9377:	55                   	push   %rbp
    9378:	31 ed                	xor    %ebp,%ebp
    937a:	53                   	push   %rbx
    937b:	48 81 ec 98 00 00 00 	sub    $0x98,%rsp
    9382:	e8 49 60 01 00       	callq  1f3d0 <FcStrListCreate>
    9387:	48 85 c0             	test   %rax,%rax
    938a:	48 89 c3             	mov    %rax,%rbx
    938d:	74 48                	je     93d7 <FcCacheCreateTagFile+0x127>
    938f:	49 89 e4             	mov    %rsp,%r12
    9392:	66 0f 1f 44 00 00    	nopw   0x0(%rax,%rax,1)
    9398:	48 89 df             	mov    %rbx,%rdi
    939b:	e8 50 64 01 00       	callq  1f7f0 <FcStrListNext>
    93a0:	48 85 c0             	test   %rax,%rax
    93a3:	74 2a                	je     93cf <FcCacheCreateTagFile+0x11f>
    93a5:	4c 89 e6             	mov    %r12,%rsi
    93a8:	48 89 c7             	mov    %rax,%rdi
    93ab:	e8 80 43 01 00       	callq  1d730 <FcPatternFilter+0x8b0>
    93b0:	85 c0                	test   %eax,%eax
    93b2:	75 e4                	jne    9398 <FcCacheCreateTagFile+0xe8>
    93b4:	85 ed                	test   %ebp,%ebp
    93b6:	75 38                	jne    93f0 <FcCacheCreateTagFile+0x140>
    93b8:	4c 8b 6c 24 58       	mov    0x58(%rsp),%r13
    93bd:	48 89 df             	mov    %rbx,%rdi
    93c0:	bd 01 00 00 00       	mov    $0x1,%ebp
    93c5:	e8 26 64 01 00       	callq  1f7f0 <FcStrListNext>
    93ca:	48 85 c0             	test   %rax,%rax
    93cd:	75 d6                	jne    93a5 <FcCacheCreateTagFile+0xf5>
    93cf:	48 89 df             	mov    %rbx,%rdi
    93d2:	e8 49 64 01 00       	callq  1f820 <FcStrListDone>
    93d7:	48 81 c4 98 00 00 00 	add    $0x98,%rsp
    93de:	89 ea                	mov    %ebp,%edx
    93e0:	4c 89 e8             	mov    %r13,%rax
    93e3:	5b                   	pop    %rbx
    93e4:	5d                   	pop    %rbp
    93e5:	41 5c                	pop    %r12
    93e7:	83 e2 01             	and    $0x1,%edx
    93ea:	41 5d                	pop    %r13
    93ec:	c3                   	retq   
    93ed:	0f 1f 00             	nopl   (%rax)
    93f0:	48 8b 44 24 58       	mov    0x58(%rsp),%rax
    93f5:	bd 01 00 00 00       	mov    $0x1,%ebp
    93fa:	48 89 c2             	mov    %rax,%rdx
    93fd:	4c 29 ea             	sub    %r13,%rdx
    9400:	48 85 d2             	test   %rdx,%rdx
    9403:	7e 93                	jle    9398 <FcCacheCreateTagFile+0xe8>
    9405:	49 89 c5             	mov    %rax,%r13
    9408:	eb b3                	jmp    93bd <FcCacheCreateTagFile+0x10d>
    940a:	66 0f 1f 44 00 00    	nopw   0x0(%rax,%rax,1)
    9410:	55                   	push   %rbp
    9411:	53                   	push   %rbx
    9412:	48 89 fb             	mov    %rdi,%rbx
    9415:	48 83 ec 08          	sub    $0x8,%rsp
    9419:	48 85 ff             	test   %rdi,%rdi
    941c:	75 05                	jne    9423 <FcCacheCreateTagFile+0x173>
    941e:	eb 21                	jmp    9441 <FcCacheCreateTagFile+0x191>
    9420:	48 89 eb             	mov    %rbp,%rbx
    9423:	48 8b 7b 08          	mov    0x8(%rbx),%rdi
    9427:	48 8b 2b             	mov    (%rbx),%rbp
    942a:	48 85 ff             	test   %rdi,%rdi
    942d:	74 05                	je     9434 <FcCacheCreateTagFile+0x184>
    942f:	e8 0c 70 01 00       	callq  20440 <FcRuleDestroy>
    9434:	48 89 df             	mov    %rbx,%rdi
    9437:	e8 f4 d0 ff ff       	callq  6530 <free@plt>
    943c:	48 85 ed             	test   %rbp,%rbp
    943f:	75 df                	jne    9420 <FcCacheCreateTagFile+0x170>
    9441:	48 83 c4 08          	add    $0x8,%rsp
    9445:	5b                   	pop    %rbx
    9446:	5d                   	pop    %rbp
    9447:	c3                   	retq   
    9448:	0f 1f 84 00 00 00 00 	nopl   0x0(%rax,%rax,1)
    944f:	00 
    9450:	48 8b 17             	mov    (%rdi),%rdx
    9453:	48 85 d2             	test   %rdx,%rdx
    9456:	74 18                	je     9470 <FcCacheCreateTagFile+0x1c0>
    9458:	48 39 f2             	cmp    %rsi,%rdx
    945b:	75 0b                	jne    9468 <FcCacheCreateTagFile+0x1b8>
    945d:	eb 1c                	jmp    947b <FcCacheCreateTagFile+0x1cb>
    945f:	90                   	nop
    9460:	48 39 f0             	cmp    %rsi,%rax
    9463:	74 13                	je     9478 <FcCacheCreateTagFile+0x1c8>
    9465:	48 89 c2             	mov    %rax,%rdx
    9468:	48 8b 02             	mov    (%rdx),%rax
    946b:	48 85 c0             	test   %rax,%rax
    946e:	75 f0                	jne    9460 <FcCacheCreateTagFile+0x1b0>
    9470:	f3 c3                	repz retq 
    9472:	66 0f 1f 44 00 00    	nopw   0x0(%rax,%rax,1)
    9478:	48 89 d7             	mov    %rdx,%rdi
    947b:	48 8b 06             	mov    (%rsi),%rax
    947e:	48 89 07             	mov    %rax,(%rdi)
    9481:	48 c7 06 00 00 00 00 	movq   $0x0,(%rsi)
    9488:	48 89 f7             	mov    %rsi,%rdi
    948b:	e9 00 1e 01 00       	jmpq   1b290 <FcValueSave+0xc0>
    9490:	55                   	push   %rbp
    9491:	53                   	push   %rbx
    9492:	48 83 ec 08          	sub    $0x8,%rsp
    9496:	e8 f5 22 01 00       	callq  1b790 <FcPatternDestroy+0xa0>
    949b:	48 85 c0             	test   %rax,%rax
    949e:	48 89 c3             	mov    %rax,%rbx
    94a1:	74 1e                	je     94c1 <FcCacheCreateTagFile+0x211>
    94a3:	48 8b 70 08          	mov    0x8(%rax),%rsi
    94a7:	48 85 f6             	test   %rsi,%rsi
    94aa:	74 15                	je     94c1 <FcCacheCreateTagFile+0x211>
    94ac:	48 8d 68 08          	lea    0x8(%rax),%rbp
    94b0:	48 89 ef             	mov    %rbp,%rdi
    94b3:	e8 98 ff ff ff       	callq  9450 <FcCacheCreateTagFile+0x1a0>
    94b8:	48 8b 73 08          	mov    0x8(%rbx),%rsi
    94bc:	48 85 f6             	test   %rsi,%rsi
    94bf:	75 ef                	jne    94b0 <FcCacheCreateTagFile+0x200>
    94c1:	48 83 c4 08          	add    $0x8,%rsp
    94c5:	5b                   	pop    %rbx
    94c6:	5d                   	pop    %rbp
    94c7:	c3                   	retq   
    94c8:	0f 1f 84 00 00 00 00 	nopl   0x0(%rax,%rax,1)
    94cf:	00 
    94d0:	41 57                	push   %r15
    94d2:	49 89 cf             	mov    %rcx,%r15
    94d5:	41 56                	push   %r14
    94d7:	41 89 d6             	mov    %edx,%r14d
    94da:	41 55                	push   %r13
    94dc:	49 89 fd             	mov    %rdi,%r13
    94df:	41 54                	push   %r12
    94e1:	49 89 f4             	mov    %rsi,%r12
    94e4:	55                   	push   %rbp
    94e5:	48 89 cd             	mov    %rcx,%rbp
    94e8:	53                   	push   %rbx
    94e9:	44 89 c3             	mov    %r8d,%ebx
    94ec:	48 83 ec 18          	sub    $0x18,%rsp
    94f0:	48 85 c9             	test   %rcx,%rcx
    94f3:	75 21                	jne    9516 <FcCacheCreateTagFile+0x266>
    94f5:	e9 96 00 00 00       	jmpq   9590 <FcCacheCreateTagFile+0x2e0>
    94fa:	66 0f 1f 44 00 00    	nopw   0x0(%rax,%rax,1)
    9500:	49 8b 07             	mov    (%r15),%rax
    9503:	a8 01                	test   $0x1,%al
    9505:	74 07                	je     950e <FcCacheCreateTagFile+0x25e>
    9507:	48 83 e0 fe          	and    $0xfffffffffffffffe,%rax
    950b:	4c 01 f8             	add    %r15,%rax
    950e:	48 85 c0             	test   %rax,%rax
    9511:	74 7d                	je     9590 <FcCacheCreateTagFile+0x2e0>
    9513:	49 89 c7             	mov    %rax,%r15
    9516:	41 8b 77 08          	mov    0x8(%r15),%esi
    951a:	89 df                	mov    %ebx,%edi
    951c:	e8 8f 0d 01 00       	callq  1a2b0 <FcNameGetObjectType+0x40>
    9521:	85 c0                	test   %eax,%eax
    9523:	75 db                	jne    9500 <FcCacheCreateTagFile+0x250>
    9525:	89 df                	mov    %ebx,%edi
    9527:	e8 74 0e 01 00       	callq  1a3a0 <FcNameGetObjectType+0x130>
    952c:	48 8b 1d ad 1a 23 00 	mov    0x231aad(%rip),%rbx        # 23afe0 <_fini+0x217a54>
    9533:	48 8d 15 c6 a4 01 00 	lea    0x1a4c6(%rip),%rdx        # 23a00 <_fini+0x474>
    953a:	48 89 c1             	mov    %rax,%rcx
    953d:	be 01 00 00 00       	mov    $0x1,%esi
    9542:	31 c0                	xor    %eax,%eax
    9544:	48 8b 3b             	mov    (%rbx),%rdi
    9547:	e8 84 d6 ff ff       	callq  6bd0 <__fprintf_chk@plt>
    954c:	48 8b 3b             	mov    (%rbx),%rdi
    954f:	41 8b 77 08          	mov    0x8(%r15),%esi
    9553:	49 8b 57 10          	mov    0x10(%r15),%rdx
    9557:	e8 b4 52 00 00       	callq  e810 <FcCharSetCoverage+0x1050>
    955c:	48 8b 33             	mov    (%rbx),%rsi
    955f:	bf 0a 00 00 00       	mov    $0xa,%edi
    9564:	31 db                	xor    %ebx,%ebx
    9566:	e8 65 d3 ff ff       	callq  68d0 <fputc@plt>
    956b:	f6 05 de 20 23 00 04 	testb  $0x4,0x2320de(%rip)        # 23b650 <_edata+0x260>
    9572:	0f 85 c0 01 00 00    	jne    9738 <FcCacheCreateTagFile+0x488>
    9578:	48 83 c4 18          	add    $0x18,%rsp
    957c:	89 d8                	mov    %ebx,%eax
    957e:	5b                   	pop    %rbx
    957f:	5d                   	pop    %rbp
    9580:	41 5c                	pop    %r12
    9582:	41 5d                	pop    %r13
    9584:	41 5e                	pop    %r14
    9586:	41 5f                	pop    %r15
    9588:	c3                   	retq   
    9589:	0f 1f 80 00 00 00 00 	nopl   0x0(%rax)
    9590:	31 c9                	xor    %ecx,%ecx
    9592:	4d 85 e4             	test   %r12,%r12
    9595:	74 05                	je     959c <FcCacheCreateTagFile+0x2ec>
    9597:	41 8b 4c 24 18       	mov    0x18(%r12),%ecx
    959c:	48 85 ed             	test   %rbp,%rbp
    959f:	48 89 ea             	mov    %rbp,%rdx
    95a2:	0f 85 cb 00 00 00    	jne    9673 <FcCacheCreateTagFile+0x3c3>
    95a8:	0f 1f 84 00 00 00 00 	nopl   0x0(%rax,%rax,1)
    95af:	00 
    95b0:	45 85 f6             	test   %r14d,%r14d
    95b3:	0f 85 ef 00 00 00    	jne    96a8 <FcCacheCreateTagFile+0x3f8>
    95b9:	4d 85 e4             	test   %r12,%r12
    95bc:	74 12                	je     95d0 <FcCacheCreateTagFile+0x320>
    95be:	49 8b 45 00          	mov    0x0(%r13),%rax
    95c2:	48 85 c0             	test   %rax,%rax
    95c5:	74 09                	je     95d0 <FcCacheCreateTagFile+0x320>
    95c7:	49 39 c4             	cmp    %rax,%r12
    95ca:	0f 85 b9 00 00 00    	jne    9689 <FcCacheCreateTagFile+0x3d9>
    95d0:	4c 89 eb             	mov    %r13,%rbx
    95d3:	f6 05 76 20 23 00 04 	testb  $0x4,0x232076(%rip)        # 23b650 <_edata+0x260>
    95da:	0f 85 20 01 00 00    	jne    9700 <FcCacheCreateTagFile+0x450>
    95e0:	48 85 ed             	test   %rbp,%rbp
    95e3:	74 1f                	je     9604 <FcCacheCreateTagFile+0x354>
    95e5:	48 89 ea             	mov    %rbp,%rdx
    95e8:	eb 09                	jmp    95f3 <FcCacheCreateTagFile+0x343>
    95ea:	66 0f 1f 44 00 00    	nopw   0x0(%rax,%rax,1)
    95f0:	48 89 c2             	mov    %rax,%rdx
    95f3:	48 8b 02             	mov    (%rdx),%rax
    95f6:	48 85 c0             	test   %rax,%rax
    95f9:	75 f5                	jne    95f0 <FcCacheCreateTagFile+0x340>
    95fb:	48 8b 03             	mov    (%rbx),%rax
    95fe:	48 89 02             	mov    %rax,(%rdx)
    9601:	48 89 2b             	mov    %rbp,(%rbx)
    9604:	f6 05 45 20 23 00 04 	testb  $0x4,0x232045(%rip)        # 23b650 <_edata+0x260>
    960b:	bb 01 00 00 00       	mov    $0x1,%ebx
    9610:	0f 84 62 ff ff ff    	je     9578 <FcCacheCreateTagFile+0x2c8>
    9616:	48 8d 05 ba a2 01 00 	lea    0x1a2ba(%rip),%rax        # 238d7 <_fini+0x34b>
    961d:	48 8d 15 ac a2 01 00 	lea    0x1a2ac(%rip),%rdx        # 238d0 <_fini+0x344>
    9624:	45 85 f6             	test   %r14d,%r14d
    9627:	48 8d 35 e1 a2 01 00 	lea    0x1a2e1(%rip),%rsi        # 2390f <_fini+0x383>
    962e:	bf 01 00 00 00       	mov    $0x1,%edi
    9633:	48 0f 44 d0          	cmove  %rax,%rdx
    9637:	31 c0                	xor    %eax,%eax
    9639:	e8 92 d4 ff ff       	callq  6ad0 <__printf_chk@plt>
    963e:	49 8b 7d 00          	mov    0x0(%r13),%rdi
    9642:	e8 29 52 00 00       	callq  e870 <FcValuePrint+0x30>
    9647:	bf 0a 00 00 00       	mov    $0xa,%edi
    964c:	e8 ef ce ff ff       	callq  6540 <putchar@plt>
    9651:	e9 22 ff ff ff       	jmpq   9578 <FcCacheCreateTagFile+0x2c8>
    9656:	89 4a 18             	mov    %ecx,0x18(%rdx)
    9659:	48 8b 02             	mov    (%rdx),%rax
    965c:	a8 01                	test   $0x1,%al
    965e:	74 07                	je     9667 <FcCacheCreateTagFile+0x3b7>
    9660:	48 83 e0 fe          	and    $0xfffffffffffffffe,%rax
    9664:	48 01 d0             	add    %rdx,%rax
    9667:	48 85 c0             	test   %rax,%rax
    966a:	0f 84 40 ff ff ff    	je     95b0 <FcCacheCreateTagFile+0x300>
    9670:	48 89 c2             	mov    %rax,%rdx
    9673:	83 7a 18 02          	cmpl   $0x2,0x18(%rdx)
    9677:	75 e0                	jne    9659 <FcCacheCreateTagFile+0x3a9>
    9679:	eb db                	jmp    9656 <FcCacheCreateTagFile+0x3a6>
    967b:	0f 1f 44 00 00       	nopl   0x0(%rax,%rax,1)
    9680:	49 39 c4             	cmp    %rax,%r12
    9683:	0f 84 4a ff ff ff    	je     95d3 <FcCacheCreateTagFile+0x323>
    9689:	48 89 c3             	mov    %rax,%rbx
    968c:	48 8b 00             	mov    (%rax),%rax
    968f:	48 85 c0             	test   %rax,%rax
    9692:	75 ec                	jne    9680 <FcCacheCreateTagFile+0x3d0>
    9694:	f6 05 b5 1f 23 00 04 	testb  $0x4,0x231fb5(%rip)        # 23b650 <_edata+0x260>
    969b:	0f 84 3f ff ff ff    	je     95e0 <FcCacheCreateTagFile+0x330>
    96a1:	eb 5d                	jmp    9700 <FcCacheCreateTagFile+0x450>
    96a3:	0f 1f 44 00 00       	nopl   0x0(%rax,%rax,1)
    96a8:	4d 85 e4             	test   %r12,%r12
    96ab:	4c 89 e3             	mov    %r12,%rbx
    96ae:	0f 84 95 00 00 00    	je     9749 <FcCacheCreateTagFile+0x499>
    96b4:	f6 05 95 1f 23 00 04 	testb  $0x4,0x231f95(%rip)        # 23b650 <_edata+0x260>
    96bb:	48 8d 15 0e a2 01 00 	lea    0x1a20e(%rip),%rdx        # 238d0 <_fini+0x344>
    96c2:	0f 84 18 ff ff ff    	je     95e0 <FcCacheCreateTagFile+0x330>
    96c8:	0f 1f 84 00 00 00 00 	nopl   0x0(%rax,%rax,1)
    96cf:	00 
    96d0:	48 8d 35 28 a2 01 00 	lea    0x1a228(%rip),%rsi        # 238ff <_fini+0x373>
    96d7:	bf 01 00 00 00       	mov    $0x1,%edi
    96dc:	31 c0                	xor    %eax,%eax
    96de:	e8 ed d3 ff ff       	callq  6ad0 <__printf_chk@plt>
    96e3:	49 8b 7d 00          	mov    0x0(%r13),%rdi
    96e7:	48 8b 33             	mov    (%rbx),%rsi
    96ea:	e8 21 52 00 00       	callq  e910 <FcValuePrint+0xd0>
    96ef:	bf 0a 00 00 00       	mov    $0xa,%edi
    96f4:	e8 47 ce ff ff       	callq  6540 <putchar@plt>
    96f9:	e9 e2 fe ff ff       	jmpq   95e0 <FcCacheCreateTagFile+0x330>
    96fe:	66 90                	xchg   %ax,%ax
    9700:	48 83 3b 00          	cmpq   $0x0,(%rbx)
    9704:	48 8d 15 cc a1 01 00 	lea    0x1a1cc(%rip),%rdx        # 238d7 <_fini+0x34b>
    970b:	75 c3                	jne    96d0 <FcCacheCreateTagFile+0x420>
    970d:	48 8d 3d d6 a1 01 00 	lea    0x1a1d6(%rip),%rdi        # 238ea <_fini+0x35e>
    9714:	48 89 54 24 08       	mov    %rdx,0x8(%rsp)
    9719:	e8 f2 ce ff ff       	callq  6610 <puts@plt>
    971e:	f6 05 2b 1f 23 00 04 	testb  $0x4,0x231f2b(%rip)        # 23b650 <_edata+0x260>
    9725:	48 8b 54 24 08       	mov    0x8(%rsp),%rdx
    972a:	75 a4                	jne    96d0 <FcCacheCreateTagFile+0x420>
    972c:	e9 af fe ff ff       	jmpq   95e0 <FcCacheCreateTagFile+0x330>
    9731:	0f 1f 80 00 00 00 00 	nopl   0x0(%rax)
    9738:	48 8d 3d a0 a1 01 00 	lea    0x1a1a0(%rip),%rdi        # 238df <_fini+0x353>
    973f:	e8 cc ce ff ff       	callq  6610 <puts@plt>
    9744:	e9 2f fe ff ff       	jmpq   9578 <FcCacheCreateTagFile+0x2c8>
    9749:	49 8b 5d 00          	mov    0x0(%r13),%rbx
    974d:	48 85 db             	test   %rbx,%rbx
    9750:	75 09                	jne    975b <FcCacheCreateTagFile+0x4ab>
    9752:	eb 14                	jmp    9768 <FcCacheCreateTagFile+0x4b8>
    9754:	0f 1f 40 00          	nopl   0x0(%rax)
    9758:	48 89 c3             	mov    %rax,%rbx
    975b:	48 8b 03             	mov    (%rbx),%rax
    975e:	48 85 c0             	test   %rax,%rax
    9761:	75 f5                	jne    9758 <FcCacheCreateTagFile+0x4a8>
    9763:	e9 4c ff ff ff       	jmpq   96b4 <FcCacheCreateTagFile+0x404>
    9768:	4c 89 eb             	mov    %r13,%rbx
    976b:	e9 44 ff ff ff       	jmpq   96b4 <FcCacheCreateTagFile+0x404>
    9770:	41 54                	push   %r12
    9772:	48 85 d2             	test   %rdx,%rdx
    9775:	55                   	push   %rbp
    9776:	53                   	push   %rbx
    9777:	48 89 d3             	mov    %rdx,%rbx
    977a:	74 2c                	je     97a8 <FcCacheCreateTagFile+0x4f8>
    977c:	89 f5                	mov    %esi,%ebp
    977e:	41 89 cc             	mov    %ecx,%r12d
    9781:	e8 3a 20 01 00       	callq  1b7c0 <FcPatternDestroy+0xd0>
    9786:	48 85 c0             	test   %rax,%rax
    9789:	74 1d                	je     97a8 <FcCacheCreateTagFile+0x4f8>
    978b:	48 89 d9             	mov    %rbx,%rcx
    978e:	41 89 e8             	mov    %ebp,%r8d
    9791:	44 89 e2             	mov    %r12d,%edx
    9794:	5b                   	pop    %rbx
    9795:	5d                   	pop    %rbp
    9796:	41 5c                	pop    %r12
    9798:	48 8d 78 08          	lea    0x8(%rax),%rdi
    979c:	31 f6                	xor    %esi,%esi
    979e:	e9 2d fd ff ff       	jmpq   94d0 <FcCacheCreateTagFile+0x220>
    97a3:	0f 1f 44 00 00       	nopl   0x0(%rax,%rax,1)
    97a8:	5b                   	pop    %rbx
    97a9:	5d                   	pop    %rbp
    97aa:	41 5c                	pop    %r12
    97ac:	c3                   	retq   
    97ad:	0f 1f 00             	nopl   (%rax)
    97b0:	41 55                	push   %r13
    97b2:	41 54                	push   %r12
    97b4:	49 89 f4             	mov    %rsi,%r12
    97b7:	55                   	push   %rbp
    97b8:	48 89 fd             	mov    %rdi,%rbp
    97bb:	53                   	push   %rbx
    97bc:	48 83 ec 08          	sub    $0x8,%rsp
    97c0:	48 85 ff             	test   %rdi,%rdi
    97c3:	0f 84 9f 00 00 00    	je     9868 <FcCacheCreateTagFile+0x5b8>
    97c9:	e8 72 cf ff ff       	callq  6740 <strlen@plt>
    97ce:	89 c3                	mov    %eax,%ebx
    97d0:	49 89 c5             	mov    %rax,%r13
    97d3:	4c 89 e7             	mov    %r12,%rdi
    97d6:	e8 65 cf ff ff       	callq  6740 <strlen@plt>
    97db:	8d 54 03 05          	lea    0x5(%rbx,%rax,1),%edx
    97df:	83 e2 fc             	and    $0xfffffffc,%edx
    97e2:	48 63 fa             	movslq %edx,%rdi
    97e5:	e8 26 d2 ff ff       	callq  6a10 <malloc@plt>
    97ea:	48 85 c0             	test   %rax,%rax
    97ed:	48 89 c3             	mov    %rax,%rbx
    97f0:	0f 84 8a 00 00 00    	je     9880 <FcCacheCreateTagFile+0x5d0>
    97f6:	49 8d 55 01          	lea    0x1(%r13),%rdx
    97fa:	48 89 ee             	mov    %rbp,%rsi
    97fd:	48 89 c7             	mov    %rax,%rdi
    9800:	e8 ab d1 ff ff       	callq  69b0 <memcpy@plt>
    9805:	80 3b 00             	cmpb   $0x0,(%rbx)
    9808:	75 46                	jne    9850 <FcCacheCreateTagFile+0x5a0>
    980a:	41 80 3c 24 2f       	cmpb   $0x2f,(%r12)
    980f:	74 0a                	je     981b <FcCacheCreateTagFile+0x56b>
    9811:	b8 2f 00 00 00       	mov    $0x2f,%eax
    9816:	66 42 89 04 2b       	mov    %ax,(%rbx,%r13,1)
    981b:	4c 89 e6             	mov    %r12,%rsi
    981e:	48 89 df             	mov    %rbx,%rdi
    9821:	e8 7a d3 ff ff       	callq  6ba0 <strcat@plt>
    9826:	48 89 df             	mov    %rbx,%rdi
    9829:	be 04 00 00 00       	mov    $0x4,%esi
    982e:	e8 fd d2 ff ff       	callq  6b30 <access@plt>
    9833:	85 c0                	test   %eax,%eax
    9835:	48 89 df             	mov    %rbx,%rdi
    9838:	75 4e                	jne    9888 <FcCacheCreateTagFile+0x5d8>
    983a:	48 83 c4 08          	add    $0x8,%rsp
    983e:	48 89 f8             	mov    %rdi,%rax
    9841:	5b                   	pop    %rbx
    9842:	5d                   	pop    %rbp
    9843:	41 5c                	pop    %r12
    9845:	41 5d                	pop    %r13
    9847:	c3                   	retq   
    9848:	0f 1f 84 00 00 00 00 	nopl   0x0(%rax,%rax,1)
    984f:	00 
    9850:	42 80 7c 2b ff 2f    	cmpb   $0x2f,-0x1(%rbx,%r13,1)
    9856:	74 c3                	je     981b <FcCacheCreateTagFile+0x56b>
    9858:	41 80 3c 24 2f       	cmpb   $0x2f,(%r12)
    985d:	75 b2                	jne    9811 <FcCacheCreateTagFile+0x561>
    985f:	eb ba                	jmp    981b <FcCacheCreateTagFile+0x56b>
    9861:	0f 1f 80 00 00 00 00 	nopl   0x0(%rax)
    9868:	31 db                	xor    %ebx,%ebx
    986a:	45 31 ed             	xor    %r13d,%r13d
    986d:	48 8d 2d 5f db 01 00 	lea    0x1db5f(%rip),%rbp        # 273d3 <_fini+0x3e47>
    9874:	e9 5a ff ff ff       	jmpq   97d3 <FcCacheCreateTagFile+0x523>
    9879:	0f 1f 80 00 00 00 00 	nopl   0x0(%rax)
    9880:	31 ff                	xor    %edi,%edi
    9882:	eb b6                	jmp    983a <FcCacheCreateTagFile+0x58a>
    9884:	0f 1f 40 00          	nopl   0x0(%rax)
    9888:	e8 43 45 01 00       	callq  1ddd0 <FcStrFree>
    988d:	31 ff                	xor    %edi,%edi
    988f:	90                   	nop
    9890:	eb a8                	jmp    983a <FcCacheCreateTagFile+0x58a>
    9892:	66 66 66 66 66 2e 0f 	data32 data32 data32 data32 nopw %cs:0x0(%rax,%rax,1)
    9899:	1f 84 00 00 00 00 00 
    98a0:	41 54                	push   %r12
    98a2:	49 89 f4             	mov    %rsi,%r12
    98a5:	55                   	push   %rbp
    98a6:	48 89 fd             	mov    %rdi,%rbp
    98a9:	53                   	push   %rbx
    98aa:	8b 07                	mov    (%rdi),%eax
    98ac:	31 db                	xor    %ebx,%ebx
    98ae:	85 c0                	test   %eax,%eax
    98b0:	7f 12                	jg     98c4 <FcCacheCreateTagFile+0x614>
    98b2:	eb 34                	jmp    98e8 <FcCacheCreateTagFile+0x638>
    98b4:	0f 1f 40 00          	nopl   0x0(%rax)
    98b8:	8d 43 01             	lea    0x1(%rbx),%eax
    98bb:	48 83 c3 01          	add    $0x1,%rbx
    98bf:	39 45 00             	cmp    %eax,0x0(%rbp)
    98c2:	7e 24                	jle    98e8 <FcCacheCreateTagFile+0x638>
    98c4:	48 8b 45 08          	mov    0x8(%rbp),%rax
    98c8:	4c 89 e6             	mov    %r12,%rsi
    98cb:	48 8b 3c d8          	mov    (%rax,%rbx,8),%rdi
    98cf:	e8 ac de 00 00       	callq  17780 <FcObjectSetBuild+0xd0>
    98d4:	85 c0                	test   %eax,%eax
    98d6:	74 e0                	je     98b8 <FcCacheCreateTagFile+0x608>
    98d8:	5b                   	pop    %rbx
    98d9:	5d                   	pop    %rbp
    98da:	b8 01 00 00 00       	mov    $0x1,%eax
    98df:	41 5c                	pop    %r12
    98e1:	c3                   	retq   
    98e2:	66 0f 1f 44 00 00    	nopw   0x0(%rax,%rax,1)
    98e8:	5b                   	pop    %rbx
    98e9:	5d                   	pop    %rbp
    98ea:	31 c0                	xor    %eax,%eax
    98ec:	41 5c                	pop    %r12
    98ee:	c3                   	retq   
    98ef:	90                   	nop
    98f0:	53                   	push   %rbx
    98f1:	49 89 f0             	mov    %rsi,%r8
    98f4:	48 89 fb             	mov    %rdi,%rbx
    98f7:	48 83 ec 10          	sub    $0x10,%rsp
    98fb:	83 ff 01             	cmp    $0x1,%edi
    98fe:	74 70                	je     9970 <FcCacheCreateTagFile+0x6c0>
    9900:	85 ff                	test   %edi,%edi
    9902:	74 2c                	je     9930 <FcCacheCreateTagFile+0x680>
    9904:	48 85 c9             	test   %rcx,%rcx
    9907:	74 05                	je     990e <FcCacheCreateTagFile+0x65e>
    9909:	83 ff 03             	cmp    $0x3,%edi
    990c:	74 42                	je     9950 <FcCacheCreateTagFile+0x6a0>
    990e:	48 b8 00 00 00 00 ff 	movabs $0xffffffff00000000,%rax
    9915:	ff ff ff 
    9918:	89 ff                	mov    %edi,%edi
    991a:	48 83 c4 10          	add    $0x10,%rsp
    991e:	48 21 d8             	and    %rbx,%rax
    9921:	4c 89 c2             	mov    %r8,%rdx
    9924:	48 09 f8             	or     %rdi,%rax
    9927:	5b                   	pop    %rbx
    9928:	c3                   	retq   
    9929:	0f 1f 80 00 00 00 00 	nopl   0x0(%rax)
    9930:	48 8d 05 e9 66 02 00 	lea    0x266e9(%rip),%rax        # 30020 <_fini+0xca94>
    9937:	83 fa 05             	cmp    $0x5,%edx
    993a:	4c 0f 44 c0          	cmove  %rax,%r8
    993e:	b8 05 00 00 00       	mov    $0x5,%eax
    9943:	0f 44 f8             	cmove  %eax,%edi
    9946:	eb c6                	jmp    990e <FcCacheCreateTagFile+0x65e>
    9948:	0f 1f 84 00 00 00 00 	nopl   0x0(%rax,%rax,1)
    994f:	00 
    9950:	83 fa 08             	cmp    $0x8,%edx
    9953:	75 b9                	jne    990e <FcCacheCreateTagFile+0x65e>
    9955:	4c 89 c7             	mov    %r8,%rdi
    9958:	48 89 ce             	mov    %rcx,%rsi
    995b:	e8 50 d2 00 00       	callq  16bb0 <FcLangSetCompare+0x110>
    9960:	bf 08 00 00 00       	mov    $0x8,%edi
    9965:	49 89 c0             	mov    %rax,%r8
    9968:	eb a4                	jmp    990e <FcCacheCreateTagFile+0x65e>
    996a:	66 0f 1f 44 00 00    	nopw   0x0(%rax,%rax,1)
    9970:	f2 0f 2a c6          	cvtsi2sd %esi,%xmm0
    9974:	40 b7 02             	mov    $0x2,%dil
    9977:	f2 0f 11 44 24 08    	movsd  %xmm0,0x8(%rsp)
    997d:	4c 8b 44 24 08       	mov    0x8(%rsp),%r8
    9982:	eb 8a                	jmp    990e <FcCacheCreateTagFile+0x65e>
    9984:	66 66 66 2e 0f 1f 84 	data32 data32 nopw %cs:0x0(%rax,%rax,1)
    998b:	00 00 00 00 00 

0000000000009990 <FcConfigCreate>:
    9990:	53                   	push   %rbx
    9991:	bf 98 00 00 00       	mov    $0x98,%edi
    9996:	e8 75 d0 ff ff       	callq  6a10 <malloc@plt>
    999b:	48 85 c0             	test   %rax,%rax
    999e:	48 89 c3             	mov    %rax,%rbx
    99a1:	0f 84 49 01 00 00    	je     9af0 <FcConfigCreate+0x160>
    99a7:	e8 24 55 01 00       	callq  1eed0 <FcStrSetCreate>
    99ac:	48 85 c0             	test   %rax,%rax
    99af:	48 89 03             	mov    %rax,(%rbx)
    99b2:	0f 84 29 01 00 00    	je     9ae1 <FcConfigCreate+0x151>
    99b8:	e8 13 55 01 00       	callq  1eed0 <FcStrSetCreate>
    99bd:	48 85 c0             	test   %rax,%rax
    99c0:	48 89 43 20          	mov    %rax,0x20(%rbx)
    99c4:	0f 84 0f 01 00 00    	je     9ad9 <FcConfigCreate+0x149>
    99ca:	e8 01 55 01 00       	callq  1eed0 <FcStrSetCreate>
    99cf:	48 85 c0             	test   %rax,%rax
    99d2:	48 89 43 10          	mov    %rax,0x10(%rbx)
    99d6:	0f 84 f4 00 00 00    	je     9ad0 <FcConfigCreate+0x140>
    99dc:	e8 ef 54 01 00       	callq  1eed0 <FcStrSetCreate>
    99e1:	48 85 c0             	test   %rax,%rax
    99e4:	48 89 43 48          	mov    %rax,0x48(%rbx)
    99e8:	0f 84 d9 00 00 00    	je     9ac7 <FcConfigCreate+0x137>
    99ee:	e8 dd 54 01 00       	callq  1eed0 <FcStrSetCreate>
    99f3:	48 85 c0             	test   %rax,%rax
    99f6:	48 89 43 50          	mov    %rax,0x50(%rbx)
    99fa:	0f 84 be 00 00 00    	je     9abe <FcConfigCreate+0x12e>
    9a00:	e8 cb b3 00 00       	callq  14dd0 <FcFontSetCreate>
    9a05:	48 85 c0             	test   %rax,%rax
    9a08:	48 89 43 58          	mov    %rax,0x58(%rbx)
    9a0c:	0f 84 a3 00 00 00    	je     9ab5 <FcConfigCreate+0x125>
    9a12:	e8 b9 b3 00 00       	callq  14dd0 <FcFontSetCreate>
    9a17:	48 85 c0             	test   %rax,%rax
    9a1a:	48 89 43 60          	mov    %rax,0x60(%rbx)
    9a1e:	0f 84 88 00 00 00    	je     9aac <FcConfigCreate+0x11c>
    9a24:	e8 a7 54 01 00       	callq  1eed0 <FcStrSetCreate>
    9a29:	48 85 c0             	test   %rax,%rax
    9a2c:	48 89 43 18          	mov    %rax,0x18(%rbx)
    9a30:	74 71                	je     9aa3 <FcConfigCreate+0x113>
    9a32:	31 ff                	xor    %edi,%edi
    9a34:	48 c7 43 08 00 00 00 	movq   $0x0,0x8(%rbx)
    9a3b:	00 
    9a3c:	48 c7 43 28 00 00 00 	movq   $0x0,0x28(%rbx)
    9a43:	00 
    9a44:	48 c7 43 30 00 00 00 	movq   $0x0,0x30(%rbx)
    9a4b:	00 
    9a4c:	48 c7 43 38 00 00 00 	movq   $0x0,0x38(%rbx)
    9a53:	00 
    9a54:	c7 43 40 00 00 00 00 	movl   $0x0,0x40(%rbx)
    9a5b:	48 c7 43 68 00 00 00 	movq   $0x0,0x68(%rbx)
    9a62:	00 
    9a63:	48 c7 43 70 00 00 00 	movq   $0x0,0x70(%rbx)
    9a6a:	00 
    9a6b:	e8 60 cf ff ff       	callq  69d0 <time@plt>
    9a70:	c7 83 80 00 00 00 1e 	movl   $0x1e,0x80(%rbx)
    9a77:	00 00 00 
    9a7a:	48 89 43 78          	mov    %rax,0x78(%rbx)
    9a7e:	48 89 d8             	mov    %rbx,%rax
    9a81:	48 c7 83 88 00 00 00 	movq   $0x0,0x88(%rbx)
    9a88:	00 00 00 00 
    9a8c:	48 c7 83 90 00 00 00 	movq   $0x0,0x90(%rbx)
    9a93:	00 00 00 00 
    9a97:	c7 83 84 00 00 00 01 	movl   $0x1,0x84(%rbx)
    9a9e:	00 00 00 
    9aa1:	5b                   	pop    %rbx
    9aa2:	c3                   	retq   
    9aa3:	48 8b 7b 60          	mov    0x60(%rbx),%rdi
    9aa7:	e8 54 b3 00 00       	callq  14e00 <FcFontSetDestroy>
    9aac:	48 8b 7b 58          	mov    0x58(%rbx),%rdi
    9ab0:	e8 4b b3 00 00       	callq  14e00 <FcFontSetDestroy>
    9ab5:	48 8b 7b 50          	mov    0x50(%rbx),%rdi
    9ab9:	e8 a2 58 01 00       	callq  1f360 <FcStrSetDestroy>
    9abe:	48 8b 7b 48          	mov    0x48(%rbx),%rdi
    9ac2:	e8 99 58 01 00       	callq  1f360 <FcStrSetDestroy>
    9ac7:	48 8b 7b 10          	mov    0x10(%rbx),%rdi
    9acb:	e8 90 58 01 00       	callq  1f360 <FcStrSetDestroy>
    9ad0:	48 8b 7b 20          	mov    0x20(%rbx),%rdi
    9ad4:	e8 87 58 01 00       	callq  1f360 <FcStrSetDestroy>
    9ad9:	48 8b 3b             	mov    (%rbx),%rdi
    9adc:	e8 7f 58 01 00       	callq  1f360 <FcStrSetDestroy>
    9ae1:	48 89 df             	mov    %rbx,%rdi
    9ae4:	e8 47 ca ff ff       	callq  6530 <free@plt>
    9ae9:	31 c0                	xor    %eax,%eax
    9aeb:	5b                   	pop    %rbx
    9aec:	c3                   	retq   
    9aed:	0f 1f 00             	nopl   (%rax)
    9af0:	31 c0                	xor    %eax,%eax
    9af2:	5b                   	pop    %rbx
    9af3:	c3                   	retq   
    9af4:	66 66 66 2e 0f 1f 84 	data32 data32 nopw %cs:0x0(%rax,%rax,1)
    9afb:	00 00 00 00 00 
    9b00:	55                   	push   %rbp
    9b01:	48 89 fd             	mov    %rdi,%rbp
    9b04:	53                   	push   %rbx
    9b05:	48 83 ec 08          	sub    $0x8,%rsp
    9b09:	48 8b 9f 88 00 00 00 	mov    0x88(%rdi),%rbx
    9b10:	48 85 db             	test   %rbx,%rbx
    9b13:	74 23                	je     9b38 <FcConfigCreate+0x1a8>
    9b15:	48 8b 43 08          	mov    0x8(%rbx),%rax
    9b19:	48 8d 93 f0 1f 00 00 	lea    0x1ff0(%rbx),%rdx
    9b20:	48 39 d0             	cmp    %rdx,%rax
    9b23:	74 13                	je     9b38 <FcConfigCreate+0x1a8>
    9b25:	48 8d 50 18          	lea    0x18(%rax),%rdx
    9b29:	48 89 53 08          	mov    %rdx,0x8(%rbx)
    9b2d:	48 83 c4 08          	add    $0x8,%rsp
    9b31:	5b                   	pop    %rbx
    9b32:	5d                   	pop    %rbp
    9b33:	c3                   	retq   
    9b34:	0f 1f 40 00          	nopl   0x0(%rax)
    9b38:	bf f0 1f 00 00       	mov    $0x1ff0,%edi
    9b3d:	e8 ce ce ff ff       	callq  6a10 <malloc@plt>
    9b42:	48 85 c0             	test   %rax,%rax
    9b45:	48 89 c2             	mov    %rax,%rdx
    9b48:	74 17                	je     9b61 <FcConfigCreate+0x1d1>
    9b4a:	48 89 18             	mov    %rbx,(%rax)
    9b4d:	48 8d 40 10          	lea    0x10(%rax),%rax
    9b51:	48 89 d3             	mov    %rdx,%rbx
    9b54:	48 89 42 08          	mov    %rax,0x8(%rdx)
    9b58:	48 89 95 88 00 00 00 	mov    %rdx,0x88(%rbp)
    9b5f:	eb c4                	jmp    9b25 <FcConfigCreate+0x195>
    9b61:	31 c0                	xor    %eax,%eax
    9b63:	eb c8                	jmp    9b2d <FcConfigCreate+0x19d>
    9b65:	66 66 2e 0f 1f 84 00 	data32 nopw %cs:0x0(%rax,%rax,1)
    9b6c:	00 00 00 00 

0000000000009b70 <FcConfigDestroy>:
    9b70:	55                   	push   %rbp
    9b71:	53                   	push   %rbx
    9b72:	48 89 fb             	mov    %rdi,%rbx
    9b75:	48 83 ec 08          	sub    $0x8,%rsp
    9b79:	f0 83 af 84 00 00 00 	lock subl $0x1,0x84(%rdi)
    9b80:	01 
    9b81:	74 0d                	je     9b90 <FcConfigDestroy+0x20>
    9b83:	48 83 c4 08          	add    $0x8,%rsp
    9b87:	5b                   	pop    %rbx
    9b88:	5d                   	pop    %rbp
    9b89:	c3                   	retq   
    9b8a:	66 0f 1f 44 00 00    	nopw   0x0(%rax,%rax,1)
    9b90:	31 d2                	xor    %edx,%edx
    9b92:	48 89 f8             	mov    %rdi,%rax
    9b95:	f0 48 0f b1 15 22 19 	lock cmpxchg %rdx,0x231922(%rip)        # 23b4c0 <_edata+0xd0>
    9b9c:	23 00 
    9b9e:	48 8b 3f             	mov    (%rdi),%rdi
    9ba1:	e8 ba 57 01 00       	callq  1f360 <FcStrSetDestroy>
    9ba6:	48 8b 7b 10          	mov    0x10(%rbx),%rdi
    9baa:	e8 b1 57 01 00       	callq  1f360 <FcStrSetDestroy>
    9baf:	48 8b 7b 18          	mov    0x18(%rbx),%rdi
    9bb3:	e8 a8 57 01 00       	callq  1f360 <FcStrSetDestroy>
    9bb8:	48 8b 7b 20          	mov    0x20(%rbx),%rdi
    9bbc:	e8 9f 57 01 00       	callq  1f360 <FcStrSetDestroy>
    9bc1:	48 8b 7b 48          	mov    0x48(%rbx),%rdi
    9bc5:	e8 96 57 01 00       	callq  1f360 <FcStrSetDestroy>
    9bca:	48 8b 7b 50          	mov    0x50(%rbx),%rdi
    9bce:	e8 8d 57 01 00       	callq  1f360 <FcStrSetDestroy>
    9bd3:	48 8b 7b 58          	mov    0x58(%rbx),%rdi
    9bd7:	e8 24 b2 00 00       	callq  14e00 <FcFontSetDestroy>
    9bdc:	48 8b 7b 60          	mov    0x60(%rbx),%rdi
    9be0:	e8 1b b2 00 00       	callq  14e00 <FcFontSetDestroy>
    9be5:	48 8b 7b 08          	mov    0x8(%rbx),%rdi
    9be9:	48 85 ff             	test   %rdi,%rdi
    9bec:	74 05                	je     9bf3 <FcConfigDestroy+0x83>
    9bee:	e8 ad d4 ff ff       	callq  70a0 <FcBlanksDestroy>
    9bf3:	48 8b 7b 28          	mov    0x28(%rbx),%rdi
    9bf7:	e8 14 f8 ff ff       	callq  9410 <FcCacheCreateTagFile+0x160>
    9bfc:	48 8b 7b 30          	mov    0x30(%rbx),%rdi
    9c00:	e8 0b f8 ff ff       	callq  9410 <FcCacheCreateTagFile+0x160>
    9c05:	48 8b 7b 38          	mov    0x38(%rbx),%rdi
    9c09:	e8 02 f8 ff ff       	callq  9410 <FcCacheCreateTagFile+0x160>
    9c0e:	48 8b 7b 68          	mov    0x68(%rbx),%rdi
    9c12:	48 85 ff             	test   %rdi,%rdi
    9c15:	74 05                	je     9c1c <FcConfigDestroy+0xac>
    9c17:	e8 e4 b1 00 00       	callq  14e00 <FcFontSetDestroy>
    9c1c:	48 8b 7b 70          	mov    0x70(%rbx),%rdi
    9c20:	48 85 ff             	test   %rdi,%rdi
    9c23:	74 05                	je     9c2a <FcConfigDestroy+0xba>
    9c25:	e8 d6 b1 00 00       	callq  14e00 <FcFontSetDestroy>
    9c2a:	48 8b bb 88 00 00 00 	mov    0x88(%rbx),%rdi
    9c31:	48 85 ff             	test   %rdi,%rdi
    9c34:	75 0d                	jne    9c43 <FcConfigDestroy+0xd3>
    9c36:	eb 18                	jmp    9c50 <FcConfigDestroy+0xe0>
    9c38:	0f 1f 84 00 00 00 00 	nopl   0x0(%rax,%rax,1)
    9c3f:	00 
    9c40:	48 89 ef             	mov    %rbp,%rdi
    9c43:	48 8b 2f             	mov    (%rdi),%rbp
    9c46:	e8 e5 c8 ff ff       	callq  6530 <free@plt>
    9c4b:	48 85 ed             	test   %rbp,%rbp
    9c4e:	75 f0                	jne    9c40 <FcConfigDestroy+0xd0>
    9c50:	48 8b bb 90 00 00 00 	mov    0x90(%rbx),%rdi
    9c57:	48 85 ff             	test   %rdi,%rdi
    9c5a:	74 05                	je     9c61 <FcConfigDestroy+0xf1>
    9c5c:	e8 6f 41 01 00       	callq  1ddd0 <FcStrFree>
    9c61:	48 83 c4 08          	add    $0x8,%rsp
    9c65:	48 89 df             	mov    %rbx,%rdi
    9c68:	5b                   	pop    %rbx
    9c69:	5d                   	pop    %rbp
    9c6a:	e9 c1 c8 ff ff       	jmpq   6530 <free@plt>
    9c6f:	90                   	nop
    9c70:	53                   	push   %rbx
    9c71:	31 db                	xor    %ebx,%ebx
    9c73:	0f ae f0             	mfence 
    9c76:	48 8b 3d 43 18 23 00 	mov    0x231843(%rip),%rdi        # 23b4c0 <_edata+0xd0>
    9c7d:	48 85 ff             	test   %rdi,%rdi
    9c80:	75 16                	jne    9c98 <FcConfigDestroy+0x128>
    9c82:	e8 b9 bd 00 00       	callq  15a40 <FcInitLoadConfigAndFonts>
    9c87:	48 89 c7             	mov    %rax,%rdi
    9c8a:	48 89 d8             	mov    %rbx,%rax
    9c8d:	f0 48 0f b1 3d 2a 18 	lock cmpxchg %rdi,0x23182a(%rip)        # 23b4c0 <_edata+0xd0>
    9c94:	23 00 
    9c96:	75 05                	jne    9c9d <FcConfigDestroy+0x12d>
    9c98:	48 89 f8             	mov    %rdi,%rax
    9c9b:	5b                   	pop    %rbx
    9c9c:	c3                   	retq   
    9c9d:	e8 ce fe ff ff       	callq  9b70 <FcConfigDestroy>
    9ca2:	eb cf                	jmp    9c73 <FcConfigDestroy+0x103>
    9ca4:	66 66 66 2e 0f 1f 84 	data32 data32 nopw %cs:0x0(%rax,%rax,1)
    9cab:	00 00 00 00 00 
    9cb0:	48 83 ec 08          	sub    $0x8,%rsp
    9cb4:	e8 b7 ff ff ff       	callq  9c70 <FcConfigDestroy+0x100>
    9cb9:	48 85 c0             	test   %rax,%rax
    9cbc:	0f 95 c0             	setne  %al
    9cbf:	48 83 c4 08          	add    $0x8,%rsp
    9cc3:	0f b6 c0             	movzbl %al,%eax
    9cc6:	c3                   	retq   
    9cc7:	66 0f 1f 84 00 00 00 	nopw   0x0(%rax,%rax,1)
    9cce:	00 00 

0000000000009cd0 <FcConfigUptoDate>:
    9cd0:	41 57                	push   %r15
    9cd2:	41 56                	push   %r14
    9cd4:	41 55                	push   %r13
    9cd6:	41 54                	push   %r12
    9cd8:	55                   	push   %rbp
    9cd9:	53                   	push   %rbx
    9cda:	48 89 fb             	mov    %rdi,%rbx
    9cdd:	31 ff                	xor    %edi,%edi
    9cdf:	48 83 ec 08          	sub    $0x8,%rsp
    9ce3:	e8 e8 cc ff ff       	callq  69d0 <time@plt>
    9ce8:	48 85 db             	test   %rbx,%rbx
    9ceb:	48 89 c5             	mov    %rax,%rbp
    9cee:	0f 84 ec 00 00 00    	je     9de0 <FcConfigUptoDate+0x110>
    9cf4:	48 8b 7b 20          	mov    0x20(%rbx),%rdi
    9cf8:	e8 73 f6 ff ff       	callq  9370 <FcCacheCreateTagFile+0xc0>
    9cfd:	48 8b 3b             	mov    (%rbx),%rdi
    9d00:	49 89 d4             	mov    %rdx,%r12
    9d03:	49 89 c6             	mov    %rax,%r14
    9d06:	e8 65 f6 ff ff       	callq  9370 <FcCacheCreateTagFile+0xc0>
    9d0b:	48 8b 7b 10          	mov    0x10(%rbx),%rdi
    9d0f:	49 89 c7             	mov    %rax,%r15
    9d12:	49 89 d5             	mov    %rdx,%r13
    9d15:	e8 56 f6 ff ff       	callq  9370 <FcCacheCreateTagFile+0xc0>
    9d1a:	45 85 e4             	test   %r12d,%r12d
    9d1d:	74 51                	je     9d70 <FcConfigUptoDate+0xa0>
    9d1f:	4c 89 f1             	mov    %r14,%rcx
    9d22:	48 2b 4b 78          	sub    0x78(%rbx),%rcx
    9d26:	48 85 c9             	test   %rcx,%rcx
    9d29:	7e 45                	jle    9d70 <FcConfigUptoDate+0xa0>
    9d2b:	49 29 ee             	sub    %rbp,%r14
    9d2e:	4d 85 f6             	test   %r14,%r14
    9d31:	7e 53                	jle    9d86 <FcConfigUptoDate+0xb6>
    9d33:	48 8b 05 a6 12 23 00 	mov    0x2312a6(%rip),%rax        # 23afe0 <_fini+0x217a54>
    9d3a:	48 8d 3d ff 9c 01 00 	lea    0x19cff(%rip),%rdi        # 23a40 <_fini+0x4b4>
    9d41:	ba 57 00 00 00       	mov    $0x57,%edx
    9d46:	be 01 00 00 00       	mov    $0x1,%esi
    9d4b:	48 8b 08             	mov    (%rax),%rcx
    9d4e:	e8 6d ce ff ff       	callq  6bc0 <fwrite@plt>
    9d53:	48 89 6b 78          	mov    %rbp,0x78(%rbx)
    9d57:	48 83 c4 08          	add    $0x8,%rsp
    9d5b:	b8 01 00 00 00       	mov    $0x1,%eax
    9d60:	5b                   	pop    %rbx
    9d61:	5d                   	pop    %rbp
    9d62:	41 5c                	pop    %r12
    9d64:	41 5d                	pop    %r13
    9d66:	41 5e                	pop    %r14
    9d68:	41 5f                	pop    %r15
    9d6a:	c3                   	retq   
    9d6b:	0f 1f 44 00 00       	nopl   0x0(%rax,%rax,1)
    9d70:	45 85 ed             	test   %r13d,%r13d
    9d73:	74 3b                	je     9db0 <FcConfigUptoDate+0xe0>
    9d75:	4c 89 f9             	mov    %r15,%rcx
    9d78:	48 2b 4b 78          	sub    0x78(%rbx),%rcx
    9d7c:	48 85 c9             	test   %rcx,%rcx
    9d7f:	7e 2f                	jle    9db0 <FcConfigUptoDate+0xe0>
    9d81:	45 85 e4             	test   %r12d,%r12d
    9d84:	75 a5                	jne    9d2b <FcConfigUptoDate+0x5b>
    9d86:	45 85 ed             	test   %r13d,%r13d
    9d89:	74 08                	je     9d93 <FcConfigUptoDate+0xc3>
    9d8b:	49 29 ef             	sub    %rbp,%r15
    9d8e:	4d 85 ff             	test   %r15,%r15
    9d91:	7f a0                	jg     9d33 <FcConfigUptoDate+0x63>
    9d93:	85 d2                	test   %edx,%edx
    9d95:	74 08                	je     9d9f <FcConfigUptoDate+0xcf>
    9d97:	48 29 e8             	sub    %rbp,%rax
    9d9a:	48 85 c0             	test   %rax,%rax
    9d9d:	7f 94                	jg     9d33 <FcConfigUptoDate+0x63>
    9d9f:	31 c0                	xor    %eax,%eax
    9da1:	48 83 c4 08          	add    $0x8,%rsp
    9da5:	5b                   	pop    %rbx
    9da6:	5d                   	pop    %rbp
    9da7:	41 5c                	pop    %r12
    9da9:	41 5d                	pop    %r13
    9dab:	41 5e                	pop    %r14
    9dad:	41 5f                	pop    %r15
    9daf:	c3                   	retq   
    9db0:	85 d2                	test   %edx,%edx
    9db2:	74 0c                	je     9dc0 <FcConfigUptoDate+0xf0>
    9db4:	48 89 c1             	mov    %rax,%rcx
    9db7:	48 2b 4b 78          	sub    0x78(%rbx),%rcx
    9dbb:	48 85 c9             	test   %rcx,%rcx
    9dbe:	7f c1                	jg     9d81 <FcConfigUptoDate+0xb1>
    9dc0:	48 89 6b 78          	mov    %rbp,0x78(%rbx)
    9dc4:	48 83 c4 08          	add    $0x8,%rsp
    9dc8:	b8 01 00 00 00       	mov    $0x1,%eax
    9dcd:	5b                   	pop    %rbx
    9dce:	5d                   	pop    %rbp
    9dcf:	41 5c                	pop    %r12
    9dd1:	41 5d                	pop    %r13
    9dd3:	41 5e                	pop    %r14
    9dd5:	41 5f                	pop    %r15
    9dd7:	c3                   	retq   
    9dd8:	0f 1f 84 00 00 00 00 	nopl   0x0(%rax,%rax,1)
    9ddf:	00 
    9de0:	e8 8b fe ff ff       	callq  9c70 <FcConfigDestroy+0x100>
    9de5:	48 85 c0             	test   %rax,%rax
    9de8:	48 89 c3             	mov    %rax,%rbx
    9deb:	0f 85 03 ff ff ff    	jne    9cf4 <FcConfigUptoDate+0x24>
    9df1:	31 c0                	xor    %eax,%eax
    9df3:	eb ac                	jmp    9da1 <FcConfigUptoDate+0xd1>
    9df5:	66 66 2e 0f 1f 84 00 	data32 nopw %cs:0x0(%rax,%rax,1)
    9dfc:	00 00 00 00 

0000000000009e00 <FcConfigReference>:
    9e00:	48 83 ec 08          	sub    $0x8,%rsp
    9e04:	48 85 ff             	test   %rdi,%rdi
    9e07:	74 17                	je     9e20 <FcConfigReference+0x20>
    9e09:	f0 83 87 84 00 00 00 	lock addl $0x1,0x84(%rdi)
    9e10:	01 
    9e11:	48 89 f8             	mov    %rdi,%rax
    9e14:	48 83 c4 08          	add    $0x8,%rsp
    9e18:	c3                   	retq   
    9e19:	0f 1f 80 00 00 00 00 	nopl   0x0(%rax)
    9e20:	e8 4b fe ff ff       	callq  9c70 <FcConfigDestroy+0x100>
    9e25:	48 85 c0             	test   %rax,%rax
    9e28:	48 89 c7             	mov    %rax,%rdi
    9e2b:	75 dc                	jne    9e09 <FcConfigReference+0x9>
    9e2d:	31 c0                	xor    %eax,%eax
    9e2f:	eb e3                	jmp    9e14 <FcConfigReference+0x14>
    9e31:	66 66 66 66 66 66 2e 	data32 data32 data32 data32 data32 nopw %cs:0x0(%rax,%rax,1)
    9e38:	0f 1f 84 00 00 00 00 
    9e3f:	00 
    9e40:	0f ae f0             	mfence 
    9e43:	48 8b 3d 76 16 23 00 	mov    0x231676(%rip),%rdi        # 23b4c0 <_edata+0xd0>
    9e4a:	48 85 ff             	test   %rdi,%rdi
    9e4d:	74 19                	je     9e68 <FcConfigReference+0x68>
    9e4f:	31 d2                	xor    %edx,%edx
    9e51:	48 89 f8             	mov    %rdi,%rax
    9e54:	f0 48 0f b1 15 63 16 	lock cmpxchg %rdx,0x231663(%rip)        # 23b4c0 <_edata+0xd0>
    9e5b:	23 00 
    9e5d:	75 09                	jne    9e68 <FcConfigReference+0x68>
    9e5f:	e9 0c fd ff ff       	jmpq   9b70 <FcConfigDestroy>
    9e64:	0f 1f 40 00          	nopl   0x0(%rax)
    9e68:	f3 c3                	repz retq 
    9e6a:	66 0f 1f 44 00 00    	nopw   0x0(%rax,%rax,1)

0000000000009e70 <FcConfigGetCurrent>:
    9e70:	e9 fb fd ff ff       	jmpq   9c70 <FcConfigDestroy+0x100>
    9e75:	66 66 2e 0f 1f 84 00 	data32 nopw %cs:0x0(%rax,%rax,1)
    9e7c:	00 00 00 00 
    9e80:	48 8b 3f             	mov    (%rdi),%rdi
    9e83:	e9 f8 58 01 00       	jmpq   1f780 <FcStrSetAddFilename>
    9e88:	0f 1f 84 00 00 00 00 	nopl   0x0(%rax,%rax,1)
    9e8f:	00 

0000000000009e90 <FcConfigGetConfigDirs>:
    9e90:	48 85 ff             	test   %rdi,%rdi
    9e93:	74 0b                	je     9ea0 <FcConfigGetConfigDirs+0x10>
    9e95:	48 8b 3f             	mov    (%rdi),%rdi
    9e98:	e9 33 55 01 00       	jmpq   1f3d0 <FcStrListCreate>
    9e9d:	0f 1f 00             	nopl   (%rax)
    9ea0:	48 83 ec 08          	sub    $0x8,%rsp
    9ea4:	e8 c7 fd ff ff       	callq  9c70 <FcConfigDestroy+0x100>
    9ea9:	48 85 c0             	test   %rax,%rax
    9eac:	74 0c                	je     9eba <FcConfigGetConfigDirs+0x2a>
    9eae:	48 8b 38             	mov    (%rax),%rdi
    9eb1:	48 83 c4 08          	add    $0x8,%rsp
    9eb5:	e9 16 55 01 00       	jmpq   1f3d0 <FcStrListCreate>
    9eba:	31 c0                	xor    %eax,%eax
    9ebc:	48 83 c4 08          	add    $0x8,%rsp
    9ec0:	c3                   	retq   
    9ec1:	66 66 66 66 66 66 2e 	data32 data32 data32 data32 data32 nopw %cs:0x0(%rax,%rax,1)
    9ec8:	0f 1f 84 00 00 00 00 
    9ecf:	00 
    9ed0:	48 8b 7f 10          	mov    0x10(%rdi),%rdi
    9ed4:	e9 a7 58 01 00       	jmpq   1f780 <FcStrSetAddFilename>
    9ed9:	0f 1f 80 00 00 00 00 	nopl   0x0(%rax)
    9ee0:	55                   	push   %rbp
    9ee1:	48 89 fd             	mov    %rdi,%rbp
    9ee4:	53                   	push   %rbx
    9ee5:	48 89 f3             	mov    %rsi,%rbx
    9ee8:	48 83 ec 08          	sub    $0x8,%rsp
    9eec:	48 8b 3f             	mov    (%rdi),%rdi
    9eef:	e8 8c 58 01 00       	callq  1f780 <FcStrSetAddFilename>
    9ef4:	31 d2                	xor    %edx,%edx
    9ef6:	85 c0                	test   %eax,%eax
    9ef8:	74 13                	je     9f0d <FcConfigGetConfigDirs+0x7d>
    9efa:	48 8b 7d 10          	mov    0x10(%rbp),%rdi
    9efe:	48 89 de             	mov    %rbx,%rsi
    9f01:	e8 7a 58 01 00       	callq  1f780 <FcStrSetAddFilename>
    9f06:	31 d2                	xor    %edx,%edx
    9f08:	85 c0                	test   %eax,%eax
    9f0a:	0f 95 c2             	setne  %dl
    9f0d:	48 83 c4 08          	add    $0x8,%rsp
    9f11:	89 d0                	mov    %edx,%eax
    9f13:	5b                   	pop    %rbx
    9f14:	5d                   	pop    %rbp
    9f15:	c3                   	retq   
    9f16:	66 2e 0f 1f 84 00 00 	nopw   %cs:0x0(%rax,%rax,1)
    9f1d:	00 00 00 

0000000000009f20 <FcConfigGetFontDirs>:
    9f20:	48 85 ff             	test   %rdi,%rdi
    9f23:	74 0b                	je     9f30 <FcConfigGetFontDirs+0x10>
    9f25:	48 8b 7f 10          	mov    0x10(%rdi),%rdi
    9f29:	e9 a2 54 01 00       	jmpq   1f3d0 <FcStrListCreate>
    9f2e:	66 90                	xchg   %ax,%ax
    9f30:	48 83 ec 08          	sub    $0x8,%rsp
    9f34:	e8 37 fd ff ff       	callq  9c70 <FcConfigDestroy+0x100>
    9f39:	48 85 c0             	test   %rax,%rax
    9f3c:	74 0d                	je     9f4b <FcConfigGetFontDirs+0x2b>
    9f3e:	48 8b 78 10          	mov    0x10(%rax),%rdi
    9f42:	48 83 c4 08          	add    $0x8,%rsp
    9f46:	e9 85 54 01 00       	jmpq   1f3d0 <FcStrListCreate>
    9f4b:	31 c0                	xor    %eax,%eax
    9f4d:	48 83 c4 08          	add    $0x8,%rsp
    9f51:	c3                   	retq   
    9f52:	66 66 66 66 66 2e 0f 	data32 data32 data32 data32 nopw %cs:0x0(%rax,%rax,1)
    9f59:	1f 84 00 00 00 00 00 
    9f60:	48 8b 7f 18          	mov    0x18(%rdi),%rdi
    9f64:	e9 17 58 01 00       	jmpq   1f780 <FcStrSetAddFilename>
    9f69:	0f 1f 80 00 00 00 00 	nopl   0x0(%rax)

0000000000009f70 <FcConfigGetCacheDirs>:
    9f70:	48 85 ff             	test   %rdi,%rdi
    9f73:	74 0b                	je     9f80 <FcConfigGetCacheDirs+0x10>
    9f75:	48 8b 7f 18          	mov    0x18(%rdi),%rdi
    9f79:	e9 52 54 01 00       	jmpq   1f3d0 <FcStrListCreate>
    9f7e:	66 90                	xchg   %ax,%ax
    9f80:	48 83 ec 08          	sub    $0x8,%rsp
    9f84:	e8 e7 fc ff ff       	callq  9c70 <FcConfigDestroy+0x100>
    9f89:	48 85 c0             	test   %rax,%rax
    9f8c:	74 0d                	je     9f9b <FcConfigGetCacheDirs+0x2b>
    9f8e:	48 8b 78 18          	mov    0x18(%rax),%rdi
    9f92:	48 83 c4 08          	add    $0x8,%rsp
    9f96:	e9 35 54 01 00       	jmpq   1f3d0 <FcStrListCreate>
    9f9b:	31 c0                	xor    %eax,%eax
    9f9d:	48 83 c4 08          	add    $0x8,%rsp
    9fa1:	c3                   	retq   
    9fa2:	66 66 66 66 66 2e 0f 	data32 data32 data32 data32 nopw %cs:0x0(%rax,%rax,1)
    9fa9:	1f 84 00 00 00 00 00 

0000000000009fb0 <FcConfigGetConfigFiles>:
    9fb0:	48 85 ff             	test   %rdi,%rdi
    9fb3:	74 0b                	je     9fc0 <FcConfigGetConfigFiles+0x10>
    9fb5:	48 8b 7f 20          	mov    0x20(%rdi),%rdi
    9fb9:	e9 12 54 01 00       	jmpq   1f3d0 <FcStrListCreate>
    9fbe:	66 90                	xchg   %ax,%ax
    9fc0:	48 83 ec 08          	sub    $0x8,%rsp
    9fc4:	e8 a7 fc ff ff       	callq  9c70 <FcConfigDestroy+0x100>
    9fc9:	48 85 c0             	test   %rax,%rax
    9fcc:	74 0d                	je     9fdb <FcConfigGetConfigFiles+0x2b>
    9fce:	48 8b 78 20          	mov    0x20(%rax),%rdi
    9fd2:	48 83 c4 08          	add    $0x8,%rsp
    9fd6:	e9 f5 53 01 00       	jmpq   1f3d0 <FcStrListCreate>
    9fdb:	31 c0                	xor    %eax,%eax
    9fdd:	48 83 c4 08          	add    $0x8,%rsp
    9fe1:	c3                   	retq   
    9fe2:	66 66 66 66 66 2e 0f 	data32 data32 data32 data32 nopw %cs:0x0(%rax,%rax,1)
    9fe9:	1f 84 00 00 00 00 00 

0000000000009ff0 <FcConfigGetCache>:
    9ff0:	31 c0                	xor    %eax,%eax
    9ff2:	c3                   	retq   
    9ff3:	66 66 66 66 2e 0f 1f 	data32 data32 data32 nopw %cs:0x0(%rax,%rax,1)
    9ffa:	84 00 00 00 00 00 

000000000000a000 <FcConfigGetFonts>:
    a000:	48 85 ff             	test   %rdi,%rdi
    a003:	74 0b                	je     a010 <FcConfigGetFonts+0x10>
    a005:	89 f6                	mov    %esi,%esi
    a007:	48 8b 44 f7 68       	mov    0x68(%rdi,%rsi,8),%rax
    a00c:	c3                   	retq   
    a00d:	0f 1f 00             	nopl   (%rax)
    a010:	48 83 ec 18          	sub    $0x18,%rsp
    a014:	89 74 24 0c          	mov    %esi,0xc(%rsp)
    a018:	e8 53 fc ff ff       	callq  9c70 <FcConfigDestroy+0x100>
    a01d:	48 85 c0             	test   %rax,%rax
    a020:	8b 74 24 0c          	mov    0xc(%rsp),%esi
    a024:	74 0c                	je     a032 <FcConfigGetFonts+0x32>
    a026:	89 f6                	mov    %esi,%esi
    a028:	48 8b 44 f0 68       	mov    0x68(%rax,%rsi,8),%rax
    a02d:	48 83 c4 18          	add    $0x18,%rsp
    a031:	c3                   	retq   
    a032:	31 c0                	xor    %eax,%eax
    a034:	eb f7                	jmp    a02d <FcConfigGetFonts+0x2d>
    a036:	66 2e 0f 1f 84 00 00 	nopw   %cs:0x0(%rax,%rax,1)
    a03d:	00 00 00 
    a040:	55                   	push   %rbp
    a041:	89 d2                	mov    %edx,%edx
    a043:	48 89 f5             	mov    %rsi,%rbp
    a046:	53                   	push   %rbx
    a047:	48 8d 1c d7          	lea    (%rdi,%rdx,8),%rbx
    a04b:	48 83 ec 08          	sub    $0x8,%rsp
    a04f:	48 8b 7b 68          	mov    0x68(%rbx),%rdi
    a053:	48 85 ff             	test   %rdi,%rdi
    a056:	74 05                	je     a05d <FcConfigGetFonts+0x5d>
    a058:	e8 a3 ad 00 00       	callq  14e00 <FcFontSetDestroy>
    a05d:	48 89 6b 68          	mov    %rbp,0x68(%rbx)
    a061:	48 83 c4 08          	add    $0x8,%rsp
    a065:	5b                   	pop    %rbx
    a066:	5d                   	pop    %rbp
    a067:	c3                   	retq   
    a068:	0f 1f 84 00 00 00 00 	nopl   0x0(%rax,%rax,1)
    a06f:	00 

000000000000a070 <FcConfigGetBlanks>:
    a070:	48 85 ff             	test   %rdi,%rdi
    a073:	74 0b                	je     a080 <FcConfigGetBlanks+0x10>
    a075:	48 8b 47 08          	mov    0x8(%rdi),%rax
    a079:	c3                   	retq   
    a07a:	66 0f 1f 44 00 00    	nopw   0x0(%rax,%rax,1)
    a080:	48 83 ec 08          	sub    $0x8,%rsp
    a084:	e8 e7 fb ff ff       	callq  9c70 <FcConfigDestroy+0x100>
    a089:	48 85 c0             	test   %rax,%rax
    a08c:	74 09                	je     a097 <FcConfigGetBlanks+0x27>
    a08e:	48 8b 40 08          	mov    0x8(%rax),%rax
    a092:	48 83 c4 08          	add    $0x8,%rsp
    a096:	c3                   	retq   
    a097:	31 c0                	xor    %eax,%eax
    a099:	eb f7                	jmp    a092 <FcConfigGetBlanks+0x22>
    a09b:	0f 1f 44 00 00       	nopl   0x0(%rax,%rax,1)
    a0a0:	55                   	push   %rbp
    a0a1:	48 89 fd             	mov    %rdi,%rbp
    a0a4:	53                   	push   %rbx
    a0a5:	48 83 ec 18          	sub    $0x18,%rsp
    a0a9:	48 8b 5f 08          	mov    0x8(%rdi),%rbx
    a0ad:	48 85 db             	test   %rbx,%rbx
    a0b0:	74 1e                	je     a0d0 <FcConfigGetBlanks+0x60>
    a0b2:	48 89 df             	mov    %rbx,%rdi
    a0b5:	e8 06 d0 ff ff       	callq  70c0 <FcBlanksAdd>
    a0ba:	85 c0                	test   %eax,%eax
    a0bc:	74 3b                	je     a0f9 <FcConfigGetBlanks+0x89>
    a0be:	48 89 5d 08          	mov    %rbx,0x8(%rbp)
    a0c2:	48 83 c4 18          	add    $0x18,%rsp
    a0c6:	b8 01 00 00 00       	mov    $0x1,%eax
    a0cb:	5b                   	pop    %rbx
    a0cc:	5d                   	pop    %rbp
    a0cd:	c3                   	retq   
    a0ce:	66 90                	xchg   %ax,%ax
    a0d0:	89 74 24 0c          	mov    %esi,0xc(%rsp)
    a0d4:	e8 97 cf ff ff       	callq  7070 <FcBlanksCreate>
    a0d9:	48 85 c0             	test   %rax,%rax
    a0dc:	48 89 c3             	mov    %rax,%rbx
    a0df:	8b 74 24 0c          	mov    0xc(%rsp),%esi
    a0e3:	74 14                	je     a0f9 <FcConfigGetBlanks+0x89>
    a0e5:	48 89 c7             	mov    %rax,%rdi
    a0e8:	e8 d3 cf ff ff       	callq  70c0 <FcBlanksAdd>
    a0ed:	85 c0                	test   %eax,%eax
    a0ef:	75 cd                	jne    a0be <FcConfigGetBlanks+0x4e>
    a0f1:	48 89 df             	mov    %rbx,%rdi
    a0f4:	e8 a7 cf ff ff       	callq  70a0 <FcBlanksDestroy>
    a0f9:	48 83 c4 18          	add    $0x18,%rsp
    a0fd:	31 c0                	xor    %eax,%eax
    a0ff:	5b                   	pop    %rbx
    a100:	5d                   	pop    %rbp
    a101:	c3                   	retq   
    a102:	66 66 66 66 66 2e 0f 	data32 data32 data32 data32 nopw %cs:0x0(%rax,%rax,1)
    a109:	1f 84 00 00 00 00 00 

000000000000a110 <FcConfigGetRescanInterval>:
    a110:	48 85 ff             	test   %rdi,%rdi
    a113:	74 0b                	je     a120 <FcConfigGetRescanInterval+0x10>
    a115:	8b 87 80 00 00 00    	mov    0x80(%rdi),%eax
    a11b:	c3                   	retq   
    a11c:	0f 1f 40 00          	nopl   0x0(%rax)
    a120:	48 83 ec 08          	sub    $0x8,%rsp
    a124:	e8 47 fb ff ff       	callq  9c70 <FcConfigDestroy+0x100>
    a129:	48 85 c0             	test   %rax,%rax
    a12c:	74 0b                	je     a139 <FcConfigGetRescanInterval+0x29>
    a12e:	8b 80 80 00 00 00    	mov    0x80(%rax),%eax
    a134:	48 83 c4 08          	add    $0x8,%rsp
    a138:	c3                   	retq   
    a139:	31 c0                	xor    %eax,%eax
    a13b:	eb f7                	jmp    a134 <FcConfigGetRescanInterval+0x24>
    a13d:	0f 1f 00             	nopl   (%rax)

000000000000a140 <FcConfigSetRescanInterval>:
    a140:	48 85 ff             	test   %rdi,%rdi
    a143:	74 13                	je     a158 <FcConfigSetRescanInterval+0x18>
    a145:	89 b7 80 00 00 00    	mov    %esi,0x80(%rdi)
    a14b:	b8 01 00 00 00       	mov    $0x1,%eax
    a150:	c3                   	retq   
    a151:	0f 1f 80 00 00 00 00 	nopl   0x0(%rax)
    a158:	48 83 ec 18          	sub    $0x18,%rsp
    a15c:	89 74 24 0c          	mov    %esi,0xc(%rsp)
    a160:	e8 0b fb ff ff       	callq  9c70 <FcConfigDestroy+0x100>
    a165:	48 85 c0             	test   %rax,%rax
    a168:	8b 74 24 0c          	mov    0xc(%rsp),%esi
    a16c:	74 10                	je     a17e <FcConfigSetRescanInterval+0x3e>
    a16e:	89 b0 80 00 00 00    	mov    %esi,0x80(%rax)
    a174:	b8 01 00 00 00       	mov    $0x1,%eax
    a179:	48 83 c4 18          	add    $0x18,%rsp
    a17d:	c3                   	retq   
    a17e:	31 c0                	xor    %eax,%eax
    a180:	eb f7                	jmp    a179 <FcConfigSetRescanInterval+0x39>
    a182:	66 66 66 66 66 2e 0f 	data32 data32 data32 data32 nopw %cs:0x0(%rax,%rax,1)
    a189:	1f 84 00 00 00 00 00 

000000000000a190 <FcConfigGetRescanInverval>:
    a190:	48 85 ff             	test   %rdi,%rdi
    a193:	74 0b                	je     a1a0 <FcConfigGetRescanInverval+0x10>
    a195:	8b 87 80 00 00 00    	mov    0x80(%rdi),%eax
    a19b:	c3                   	retq   
    a19c:	0f 1f 40 00          	nopl   0x0(%rax)
    a1a0:	48 83 ec 08          	sub    $0x8,%rsp
    a1a4:	e8 c7 fa ff ff       	callq  9c70 <FcConfigDestroy+0x100>
    a1a9:	48 85 c0             	test   %rax,%rax
    a1ac:	74 0b                	je     a1b9 <FcConfigGetRescanInverval+0x29>
    a1ae:	8b 80 80 00 00 00    	mov    0x80(%rax),%eax
    a1b4:	48 83 c4 08          	add    $0x8,%rsp
    a1b8:	c3                   	retq   
    a1b9:	31 c0                	xor    %eax,%eax
    a1bb:	eb f7                	jmp    a1b4 <FcConfigGetRescanInverval+0x24>
    a1bd:	0f 1f 00             	nopl   (%rax)

000000000000a1c0 <FcConfigSetRescanInverval>:
    a1c0:	48 85 ff             	test   %rdi,%rdi
    a1c3:	74 13                	je     a1d8 <FcConfigSetRescanInverval+0x18>
    a1c5:	89 b7 80 00 00 00    	mov    %esi,0x80(%rdi)
    a1cb:	b8 01 00 00 00       	mov    $0x1,%eax
    a1d0:	c3                   	retq   
    a1d1:	0f 1f 80 00 00 00 00 	nopl   0x0(%rax)
    a1d8:	48 83 ec 18          	sub    $0x18,%rsp
    a1dc:	89 74 24 0c          	mov    %esi,0xc(%rsp)
    a1e0:	e8 8b fa ff ff       	callq  9c70 <FcConfigDestroy+0x100>
    a1e5:	48 85 c0             	test   %rax,%rax
    a1e8:	8b 74 24 0c          	mov    0xc(%rsp),%esi
    a1ec:	74 10                	je     a1fe <FcConfigSetRescanInverval+0x3e>
    a1ee:	89 b0 80 00 00 00    	mov    %esi,0x80(%rax)
    a1f4:	b8 01 00 00 00       	mov    $0x1,%eax
    a1f9:	48 83 c4 18          	add    $0x18,%rsp
    a1fd:	c3                   	retq   
    a1fe:	31 c0                	xor    %eax,%eax
    a200:	eb f7                	jmp    a1f9 <FcConfigSetRescanInverval+0x39>
    a202:	66 66 66 66 66 2e 0f 	data32 data32 data32 data32 nopw %cs:0x0(%rax,%rax,1)
    a209:	1f 84 00 00 00 00 00 

000000000000a210 <FcConfigAddRule>:
    a210:	41 56                	push   %r14
    a212:	48 85 f6             	test   %rsi,%rsi
    a215:	41 55                	push   %r13
    a217:	41 54                	push   %r12
    a219:	55                   	push   %rbp
    a21a:	53                   	push   %rbx
    a21b:	48 89 f3             	mov    %rsi,%rbx
    a21e:	0f 84 1c 01 00 00    	je     a340 <FcConfigAddRule+0x130>
    a224:	83 fa 01             	cmp    $0x1,%edx
    a227:	49 89 fc             	mov    %rdi,%r12
    a22a:	41 89 d5             	mov    %edx,%r13d
    a22d:	0f 84 1d 01 00 00    	je     a350 <FcConfigAddRule+0x140>
    a233:	0f 82 e7 00 00 00    	jb     a320 <FcConfigAddRule+0x110>
    a239:	83 fa 02             	cmp    $0x2,%edx
    a23c:	0f 85 fe 00 00 00    	jne    a340 <FcConfigAddRule+0x130>
    a242:	4c 8d 77 38          	lea    0x38(%rdi),%r14
    a246:	bf 10 00 00 00       	mov    $0x10,%edi
    a24b:	e8 c0 c7 ff ff       	callq  6a10 <malloc@plt>
    a250:	48 85 c0             	test   %rax,%rax
    a253:	48 89 c5             	mov    %rax,%rbp
    a256:	0f 84 e4 00 00 00    	je     a340 <FcConfigAddRule+0x130>
    a25c:	49 8b 36             	mov    (%r14),%rsi
    a25f:	48 85 f6             	test   %rsi,%rsi
    a262:	75 0f                	jne    a273 <FcConfigAddRule+0x63>
    a264:	eb 18                	jmp    a27e <FcConfigAddRule+0x6e>
    a266:	66 2e 0f 1f 84 00 00 	nopw   %cs:0x0(%rax,%rax,1)
    a26d:	00 00 00 
    a270:	48 89 ce             	mov    %rcx,%rsi
    a273:	48 8b 0e             	mov    (%rsi),%rcx
    a276:	48 85 c9             	test   %rcx,%rcx
    a279:	75 f5                	jne    a270 <FcConfigAddRule+0x60>
    a27b:	49 89 f6             	mov    %rsi,%r14
    a27e:	49 89 2e             	mov    %rbp,(%r14)
    a281:	31 f6                	xor    %esi,%esi
    a283:	48 c7 45 00 00 00 00 	movq   $0x0,0x0(%rbp)
    a28a:	00 
    a28b:	48 89 5d 08          	mov    %rbx,0x8(%rbp)
    a28f:	eb 1f                	jmp    a2b0 <FcConfigAddRule+0xa0>
    a291:	0f 1f 80 00 00 00 00 	nopl   0x0(%rax)
    a298:	83 f9 02             	cmp    $0x2,%ecx
    a29b:	75 0b                	jne    a2a8 <FcConfigAddRule+0x98>
    a29d:	48 8b 4b 10          	mov    0x10(%rbx),%rcx
    a2a1:	8b 09                	mov    (%rcx),%ecx
    a2a3:	39 ce                	cmp    %ecx,%esi
    a2a5:	0f 4c f1             	cmovl  %ecx,%esi
    a2a8:	48 8b 1b             	mov    (%rbx),%rbx
    a2ab:	48 85 db             	test   %rbx,%rbx
    a2ae:	74 26                	je     a2d6 <FcConfigAddRule+0xc6>
    a2b0:	8b 4b 08             	mov    0x8(%rbx),%ecx
    a2b3:	83 f9 01             	cmp    $0x1,%ecx
    a2b6:	75 e0                	jne    a298 <FcConfigAddRule+0x88>
    a2b8:	48 8b 4b 10          	mov    0x10(%rbx),%rcx
    a2bc:	48 85 c9             	test   %rcx,%rcx
    a2bf:	74 05                	je     a2c6 <FcConfigAddRule+0xb6>
    a2c1:	83 39 ff             	cmpl   $0xffffffff,(%rcx)
    a2c4:	74 6a                	je     a330 <FcConfigAddRule+0x120>
    a2c6:	8b 49 08             	mov    0x8(%rcx),%ecx
    a2c9:	48 8b 1b             	mov    (%rbx),%rbx
    a2cc:	39 ce                	cmp    %ecx,%esi
    a2ce:	0f 4c f1             	cmovl  %ecx,%esi
    a2d1:	48 85 db             	test   %rbx,%rbx
    a2d4:	75 da                	jne    a2b0 <FcConfigAddRule+0xa0>
    a2d6:	81 e6 ff fb ff ff    	and    $0xfffffbff,%esi
    a2dc:	83 ee 2e             	sub    $0x2e,%esi
    a2df:	41 3b 74 24 40       	cmp    0x40(%r12),%esi
    a2e4:	7e 05                	jle    a2eb <FcConfigAddRule+0xdb>
    a2e6:	41 89 74 24 40       	mov    %esi,0x40(%r12)
    a2eb:	f6 05 5e 13 23 00 04 	testb  $0x4,0x23135e(%rip)        # 23b650 <_edata+0x260>
    a2f2:	bb 01 00 00 00       	mov    $0x1,%ebx
    a2f7:	74 1b                	je     a314 <FcConfigAddRule+0x104>
    a2f9:	48 8d 35 1e 96 01 00 	lea    0x1961e(%rip),%rsi        # 2391e <_fini+0x392>
    a300:	bf 01 00 00 00       	mov    $0x1,%edi
    a305:	31 c0                	xor    %eax,%eax
    a307:	e8 c4 c7 ff ff       	callq  6ad0 <__printf_chk@plt>
    a30c:	48 89 ef             	mov    %rbp,%rdi
    a30f:	e8 5c 52 00 00       	callq  f570 <FcPatternPrint+0xbe0>
    a314:	89 d8                	mov    %ebx,%eax
    a316:	5b                   	pop    %rbx
    a317:	5d                   	pop    %rbp
    a318:	41 5c                	pop    %r12
    a31a:	41 5d                	pop    %r13
    a31c:	41 5e                	pop    %r14
    a31e:	c3                   	retq   
    a31f:	90                   	nop
    a320:	4c 8d 77 28          	lea    0x28(%rdi),%r14
    a324:	e9 1d ff ff ff       	jmpq   a246 <FcConfigAddRule+0x36>
    a329:	0f 1f 80 00 00 00 00 	nopl   0x0(%rax)
    a330:	44 89 29             	mov    %r13d,(%rcx)
    a333:	48 8b 4b 10          	mov    0x10(%rbx),%rcx
    a337:	eb 8d                	jmp    a2c6 <FcConfigAddRule+0xb6>
    a339:	0f 1f 80 00 00 00 00 	nopl   0x0(%rax)
    a340:	31 db                	xor    %ebx,%ebx
    a342:	89 d8                	mov    %ebx,%eax
    a344:	5b                   	pop    %rbx
    a345:	5d                   	pop    %rbp
    a346:	41 5c                	pop    %r12
    a348:	41 5d                	pop    %r13
    a34a:	41 5e                	pop    %r14
    a34c:	c3                   	retq   
    a34d:	0f 1f 00             	nopl   (%rax)
    a350:	4c 8d 77 30          	lea    0x30(%rdi),%r14
    a354:	e9 ed fe ff ff       	jmpq   a246 <FcConfigAddRule+0x36>
    a359:	0f 1f 80 00 00 00 00 	nopl   0x0(%rax)
    a360:	41 57                	push   %r15
    a362:	41 56                	push   %r14
    a364:	41 55                	push   %r13
    a366:	41 89 f5             	mov    %esi,%r13d
    a369:	41 54                	push   %r12
    a36b:	45 0f b7 e5          	movzwl %r13w,%r12d
    a36f:	55                   	push   %rbp
    a370:	48 89 d5             	mov    %rdx,%rbp
    a373:	53                   	push   %rbx
    a374:	48 81 ec 28 02 00 00 	sub    $0x228,%rsp
    a37b:	64 48 8b 04 25 28 00 	mov    %fs:0x28,%rax
    a382:	00 00 
    a384:	48 89 84 24 18 02 00 	mov    %rax,0x218(%rsp)
    a38b:	00 
    a38c:	31 c0                	xor    %eax,%eax
    a38e:	e8 bd 0d 01 00       	callq  1b150 <FcValueDestroy+0x60>
    a393:	48 89 ef             	mov    %rbp,%rdi
    a396:	89 c3                	mov    %eax,%ebx
    a398:	49 89 d6             	mov    %rdx,%r14
    a39b:	e8 b0 0d 01 00       	callq  1b150 <FcValueDestroy+0x60>
    a3a0:	48 8d 4c 24 10       	lea    0x10(%rsp),%rcx
    a3a5:	89 df                	mov    %ebx,%edi
    a3a7:	4c 89 f6             	mov    %r14,%rsi
    a3aa:	49 89 d7             	mov    %rdx,%r15
    a3ad:	89 c2                	mov    %eax,%edx
    a3af:	89 c5                	mov    %eax,%ebp
    a3b1:	e8 3a f5 ff ff       	callq  98f0 <FcCacheCreateTagFile+0x640>
    a3b6:	48 8d 8c 24 10 01 00 	lea    0x110(%rsp),%rcx
    a3bd:	00 
    a3be:	89 c3                	mov    %eax,%ebx
    a3c0:	49 89 d6             	mov    %rdx,%r14
    a3c3:	89 ef                	mov    %ebp,%edi
    a3c5:	89 da                	mov    %ebx,%edx
    a3c7:	4c 89 fe             	mov    %r15,%rsi
    a3ca:	e8 21 f5 ff ff       	callq  98f0 <FcCacheCreateTagFile+0x640>
    a3cf:	39 c3                	cmp    %eax,%ebx
    a3d1:	74 3d                	je     a410 <FcConfigAddRule+0x200>
    a3d3:	41 83 fc 1a          	cmp    $0x1a,%r12d
    a3d7:	0f 94 c0             	sete   %al
    a3da:	41 83 fc 17          	cmp    $0x17,%r12d
    a3de:	0f 94 c2             	sete   %dl
    a3e1:	09 d0                	or     %edx,%eax
    a3e3:	0f b6 c0             	movzbl %al,%eax
    a3e6:	48 8b b4 24 18 02 00 	mov    0x218(%rsp),%rsi
    a3ed:	00 
    a3ee:	64 48 33 34 25 28 00 	xor    %fs:0x28,%rsi
    a3f5:	00 00 
    a3f7:	0f 85 d6 03 00 00    	jne    a7d3 <FcConfigAddRule+0x5c3>
    a3fd:	48 81 c4 28 02 00 00 	add    $0x228,%rsp
    a404:	5b                   	pop    %rbx
    a405:	5d                   	pop    %rbp
    a406:	41 5c                	pop    %r12
    a408:	41 5d                	pop    %r13
    a40a:	41 5e                	pop    %r14
    a40c:	41 5f                	pop    %r15
    a40e:	c3                   	retq   
    a40f:	90                   	nop
    a410:	83 fb 08             	cmp    $0x8,%ebx
    a413:	0f 87 8f 01 00 00    	ja     a5a8 <FcConfigAddRule+0x398>
    a419:	48 8d 05 cc 96 01 00 	lea    0x196cc(%rip),%rax        # 23aec <_fini+0x560>
    a420:	48 63 0c 98          	movslq (%rax,%rbx,4),%rcx
    a424:	48 01 c8             	add    %rcx,%rax
