
/usr/lib/x86_64-linux-gnu/libpango-1.0.so:     file format elf64-x86-64


Disassembly of section .init:

000000000000d298 <.init>:
    d298:	48 83 ec 08          	sub    $0x8,%rsp
    d29c:	48 8b 05 1d ed 23 00 	mov    0x23ed1d(%rip),%rax        # 24bfc0 <pango_tab_align_get_type+0x2207a0>
    d2a3:	48 85 c0             	test   %rax,%rax
    d2a6:	74 05                	je     d2ad <g_dir_close@plt-0x23>
    d2a8:	e8 e3 05 00 00       	callq  d890 <__gmon_start__@plt>
    d2ad:	48 83 c4 08          	add    $0x8,%rsp
    d2b1:	c3                   	retq   

Disassembly of section .plt:

000000000000d2c0 <g_dir_close@plt-0x10>:
    d2c0:	ff 35 42 ed 23 00    	pushq  0x23ed42(%rip)        # 24c008 <pango_tab_align_get_type+0x2207e8>
    d2c6:	ff 25 44 ed 23 00    	jmpq   *0x23ed44(%rip)        # 24c010 <pango_tab_align_get_type+0x2207f0>
    d2cc:	0f 1f 40 00          	nopl   0x0(%rax)

000000000000d2d0 <g_dir_close@plt>:
    d2d0:	ff 25 42 ed 23 00    	jmpq   *0x23ed42(%rip)        # 24c018 <pango_tab_align_get_type+0x2207f8>
    d2d6:	68 00 00 00 00       	pushq  $0x0
    d2db:	e9 e0 ff ff ff       	jmpq   d2c0 <g_dir_close@plt-0x10>

000000000000d2e0 <g_object_get_data@plt>:
    d2e0:	ff 25 3a ed 23 00    	jmpq   *0x23ed3a(%rip)        # 24c020 <pango_tab_align_get_type+0x220800>
    d2e6:	68 01 00 00 00       	pushq  $0x1
    d2eb:	e9 d0 ff ff ff       	jmpq   d2c0 <g_dir_close@plt-0x10>

000000000000d2f0 <g_intern_static_string@plt>:
    d2f0:	ff 25 32 ed 23 00    	jmpq   *0x23ed32(%rip)        # 24c028 <pango_tab_align_get_type+0x220808>
    d2f6:	68 02 00 00 00       	pushq  $0x2
    d2fb:	e9 c0 ff ff ff       	jmpq   d2c0 <g_dir_close@plt-0x10>

000000000000d300 <__uflow@plt>:
    d300:	ff 25 2a ed 23 00    	jmpq   *0x23ed2a(%rip)        # 24c030 <pango_tab_align_get_type+0x220810>
    d306:	68 03 00 00 00       	pushq  $0x3
    d30b:	e9 b0 ff ff ff       	jmpq   d2c0 <g_dir_close@plt-0x10>

000000000000d310 <getenv@plt>:
    d310:	ff 25 22 ed 23 00    	jmpq   *0x23ed22(%rip)        # 24c038 <pango_tab_align_get_type+0x220818>
    d316:	68 04 00 00 00       	pushq  $0x4
    d31b:	e9 a0 ff ff ff       	jmpq   d2c0 <g_dir_close@plt-0x10>

000000000000d320 <g_build_filename@plt>:
    d320:	ff 25 1a ed 23 00    	jmpq   *0x23ed1a(%rip)        # 24c040 <pango_tab_align_get_type+0x220820>
    d326:	68 05 00 00 00       	pushq  $0x5
    d32b:	e9 90 ff ff ff       	jmpq   d2c0 <g_dir_close@plt-0x10>

000000000000d330 <g_list_delete_link@plt>:
    d330:	ff 25 12 ed 23 00    	jmpq   *0x23ed12(%rip)        # 24c048 <pango_tab_align_get_type+0x220828>
    d336:	68 06 00 00 00       	pushq  $0x6
    d33b:	e9 80 ff ff ff       	jmpq   d2c0 <g_dir_close@plt-0x10>

000000000000d340 <g_object_replace_qdata@plt>:
    d340:	ff 25 0a ed 23 00    	jmpq   *0x23ed0a(%rip)        # 24c050 <pango_tab_align_get_type+0x220830>
    d346:	68 07 00 00 00       	pushq  $0x7
    d34b:	e9 70 ff ff ff       	jmpq   d2c0 <g_dir_close@plt-0x10>

000000000000d350 <g_list_append@plt>:
    d350:	ff 25 02 ed 23 00    	jmpq   *0x23ed02(%rip)        # 24c058 <pango_tab_align_get_type+0x220838>
    d356:	68 08 00 00 00       	pushq  $0x8
    d35b:	e9 60 ff ff ff       	jmpq   d2c0 <g_dir_close@plt-0x10>

000000000000d360 <g_unichar_iszerowidth@plt>:
    d360:	ff 25 fa ec 23 00    	jmpq   *0x23ecfa(%rip)        # 24c060 <pango_tab_align_get_type+0x220840>
    d366:	68 09 00 00 00       	pushq  $0x9
    d36b:	e9 50 ff ff ff       	jmpq   d2c0 <g_dir_close@plt-0x10>

000000000000d370 <funlockfile@plt>:
    d370:	ff 25 f2 ec 23 00    	jmpq   *0x23ecf2(%rip)        # 24c068 <pango_tab_align_get_type+0x220848>
    d376:	68 0a 00 00 00       	pushq  $0xa
    d37b:	e9 40 ff ff ff       	jmpq   d2c0 <g_dir_close@plt-0x10>

000000000000d380 <g_list_reverse@plt>:
    d380:	ff 25 ea ec 23 00    	jmpq   *0x23ecea(%rip)        # 24c070 <pango_tab_align_get_type+0x220850>
    d386:	68 0b 00 00 00       	pushq  $0xb
    d38b:	e9 30 ff ff ff       	jmpq   d2c0 <g_dir_close@plt-0x10>

000000000000d390 <g_dir_open@plt>:
    d390:	ff 25 e2 ec 23 00    	jmpq   *0x23ece2(%rip)        # 24c078 <pango_tab_align_get_type+0x220858>
    d396:	68 0c 00 00 00       	pushq  $0xc
    d39b:	e9 20 ff ff ff       	jmpq   d2c0 <g_dir_close@plt-0x10>

000000000000d3a0 <g_slist_free_full@plt>:
    d3a0:	ff 25 da ec 23 00    	jmpq   *0x23ecda(%rip)        # 24c080 <pango_tab_align_get_type+0x220860>
    d3a6:	68 0d 00 00 00       	pushq  $0xd
    d3ab:	e9 10 ff ff ff       	jmpq   d2c0 <g_dir_close@plt-0x10>

000000000000d3b0 <g_string_new@plt>:
    d3b0:	ff 25 d2 ec 23 00    	jmpq   *0x23ecd2(%rip)        # 24c088 <pango_tab_align_get_type+0x220868>
    d3b6:	68 0e 00 00 00       	pushq  $0xe
    d3bb:	e9 00 ff ff ff       	jmpq   d2c0 <g_dir_close@plt-0x10>

000000000000d3c0 <__errno_location@plt>:
    d3c0:	ff 25 ca ec 23 00    	jmpq   *0x23ecca(%rip)        # 24c090 <pango_tab_align_get_type+0x220870>
    d3c6:	68 0f 00 00 00       	pushq  $0xf
    d3cb:	e9 f0 fe ff ff       	jmpq   d2c0 <g_dir_close@plt-0x10>

000000000000d3d0 <g_slist_length@plt>:
    d3d0:	ff 25 c2 ec 23 00    	jmpq   *0x23ecc2(%rip)        # 24c098 <pango_tab_align_get_type+0x220878>
    d3d6:	68 10 00 00 00       	pushq  $0x10
    d3db:	e9 e0 fe ff ff       	jmpq   d2c0 <g_dir_close@plt-0x10>

000000000000d3e0 <g_malloc@plt>:
    d3e0:	ff 25 ba ec 23 00    	jmpq   *0x23ecba(%rip)        # 24c0a0 <pango_tab_align_get_type+0x220880>
    d3e6:	68 11 00 00 00       	pushq  $0x11
    d3eb:	e9 d0 fe ff ff       	jmpq   d2c0 <g_dir_close@plt-0x10>

000000000000d3f0 <strncmp@plt>:
    d3f0:	ff 25 b2 ec 23 00    	jmpq   *0x23ecb2(%rip)        # 24c0a8 <pango_tab_align_get_type+0x220888>
    d3f6:	68 12 00 00 00       	pushq  $0x12
    d3fb:	e9 c0 fe ff ff       	jmpq   d2c0 <g_dir_close@plt-0x10>

000000000000d400 <g_once_init_enter@plt>:
    d400:	ff 25 aa ec 23 00    	jmpq   *0x23ecaa(%rip)        # 24c0b0 <pango_tab_align_get_type+0x220890>
    d406:	68 13 00 00 00       	pushq  $0x13
    d40b:	e9 b0 fe ff ff       	jmpq   d2c0 <g_dir_close@plt-0x10>

000000000000d410 <g_object_unref@plt>:
    d410:	ff 25 a2 ec 23 00    	jmpq   *0x23eca2(%rip)        # 24c0b8 <pango_tab_align_get_type+0x220898>
    d416:	68 14 00 00 00       	pushq  $0x14
    d41b:	e9 a0 fe ff ff       	jmpq   d2c0 <g_dir_close@plt-0x10>

000000000000d420 <g_free@plt>:
    d420:	ff 25 9a ec 23 00    	jmpq   *0x23ec9a(%rip)        # 24c0c0 <pango_tab_align_get_type+0x2208a0>
    d426:	68 15 00 00 00       	pushq  $0x15
    d42b:	e9 90 fe ff ff       	jmpq   d2c0 <g_dir_close@plt-0x10>

000000000000d430 <g_utf8_offset_to_pointer@plt>:
    d430:	ff 25 92 ec 23 00    	jmpq   *0x23ec92(%rip)        # 24c0c8 <pango_tab_align_get_type+0x2208a8>
    d436:	68 16 00 00 00       	pushq  $0x16
    d43b:	e9 80 fe ff ff       	jmpq   d2c0 <g_dir_close@plt-0x10>

000000000000d440 <g_mutex_unlock@plt>:
    d440:	ff 25 8a ec 23 00    	jmpq   *0x23ec8a(%rip)        # 24c0d0 <pango_tab_align_get_type+0x2208b0>
    d446:	68 17 00 00 00       	pushq  $0x17
    d44b:	e9 70 fe ff ff       	jmpq   d2c0 <g_dir_close@plt-0x10>

000000000000d450 <g_intern_string@plt>:
    d450:	ff 25 82 ec 23 00    	jmpq   *0x23ec82(%rip)        # 24c0d8 <pango_tab_align_get_type+0x2208b8>
    d456:	68 18 00 00 00       	pushq  $0x18
    d45b:	e9 60 fe ff ff       	jmpq   d2c0 <g_dir_close@plt-0x10>

000000000000d460 <g_strsplit@plt>:
    d460:	ff 25 7a ec 23 00    	jmpq   *0x23ec7a(%rip)        # 24c0e0 <pango_tab_align_get_type+0x2208c0>
    d466:	68 19 00 00 00       	pushq  $0x19
    d46b:	e9 50 fe ff ff       	jmpq   d2c0 <g_dir_close@plt-0x10>

000000000000d470 <qsort@plt>:
    d470:	ff 25 72 ec 23 00    	jmpq   *0x23ec72(%rip)        # 24c0e8 <pango_tab_align_get_type+0x2208c8>
    d476:	68 1a 00 00 00       	pushq  $0x1a
    d47b:	e9 40 fe ff ff       	jmpq   d2c0 <g_dir_close@plt-0x10>

000000000000d480 <g_type_module_use@plt>:
    d480:	ff 25 6a ec 23 00    	jmpq   *0x23ec6a(%rip)        # 24c0f0 <pango_tab_align_get_type+0x2208d0>
    d486:	68 1b 00 00 00       	pushq  $0x1b
    d48b:	e9 30 fe ff ff       	jmpq   d2c0 <g_dir_close@plt-0x10>

000000000000d490 <g_slist_foreach@plt>:
    d490:	ff 25 62 ec 23 00    	jmpq   *0x23ec62(%rip)        # 24c0f8 <pango_tab_align_get_type+0x2208d8>
    d496:	68 1c 00 00 00       	pushq  $0x1c
    d49b:	e9 20 fe ff ff       	jmpq   d2c0 <g_dir_close@plt-0x10>

000000000000d4a0 <g_enum_register_static@plt>:
    d4a0:	ff 25 5a ec 23 00    	jmpq   *0x23ec5a(%rip)        # 24c100 <pango_tab_align_get_type+0x2208e0>
    d4a6:	68 1d 00 00 00       	pushq  $0x1d
    d4ab:	e9 10 fe ff ff       	jmpq   d2c0 <g_dir_close@plt-0x10>

000000000000d4b0 <g_module_error@plt>:
    d4b0:	ff 25 52 ec 23 00    	jmpq   *0x23ec52(%rip)        # 24c108 <pango_tab_align_get_type+0x2208e8>
    d4b6:	68 1e 00 00 00       	pushq  $0x1e
    d4bb:	e9 00 fe ff ff       	jmpq   d2c0 <g_dir_close@plt-0x10>

000000000000d4c0 <g_type_module_get_type@plt>:
    d4c0:	ff 25 4a ec 23 00    	jmpq   *0x23ec4a(%rip)        # 24c110 <pango_tab_align_get_type+0x2208f0>
    d4c6:	68 1f 00 00 00       	pushq  $0x1f
    d4cb:	e9 f0 fd ff ff       	jmpq   d2c0 <g_dir_close@plt-0x10>

000000000000d4d0 <g_key_file_new@plt>:
    d4d0:	ff 25 42 ec 23 00    	jmpq   *0x23ec42(%rip)        # 24c118 <pango_tab_align_get_type+0x2208f8>
    d4d6:	68 20 00 00 00       	pushq  $0x20
    d4db:	e9 e0 fd ff ff       	jmpq   d2c0 <g_dir_close@plt-0x10>

000000000000d4e0 <g_slist_free@plt>:
    d4e0:	ff 25 3a ec 23 00    	jmpq   *0x23ec3a(%rip)        # 24c120 <pango_tab_align_get_type+0x220900>
    d4e6:	68 21 00 00 00       	pushq  $0x21
    d4eb:	e9 d0 fd ff ff       	jmpq   d2c0 <g_dir_close@plt-0x10>

000000000000d4f0 <g_once_init_leave@plt>:
    d4f0:	ff 25 32 ec 23 00    	jmpq   *0x23ec32(%rip)        # 24c128 <pango_tab_align_get_type+0x220908>
    d4f6:	68 22 00 00 00       	pushq  $0x22
    d4fb:	e9 c0 fd ff ff       	jmpq   d2c0 <g_dir_close@plt-0x10>

000000000000d500 <g_strjoinv@plt>:
    d500:	ff 25 2a ec 23 00    	jmpq   *0x23ec2a(%rip)        # 24c130 <pango_tab_align_get_type+0x220910>
    d506:	68 23 00 00 00       	pushq  $0x23
    d50b:	e9 b0 fd ff ff       	jmpq   d2c0 <g_dir_close@plt-0x10>

000000000000d510 <g_object_set_data_full@plt>:
    d510:	ff 25 22 ec 23 00    	jmpq   *0x23ec22(%rip)        # 24c138 <pango_tab_align_get_type+0x220918>
    d516:	68 24 00 00 00       	pushq  $0x24
    d51b:	e9 a0 fd ff ff       	jmpq   d2c0 <g_dir_close@plt-0x10>

000000000000d520 <g_list_concat@plt>:
    d520:	ff 25 1a ec 23 00    	jmpq   *0x23ec1a(%rip)        # 24c140 <pango_tab_align_get_type+0x220920>
    d526:	68 25 00 00 00       	pushq  $0x25
    d52b:	e9 90 fd ff ff       	jmpq   d2c0 <g_dir_close@plt-0x10>

000000000000d530 <g_array_set_size@plt>:
    d530:	ff 25 12 ec 23 00    	jmpq   *0x23ec12(%rip)        # 24c148 <pango_tab_align_get_type+0x220928>
    d536:	68 26 00 00 00       	pushq  $0x26
    d53b:	e9 80 fd ff ff       	jmpq   d2c0 <g_dir_close@plt-0x10>

000000000000d540 <g_type_class_unref@plt>:
    d540:	ff 25 0a ec 23 00    	jmpq   *0x23ec0a(%rip)        # 24c150 <pango_tab_align_get_type+0x220930>
    d546:	68 27 00 00 00       	pushq  $0x27
    d54b:	e9 70 fd ff ff       	jmpq   d2c0 <g_dir_close@plt-0x10>

000000000000d550 <fclose@plt>:
    d550:	ff 25 02 ec 23 00    	jmpq   *0x23ec02(%rip)        # 24c158 <pango_tab_align_get_type+0x220938>
    d556:	68 28 00 00 00       	pushq  $0x28
    d55b:	e9 60 fd ff ff       	jmpq   d2c0 <g_dir_close@plt-0x10>

000000000000d560 <g_slist_copy@plt>:
    d560:	ff 25 fa eb 23 00    	jmpq   *0x23ebfa(%rip)        # 24c160 <pango_tab_align_get_type+0x220940>
    d566:	68 29 00 00 00       	pushq  $0x29
    d56b:	e9 50 fd ff ff       	jmpq   d2c0 <g_dir_close@plt-0x10>

000000000000d570 <g_string_assign@plt>:
    d570:	ff 25 f2 eb 23 00    	jmpq   *0x23ebf2(%rip)        # 24c168 <pango_tab_align_get_type+0x220948>
    d576:	68 2a 00 00 00       	pushq  $0x2a
    d57b:	e9 40 fd ff ff       	jmpq   d2c0 <g_dir_close@plt-0x10>

000000000000d580 <g_unichar_get_mirror_char@plt>:
    d580:	ff 25 ea eb 23 00    	jmpq   *0x23ebea(%rip)        # 24c170 <pango_tab_align_get_type+0x220950>
    d586:	68 2b 00 00 00       	pushq  $0x2b
    d58b:	e9 30 fd ff ff       	jmpq   d2c0 <g_dir_close@plt-0x10>

000000000000d590 <g_slist_reverse@plt>:
    d590:	ff 25 e2 eb 23 00    	jmpq   *0x23ebe2(%rip)        # 24c178 <pango_tab_align_get_type+0x220958>
    d596:	68 2c 00 00 00       	pushq  $0x2c
    d59b:	e9 20 fd ff ff       	jmpq   d2c0 <g_dir_close@plt-0x10>

000000000000d5a0 <g_printerr@plt>:
    d5a0:	ff 25 da eb 23 00    	jmpq   *0x23ebda(%rip)        # 24c180 <pango_tab_align_get_type+0x220960>
    d5a6:	68 2d 00 00 00       	pushq  $0x2d
    d5ab:	e9 10 fd ff ff       	jmpq   d2c0 <g_dir_close@plt-0x10>

000000000000d5b0 <g_markup_parse_context_free@plt>:
    d5b0:	ff 25 d2 eb 23 00    	jmpq   *0x23ebd2(%rip)        # 24c188 <pango_tab_align_get_type+0x220968>
    d5b6:	68 2e 00 00 00       	pushq  $0x2e
    d5bb:	e9 00 fd ff ff       	jmpq   d2c0 <g_dir_close@plt-0x10>

000000000000d5c0 <g_hash_table_lookup@plt>:
    d5c0:	ff 25 ca eb 23 00    	jmpq   *0x23ebca(%rip)        # 24c190 <pango_tab_align_get_type+0x220970>
    d5c6:	68 2f 00 00 00       	pushq  $0x2f
    d5cb:	e9 f0 fc ff ff       	jmpq   d2c0 <g_dir_close@plt-0x10>

000000000000d5d0 <strlen@plt>:
    d5d0:	ff 25 c2 eb 23 00    	jmpq   *0x23ebc2(%rip)        # 24c198 <pango_tab_align_get_type+0x220978>
    d5d6:	68 30 00 00 00       	pushq  $0x30
    d5db:	e9 e0 fc ff ff       	jmpq   d2c0 <g_dir_close@plt-0x10>

000000000000d5e0 <g_ascii_strtod@plt>:
    d5e0:	ff 25 ba eb 23 00    	jmpq   *0x23ebba(%rip)        # 24c1a0 <pango_tab_align_get_type+0x220980>
    d5e6:	68 31 00 00 00       	pushq  $0x31
    d5eb:	e9 d0 fc ff ff       	jmpq   d2c0 <g_dir_close@plt-0x10>

000000000000d5f0 <g_type_name@plt>:
    d5f0:	ff 25 b2 eb 23 00    	jmpq   *0x23ebb2(%rip)        # 24c1a8 <pango_tab_align_get_type+0x220988>
    d5f6:	68 32 00 00 00       	pushq  $0x32
    d5fb:	e9 c0 fc ff ff       	jmpq   d2c0 <g_dir_close@plt-0x10>

000000000000d600 <__stack_chk_fail@plt>:
    d600:	ff 25 aa eb 23 00    	jmpq   *0x23ebaa(%rip)        # 24c1b0 <pango_tab_align_get_type+0x220990>
    d606:	68 33 00 00 00       	pushq  $0x33
    d60b:	e9 b0 fc ff ff       	jmpq   d2c0 <g_dir_close@plt-0x10>

000000000000d610 <g_list_prepend@plt>:
    d610:	ff 25 a2 eb 23 00    	jmpq   *0x23eba2(%rip)        # 24c1b8 <pango_tab_align_get_type+0x220998>
    d616:	68 34 00 00 00       	pushq  $0x34
    d61b:	e9 a0 fc ff ff       	jmpq   d2c0 <g_dir_close@plt-0x10>

000000000000d620 <g_list_length@plt>:
    d620:	ff 25 9a eb 23 00    	jmpq   *0x23eb9a(%rip)        # 24c1c0 <pango_tab_align_get_type+0x2209a0>
    d626:	68 35 00 00 00       	pushq  $0x35
    d62b:	e9 90 fc ff ff       	jmpq   d2c0 <g_dir_close@plt-0x10>

000000000000d630 <g_ascii_strcasecmp@plt>:
    d630:	ff 25 92 eb 23 00    	jmpq   *0x23eb92(%rip)        # 24c1c8 <pango_tab_align_get_type+0x2209a8>
    d636:	68 36 00 00 00       	pushq  $0x36
    d63b:	e9 80 fc ff ff       	jmpq   d2c0 <g_dir_close@plt-0x10>

000000000000d640 <strchr@plt>:
    d640:	ff 25 8a eb 23 00    	jmpq   *0x23eb8a(%rip)        # 24c1d0 <pango_tab_align_get_type+0x2209b0>
    d646:	68 37 00 00 00       	pushq  $0x37
    d64b:	e9 70 fc ff ff       	jmpq   d2c0 <g_dir_close@plt-0x10>

000000000000d650 <g_path_get_dirname@plt>:
    d650:	ff 25 82 eb 23 00    	jmpq   *0x23eb82(%rip)        # 24c1d8 <pango_tab_align_get_type+0x2209b8>
    d656:	68 38 00 00 00       	pushq  $0x38
    d65b:	e9 60 fc ff ff       	jmpq   d2c0 <g_dir_close@plt-0x10>

000000000000d660 <g_get_home_dir@plt>:
    d660:	ff 25 7a eb 23 00    	jmpq   *0x23eb7a(%rip)        # 24c1e0 <pango_tab_align_get_type+0x2209c0>
    d666:	68 39 00 00 00       	pushq  $0x39
    d66b:	e9 50 fc ff ff       	jmpq   d2c0 <g_dir_close@plt-0x10>

000000000000d670 <g_set_error@plt>:
    d670:	ff 25 72 eb 23 00    	jmpq   *0x23eb72(%rip)        # 24c1e8 <pango_tab_align_get_type+0x2209c8>
    d676:	68 3a 00 00 00       	pushq  $0x3a
    d67b:	e9 40 fc ff ff       	jmpq   d2c0 <g_dir_close@plt-0x10>

000000000000d680 <g_type_module_unuse@plt>:
    d680:	ff 25 6a eb 23 00    	jmpq   *0x23eb6a(%rip)        # 24c1f0 <pango_tab_align_get_type+0x2209d0>
    d686:	68 3b 00 00 00       	pushq  $0x3b
    d68b:	e9 30 fc ff ff       	jmpq   d2c0 <g_dir_close@plt-0x10>

000000000000d690 <th_uni2tis@plt>:
    d690:	ff 25 62 eb 23 00    	jmpq   *0x23eb62(%rip)        # 24c1f8 <pango_tab_align_get_type+0x2209d8>
    d696:	68 3c 00 00 00       	pushq  $0x3c
    d69b:	e9 20 fc ff ff       	jmpq   d2c0 <g_dir_close@plt-0x10>

000000000000d6a0 <g_type_class_adjust_private_offset@plt>:
    d6a0:	ff 25 5a eb 23 00    	jmpq   *0x23eb5a(%rip)        # 24c200 <pango_tab_align_get_type+0x2209e0>
    d6a6:	68 3d 00 00 00       	pushq  $0x3d
    d6ab:	e9 10 fc ff ff       	jmpq   d2c0 <g_dir_close@plt-0x10>

000000000000d6b0 <g_assertion_message_expr@plt>:
    d6b0:	ff 25 52 eb 23 00    	jmpq   *0x23eb52(%rip)        # 24c208 <pango_tab_align_get_type+0x2209e8>
    d6b6:	68 3e 00 00 00       	pushq  $0x3e
    d6bb:	e9 00 fc ff ff       	jmpq   d2c0 <g_dir_close@plt-0x10>

000000000000d6c0 <g_get_user_config_dir@plt>:
    d6c0:	ff 25 4a eb 23 00    	jmpq   *0x23eb4a(%rip)        # 24c210 <pango_tab_align_get_type+0x2209f0>
    d6c6:	68 3f 00 00 00       	pushq  $0x3f
    d6cb:	e9 f0 fb ff ff       	jmpq   d2c0 <g_dir_close@plt-0x10>

000000000000d6d0 <g_utf8_strlen@plt>:
    d6d0:	ff 25 42 eb 23 00    	jmpq   *0x23eb42(%rip)        # 24c218 <pango_tab_align_get_type+0x2209f8>
    d6d6:	68 40 00 00 00       	pushq  $0x40
    d6db:	e9 e0 fb ff ff       	jmpq   d2c0 <g_dir_close@plt-0x10>

000000000000d6e0 <g_slice_free_chain_with_offset@plt>:
    d6e0:	ff 25 3a eb 23 00    	jmpq   *0x23eb3a(%rip)        # 24c220 <pango_tab_align_get_type+0x220a00>
    d6e6:	68 41 00 00 00       	pushq  $0x41
    d6eb:	e9 d0 fb ff ff       	jmpq   d2c0 <g_dir_close@plt-0x10>

000000000000d6f0 <g_return_if_fail_warning@plt>:
    d6f0:	ff 25 32 eb 23 00    	jmpq   *0x23eb32(%rip)        # 24c228 <pango_tab_align_get_type+0x220a08>
    d6f6:	68 42 00 00 00       	pushq  $0x42
    d6fb:	e9 c0 fb ff ff       	jmpq   d2c0 <g_dir_close@plt-0x10>

000000000000d700 <g_array_new@plt>:
    d700:	ff 25 2a eb 23 00    	jmpq   *0x23eb2a(%rip)        # 24c230 <pango_tab_align_get_type+0x220a10>
    d706:	68 43 00 00 00       	pushq  $0x43
    d70b:	e9 b0 fb ff ff       	jmpq   d2c0 <g_dir_close@plt-0x10>

000000000000d710 <memset@plt>:
    d710:	ff 25 22 eb 23 00    	jmpq   *0x23eb22(%rip)        # 24c238 <pango_tab_align_get_type+0x220a18>
    d716:	68 44 00 00 00       	pushq  $0x44
    d71b:	e9 a0 fb ff ff       	jmpq   d2c0 <g_dir_close@plt-0x10>

000000000000d720 <g_markup_error_quark@plt>:
    d720:	ff 25 1a eb 23 00    	jmpq   *0x23eb1a(%rip)        # 24c240 <pango_tab_align_get_type+0x220a20>
    d726:	68 45 00 00 00       	pushq  $0x45
    d72b:	e9 90 fb ff ff       	jmpq   d2c0 <g_dir_close@plt-0x10>

000000000000d730 <g_ascii_tolower@plt>:
    d730:	ff 25 12 eb 23 00    	jmpq   *0x23eb12(%rip)        # 24c248 <pango_tab_align_get_type+0x220a28>
    d736:	68 46 00 00 00       	pushq  $0x46
    d73b:	e9 80 fb ff ff       	jmpq   d2c0 <g_dir_close@plt-0x10>

000000000000d740 <sincos@plt>:
    d740:	ff 25 0a eb 23 00    	jmpq   *0x23eb0a(%rip)        # 24c250 <pango_tab_align_get_type+0x220a30>
    d746:	68 47 00 00 00       	pushq  $0x47
    d74b:	e9 70 fb ff ff       	jmpq   d2c0 <g_dir_close@plt-0x10>

000000000000d750 <g_strconcat@plt>:
    d750:	ff 25 02 eb 23 00    	jmpq   *0x23eb02(%rip)        # 24c258 <pango_tab_align_get_type+0x220a38>
    d756:	68 48 00 00 00       	pushq  $0x48
    d75b:	e9 60 fb ff ff       	jmpq   d2c0 <g_dir_close@plt-0x10>

000000000000d760 <g_hash_table_new@plt>:
    d760:	ff 25 fa ea 23 00    	jmpq   *0x23eafa(%rip)        # 24c260 <pango_tab_align_get_type+0x220a40>
    d766:	68 49 00 00 00       	pushq  $0x49
    d76b:	e9 50 fb ff ff       	jmpq   d2c0 <g_dir_close@plt-0x10>

000000000000d770 <flockfile@plt>:
    d770:	ff 25 f2 ea 23 00    	jmpq   *0x23eaf2(%rip)        # 24c268 <pango_tab_align_get_type+0x220a48>
    d776:	68 4a 00 00 00       	pushq  $0x4a
    d77b:	e9 40 fb ff ff       	jmpq   d2c0 <g_dir_close@plt-0x10>

000000000000d780 <g_markup_parse_context_end_parse@plt>:
    d780:	ff 25 ea ea 23 00    	jmpq   *0x23eaea(%rip)        # 24c270 <pango_tab_align_get_type+0x220a50>
    d786:	68 4b 00 00 00       	pushq  $0x4b
    d78b:	e9 30 fb ff ff       	jmpq   d2c0 <g_dir_close@plt-0x10>

000000000000d790 <g_utf8_get_char@plt>:
    d790:	ff 25 e2 ea 23 00    	jmpq   *0x23eae2(%rip)        # 24c278 <pango_tab_align_get_type+0x220a58>
    d796:	68 4c 00 00 00       	pushq  $0x4c
    d79b:	e9 20 fb ff ff       	jmpq   d2c0 <g_dir_close@plt-0x10>

000000000000d7a0 <g_quark_from_static_string@plt>:
    d7a0:	ff 25 da ea 23 00    	jmpq   *0x23eada(%rip)        # 24c280 <pango_tab_align_get_type+0x220a60>
    d7a6:	68 4d 00 00 00       	pushq  $0x4d
    d7ab:	e9 10 fb ff ff       	jmpq   d2c0 <g_dir_close@plt-0x10>

000000000000d7b0 <g_string_free@plt>:
    d7b0:	ff 25 d2 ea 23 00    	jmpq   *0x23ead2(%rip)        # 24c288 <pango_tab_align_get_type+0x220a68>
    d7b6:	68 4e 00 00 00       	pushq  $0x4e
    d7bb:	e9 00 fb ff ff       	jmpq   d2c0 <g_dir_close@plt-0x10>

000000000000d7c0 <g_module_close@plt>:
    d7c0:	ff 25 ca ea 23 00    	jmpq   *0x23eaca(%rip)        # 24c290 <pango_tab_align_get_type+0x220a70>
    d7c6:	68 4f 00 00 00       	pushq  $0x4f
    d7cb:	e9 f0 fa ff ff       	jmpq   d2c0 <g_dir_close@plt-0x10>

000000000000d7d0 <g_slist_prepend@plt>:
    d7d0:	ff 25 c2 ea 23 00    	jmpq   *0x23eac2(%rip)        # 24c298 <pango_tab_align_get_type+0x220a78>
    d7d6:	68 50 00 00 00       	pushq  $0x50
    d7db:	e9 e0 fa ff ff       	jmpq   d2c0 <g_dir_close@plt-0x10>

000000000000d7e0 <g_object_new@plt>:
    d7e0:	ff 25 ba ea 23 00    	jmpq   *0x23eaba(%rip)        # 24c2a0 <pango_tab_align_get_type+0x220a80>
    d7e6:	68 51 00 00 00       	pushq  $0x51
    d7eb:	e9 d0 fa ff ff       	jmpq   d2c0 <g_dir_close@plt-0x10>

000000000000d7f0 <g_list_remove_link@plt>:
    d7f0:	ff 25 b2 ea 23 00    	jmpq   *0x23eab2(%rip)        # 24c2a8 <pango_tab_align_get_type+0x220a88>
    d7f6:	68 52 00 00 00       	pushq  $0x52
    d7fb:	e9 c0 fa ff ff       	jmpq   d2c0 <g_dir_close@plt-0x10>

000000000000d800 <g_file_error_quark@plt>:
    d800:	ff 25 aa ea 23 00    	jmpq   *0x23eaaa(%rip)        # 24c2b0 <pango_tab_align_get_type+0x220a90>
    d806:	68 53 00 00 00       	pushq  $0x53
    d80b:	e9 b0 fa ff ff       	jmpq   d2c0 <g_dir_close@plt-0x10>

000000000000d810 <g_array_free@plt>:
    d810:	ff 25 a2 ea 23 00    	jmpq   *0x23eaa2(%rip)        # 24c2b8 <pango_tab_align_get_type+0x220a98>
    d816:	68 54 00 00 00       	pushq  $0x54
    d81b:	e9 a0 fa ff ff       	jmpq   d2c0 <g_dir_close@plt-0x10>

000000000000d820 <g_markup_parse_context_new@plt>:
    d820:	ff 25 9a ea 23 00    	jmpq   *0x23ea9a(%rip)        # 24c2c0 <pango_tab_align_get_type+0x220aa0>
    d826:	68 55 00 00 00       	pushq  $0x55
    d82b:	e9 90 fa ff ff       	jmpq   d2c0 <g_dir_close@plt-0x10>

000000000000d830 <strcmp@plt>:
    d830:	ff 25 92 ea 23 00    	jmpq   *0x23ea92(%rip)        # 24c2c8 <pango_tab_align_get_type+0x220aa8>
    d836:	68 56 00 00 00       	pushq  $0x56
    d83b:	e9 80 fa ff ff       	jmpq   d2c0 <g_dir_close@plt-0x10>

000000000000d840 <g_ptr_array_add@plt>:
    d840:	ff 25 8a ea 23 00    	jmpq   *0x23ea8a(%rip)        # 24c2d0 <pango_tab_align_get_type+0x220ab0>
    d846:	68 57 00 00 00       	pushq  $0x57
    d84b:	e9 70 fa ff ff       	jmpq   d2c0 <g_dir_close@plt-0x10>

000000000000d850 <g_strdup_printf@plt>:
    d850:	ff 25 82 ea 23 00    	jmpq   *0x23ea82(%rip)        # 24c2d8 <pango_tab_align_get_type+0x220ab8>
    d856:	68 58 00 00 00       	pushq  $0x58
    d85b:	e9 60 fa ff ff       	jmpq   d2c0 <g_dir_close@plt-0x10>

000000000000d860 <g_type_class_peek_parent@plt>:
    d860:	ff 25 7a ea 23 00    	jmpq   *0x23ea7a(%rip)        # 24c2e0 <pango_tab_align_get_type+0x220ac0>
    d866:	68 59 00 00 00       	pushq  $0x59
    d86b:	e9 50 fa ff ff       	jmpq   d2c0 <g_dir_close@plt-0x10>

000000000000d870 <g_ptr_array_new@plt>:
    d870:	ff 25 72 ea 23 00    	jmpq   *0x23ea72(%rip)        # 24c2e8 <pango_tab_align_get_type+0x220ac8>
    d876:	68 5a 00 00 00       	pushq  $0x5a
    d87b:	e9 40 fa ff ff       	jmpq   d2c0 <g_dir_close@plt-0x10>

000000000000d880 <g_hash_table_new_full@plt>:
    d880:	ff 25 6a ea 23 00    	jmpq   *0x23ea6a(%rip)        # 24c2f0 <pango_tab_align_get_type+0x220ad0>
    d886:	68 5b 00 00 00       	pushq  $0x5b
    d88b:	e9 30 fa ff ff       	jmpq   d2c0 <g_dir_close@plt-0x10>

000000000000d890 <__gmon_start__@plt>:
    d890:	ff 25 62 ea 23 00    	jmpq   *0x23ea62(%rip)        # 24c2f8 <pango_tab_align_get_type+0x220ad8>
    d896:	68 5c 00 00 00       	pushq  $0x5c
    d89b:	e9 20 fa ff ff       	jmpq   d2c0 <g_dir_close@plt-0x10>

000000000000d8a0 <g_object_ref@plt>:
    d8a0:	ff 25 5a ea 23 00    	jmpq   *0x23ea5a(%rip)        # 24c300 <pango_tab_align_get_type+0x220ae0>
    d8a6:	68 5d 00 00 00       	pushq  $0x5d
    d8ab:	e9 10 fa ff ff       	jmpq   d2c0 <g_dir_close@plt-0x10>

000000000000d8b0 <strtol@plt>:
    d8b0:	ff 25 52 ea 23 00    	jmpq   *0x23ea52(%rip)        # 24c308 <pango_tab_align_get_type+0x220ae8>
    d8b6:	68 5e 00 00 00       	pushq  $0x5e
    d8bb:	e9 00 fa ff ff       	jmpq   d2c0 <g_dir_close@plt-0x10>

000000000000d8c0 <memcpy@plt>:
    d8c0:	ff 25 4a ea 23 00    	jmpq   *0x23ea4a(%rip)        # 24c310 <pango_tab_align_get_type+0x220af0>
    d8c6:	68 5f 00 00 00       	pushq  $0x5f
    d8cb:	e9 f0 f9 ff ff       	jmpq   d2c0 <g_dir_close@plt-0x10>

000000000000d8d0 <g_enum_get_value_by_nick@plt>:
    d8d0:	ff 25 42 ea 23 00    	jmpq   *0x23ea42(%rip)        # 24c318 <pango_tab_align_get_type+0x220af8>
    d8d6:	68 60 00 00 00       	pushq  $0x60
    d8db:	e9 e0 f9 ff ff       	jmpq   d2c0 <g_dir_close@plt-0x10>

000000000000d8e0 <g_unichar_type@plt>:
    d8e0:	ff 25 3a ea 23 00    	jmpq   *0x23ea3a(%rip)        # 24c320 <pango_tab_align_get_type+0x220b00>
    d8e6:	68 61 00 00 00       	pushq  $0x61
    d8eb:	e9 d0 f9 ff ff       	jmpq   d2c0 <g_dir_close@plt-0x10>

000000000000d8f0 <g_realloc_n@plt>:
    d8f0:	ff 25 32 ea 23 00    	jmpq   *0x23ea32(%rip)        # 24c328 <pango_tab_align_get_type+0x220b08>
    d8f6:	68 62 00 00 00       	pushq  $0x62
    d8fb:	e9 c0 f9 ff ff       	jmpq   d2c0 <g_dir_close@plt-0x10>

000000000000d900 <g_array_append_vals@plt>:
    d900:	ff 25 2a ea 23 00    	jmpq   *0x23ea2a(%rip)        # 24c330 <pango_tab_align_get_type+0x220b10>
    d906:	68 63 00 00 00       	pushq  $0x63
    d90b:	e9 b0 f9 ff ff       	jmpq   d2c0 <g_dir_close@plt-0x10>

000000000000d910 <g_markup_parse_context_get_position@plt>:
    d910:	ff 25 22 ea 23 00    	jmpq   *0x23ea22(%rip)        # 24c338 <pango_tab_align_get_type+0x220b18>
    d916:	68 64 00 00 00       	pushq  $0x64
    d91b:	e9 a0 f9 ff ff       	jmpq   d2c0 <g_dir_close@plt-0x10>

000000000000d920 <g_slist_alloc@plt>:
    d920:	ff 25 1a ea 23 00    	jmpq   *0x23ea1a(%rip)        # 24c340 <pango_tab_align_get_type+0x220b20>
    d926:	68 65 00 00 00       	pushq  $0x65
    d92b:	e9 90 f9 ff ff       	jmpq   d2c0 <g_dir_close@plt-0x10>

000000000000d930 <g_slist_concat@plt>:
    d930:	ff 25 12 ea 23 00    	jmpq   *0x23ea12(%rip)        # 24c348 <pango_tab_align_get_type+0x220b28>
    d936:	68 66 00 00 00       	pushq  $0x66
    d93b:	e9 80 f9 ff ff       	jmpq   d2c0 <g_dir_close@plt-0x10>

000000000000d940 <g_slist_delete_link@plt>:
    d940:	ff 25 0a ea 23 00    	jmpq   *0x23ea0a(%rip)        # 24c350 <pango_tab_align_get_type+0x220b30>
    d946:	68 67 00 00 00       	pushq  $0x67
    d94b:	e9 70 f9 ff ff       	jmpq   d2c0 <g_dir_close@plt-0x10>

000000000000d950 <th_brk@plt>:
    d950:	ff 25 02 ea 23 00    	jmpq   *0x23ea02(%rip)        # 24c358 <pango_tab_align_get_type+0x220b38>
    d956:	68 68 00 00 00       	pushq  $0x68
    d95b:	e9 60 f9 ff ff       	jmpq   d2c0 <g_dir_close@plt-0x10>

000000000000d960 <g_key_file_load_from_file@plt>:
    d960:	ff 25 fa e9 23 00    	jmpq   *0x23e9fa(%rip)        # 24c360 <pango_tab_align_get_type+0x220b40>
    d966:	68 69 00 00 00       	pushq  $0x69
    d96b:	e9 50 f9 ff ff       	jmpq   d2c0 <g_dir_close@plt-0x10>

000000000000d970 <g_path_is_absolute@plt>:
    d970:	ff 25 f2 e9 23 00    	jmpq   *0x23e9f2(%rip)        # 24c368 <pango_tab_align_get_type+0x220b48>
    d976:	68 6a 00 00 00       	pushq  $0x6a
    d97b:	e9 40 f9 ff ff       	jmpq   d2c0 <g_dir_close@plt-0x10>

000000000000d980 <g_type_class_add_private@plt>:
    d980:	ff 25 ea e9 23 00    	jmpq   *0x23e9ea(%rip)        # 24c370 <pango_tab_align_get_type+0x220b50>
    d986:	68 6b 00 00 00       	pushq  $0x6b
    d98b:	e9 30 f9 ff ff       	jmpq   d2c0 <g_dir_close@plt-0x10>

000000000000d990 <g_slist_free_1@plt>:
    d990:	ff 25 e2 e9 23 00    	jmpq   *0x23e9e2(%rip)        # 24c378 <pango_tab_align_get_type+0x220b58>
    d996:	68 6c 00 00 00       	pushq  $0x6c
    d99b:	e9 20 f9 ff ff       	jmpq   d2c0 <g_dir_close@plt-0x10>

000000000000d9a0 <g_module_open@plt>:
    d9a0:	ff 25 da e9 23 00    	jmpq   *0x23e9da(%rip)        # 24c380 <pango_tab_align_get_type+0x220b60>
    d9a6:	68 6d 00 00 00       	pushq  $0x6d
    d9ab:	e9 10 f9 ff ff       	jmpq   d2c0 <g_dir_close@plt-0x10>

000000000000d9b0 <g_malloc_n@plt>:
    d9b0:	ff 25 d2 e9 23 00    	jmpq   *0x23e9d2(%rip)        # 24c388 <pango_tab_align_get_type+0x220b68>
    d9b6:	68 6e 00 00 00       	pushq  $0x6e
    d9bb:	e9 00 f9 ff ff       	jmpq   d2c0 <g_dir_close@plt-0x10>

000000000000d9c0 <g_string_truncate@plt>:
    d9c0:	ff 25 ca e9 23 00    	jmpq   *0x23e9ca(%rip)        # 24c390 <pango_tab_align_get_type+0x220b70>
    d9c6:	68 6f 00 00 00       	pushq  $0x6f
    d9cb:	e9 f0 f8 ff ff       	jmpq   d2c0 <g_dir_close@plt-0x10>

000000000000d9d0 <g_key_file_get_value@plt>:
    d9d0:	ff 25 c2 e9 23 00    	jmpq   *0x23e9c2(%rip)        # 24c398 <pango_tab_align_get_type+0x220b78>
    d9d6:	68 70 00 00 00       	pushq  $0x70
    d9db:	e9 e0 f8 ff ff       	jmpq   d2c0 <g_dir_close@plt-0x10>

000000000000d9e0 <ungetc@plt>:
    d9e0:	ff 25 ba e9 23 00    	jmpq   *0x23e9ba(%rip)        # 24c3a0 <pango_tab_align_get_type+0x220b80>
    d9e6:	68 71 00 00 00       	pushq  $0x71
    d9eb:	e9 d0 f8 ff ff       	jmpq   d2c0 <g_dir_close@plt-0x10>

000000000000d9f0 <g_type_register_static_simple@plt>:
    d9f0:	ff 25 b2 e9 23 00    	jmpq   *0x23e9b2(%rip)        # 24c3a8 <pango_tab_align_get_type+0x220b88>
    d9f6:	68 72 00 00 00       	pushq  $0x72
    d9fb:	e9 c0 f8 ff ff       	jmpq   d2c0 <g_dir_close@plt-0x10>

000000000000da00 <g_hash_table_insert@plt>:
    da00:	ff 25 aa e9 23 00    	jmpq   *0x23e9aa(%rip)        # 24c3b0 <pango_tab_align_get_type+0x220b90>
    da06:	68 73 00 00 00       	pushq  $0x73
    da0b:	e9 b0 f8 ff ff       	jmpq   d2c0 <g_dir_close@plt-0x10>

000000000000da10 <g_markup_parse_context_get_user_data@plt>:
    da10:	ff 25 a2 e9 23 00    	jmpq   *0x23e9a2(%rip)        # 24c3b8 <pango_tab_align_get_type+0x220b98>
    da16:	68 74 00 00 00       	pushq  $0x74
    da1b:	e9 a0 f8 ff ff       	jmpq   d2c0 <g_dir_close@plt-0x10>

000000000000da20 <g_type_class_ref@plt>:
    da20:	ff 25 9a e9 23 00    	jmpq   *0x23e99a(%rip)        # 24c3c0 <pango_tab_align_get_type+0x220ba0>
    da26:	68 75 00 00 00       	pushq  $0x75
    da2b:	e9 90 f8 ff ff       	jmpq   d2c0 <g_dir_close@plt-0x10>

000000000000da30 <strpbrk@plt>:
    da30:	ff 25 92 e9 23 00    	jmpq   *0x23e992(%rip)        # 24c3c8 <pango_tab_align_get_type+0x220ba8>
    da36:	68 76 00 00 00       	pushq  $0x76
    da3b:	e9 80 f8 ff ff       	jmpq   d2c0 <g_dir_close@plt-0x10>

000000000000da40 <g_strfreev@plt>:
    da40:	ff 25 8a e9 23 00    	jmpq   *0x23e98a(%rip)        # 24c3d0 <pango_tab_align_get_type+0x220bb0>
    da46:	68 77 00 00 00       	pushq  $0x77
    da4b:	e9 70 f8 ff ff       	jmpq   d2c0 <g_dir_close@plt-0x10>

000000000000da50 <g_string_append_printf@plt>:
    da50:	ff 25 82 e9 23 00    	jmpq   *0x23e982(%rip)        # 24c3d8 <pango_tab_align_get_type+0x220bb8>
    da56:	68 78 00 00 00       	pushq  $0x78
    da5b:	e9 60 f8 ff ff       	jmpq   d2c0 <g_dir_close@plt-0x10>

000000000000da60 <g_object_set_qdata_full@plt>:
    da60:	ff 25 7a e9 23 00    	jmpq   *0x23e97a(%rip)        # 24c3e0 <pango_tab_align_get_type+0x220bc0>
    da66:	68 79 00 00 00       	pushq  $0x79
    da6b:	e9 50 f8 ff ff       	jmpq   d2c0 <g_dir_close@plt-0x10>

000000000000da70 <g_log@plt>:
    da70:	ff 25 72 e9 23 00    	jmpq   *0x23e972(%rip)        # 24c3e8 <pango_tab_align_get_type+0x220bc8>
    da76:	68 7a 00 00 00       	pushq  $0x7a
    da7b:	e9 40 f8 ff ff       	jmpq   d2c0 <g_dir_close@plt-0x10>

000000000000da80 <g_hash_table_unref@plt>:
    da80:	ff 25 6a e9 23 00    	jmpq   *0x23e96a(%rip)        # 24c3f0 <pango_tab_align_get_type+0x220bd0>
    da86:	68 7b 00 00 00       	pushq  $0x7b
    da8b:	e9 30 f8 ff ff       	jmpq   d2c0 <g_dir_close@plt-0x10>

000000000000da90 <g_slist_append@plt>:
    da90:	ff 25 62 e9 23 00    	jmpq   *0x23e962(%rip)        # 24c3f8 <pango_tab_align_get_type+0x220bd8>
    da96:	68 7c 00 00 00       	pushq  $0x7c
    da9b:	e9 20 f8 ff ff       	jmpq   d2c0 <g_dir_close@plt-0x10>

000000000000daa0 <g_object_get_qdata@plt>:
    daa0:	ff 25 5a e9 23 00    	jmpq   *0x23e95a(%rip)        # 24c400 <pango_tab_align_get_type+0x220be0>
    daa6:	68 7d 00 00 00       	pushq  $0x7d
    daab:	e9 10 f8 ff ff       	jmpq   d2c0 <g_dir_close@plt-0x10>

000000000000dab0 <g_flags_register_static@plt>:
    dab0:	ff 25 52 e9 23 00    	jmpq   *0x23e952(%rip)        # 24c408 <pango_tab_align_get_type+0x220be8>
    dab6:	68 7e 00 00 00       	pushq  $0x7e
    dabb:	e9 00 f8 ff ff       	jmpq   d2c0 <g_dir_close@plt-0x10>

000000000000dac0 <g_key_file_free@plt>:
    dac0:	ff 25 4a e9 23 00    	jmpq   *0x23e94a(%rip)        # 24c410 <pango_tab_align_get_type+0x220bf0>
    dac6:	68 7f 00 00 00       	pushq  $0x7f
    dacb:	e9 f0 f7 ff ff       	jmpq   d2c0 <g_dir_close@plt-0x10>

000000000000dad0 <g_type_instance_get_private@plt>:
    dad0:	ff 25 42 e9 23 00    	jmpq   *0x23e942(%rip)        # 24c418 <pango_tab_align_get_type+0x220bf8>
    dad6:	68 80 00 00 00       	pushq  $0x80
    dadb:	e9 e0 f7 ff ff       	jmpq   d2c0 <g_dir_close@plt-0x10>

000000000000dae0 <setlocale@plt>:
    dae0:	ff 25 3a e9 23 00    	jmpq   *0x23e93a(%rip)        # 24c420 <pango_tab_align_get_type+0x220c00>
    dae6:	68 81 00 00 00       	pushq  $0x81
    daeb:	e9 d0 f7 ff ff       	jmpq   d2c0 <g_dir_close@plt-0x10>

000000000000daf0 <g_unichar_break_type@plt>:
    daf0:	ff 25 32 e9 23 00    	jmpq   *0x23e932(%rip)        # 24c428 <pango_tab_align_get_type+0x220c08>
    daf6:	68 82 00 00 00       	pushq  $0x82
    dafb:	e9 c0 f7 ff ff       	jmpq   d2c0 <g_dir_close@plt-0x10>

000000000000db00 <g_hash_table_destroy@plt>:
    db00:	ff 25 2a e9 23 00    	jmpq   *0x23e92a(%rip)        # 24c430 <pango_tab_align_get_type+0x220c10>
    db06:	68 83 00 00 00       	pushq  $0x83
    db0b:	e9 b0 f7 ff ff       	jmpq   d2c0 <g_dir_close@plt-0x10>

000000000000db10 <g_mutex_lock@plt>:
    db10:	ff 25 22 e9 23 00    	jmpq   *0x23e922(%rip)        # 24c438 <pango_tab_align_get_type+0x220c18>
    db16:	68 84 00 00 00       	pushq  $0x84
    db1b:	e9 a0 f7 ff ff       	jmpq   d2c0 <g_dir_close@plt-0x10>

000000000000db20 <g_list_free@plt>:
    db20:	ff 25 1a e9 23 00    	jmpq   *0x23e91a(%rip)        # 24c440 <pango_tab_align_get_type+0x220c20>
    db26:	68 85 00 00 00       	pushq  $0x85
    db2b:	e9 90 f7 ff ff       	jmpq   d2c0 <g_dir_close@plt-0x10>

000000000000db30 <memmove@plt>:
    db30:	ff 25 12 e9 23 00    	jmpq   *0x23e912(%rip)        # 24c448 <pango_tab_align_get_type+0x220c28>
    db36:	68 86 00 00 00       	pushq  $0x86
    db3b:	e9 80 f7 ff ff       	jmpq   d2c0 <g_dir_close@plt-0x10>

000000000000db40 <g_enum_get_value@plt>:
    db40:	ff 25 0a e9 23 00    	jmpq   *0x23e90a(%rip)        # 24c450 <pango_tab_align_get_type+0x220c30>
    db46:	68 87 00 00 00       	pushq  $0x87
    db4b:	e9 70 f7 ff ff       	jmpq   d2c0 <g_dir_close@plt-0x10>

000000000000db50 <g_key_file_get_keys@plt>:
    db50:	ff 25 02 e9 23 00    	jmpq   *0x23e902(%rip)        # 24c458 <pango_tab_align_get_type+0x220c38>
    db56:	68 88 00 00 00       	pushq  $0x88
    db5b:	e9 60 f7 ff ff       	jmpq   d2c0 <g_dir_close@plt-0x10>

000000000000db60 <g_string_append@plt>:
    db60:	ff 25 fa e8 23 00    	jmpq   *0x23e8fa(%rip)        # 24c460 <pango_tab_align_get_type+0x220c40>
    db66:	68 89 00 00 00       	pushq  $0x89
    db6b:	e9 50 f7 ff ff       	jmpq   d2c0 <g_dir_close@plt-0x10>

000000000000db70 <g_malloc0_n@plt>:
    db70:	ff 25 f2 e8 23 00    	jmpq   *0x23e8f2(%rip)        # 24c468 <pango_tab_align_get_type+0x220c48>
    db76:	68 8a 00 00 00       	pushq  $0x8a
    db7b:	e9 40 f7 ff ff       	jmpq   d2c0 <g_dir_close@plt-0x10>

000000000000db80 <g_ascii_xdigit_value@plt>:
    db80:	ff 25 ea e8 23 00    	jmpq   *0x23e8ea(%rip)        # 24c470 <pango_tab_align_get_type+0x220c50>
    db86:	68 8b 00 00 00       	pushq  $0x8b
    db8b:	e9 30 f7 ff ff       	jmpq   d2c0 <g_dir_close@plt-0x10>

000000000000db90 <g_strchug@plt>:
    db90:	ff 25 e2 e8 23 00    	jmpq   *0x23e8e2(%rip)        # 24c478 <pango_tab_align_get_type+0x220c58>
    db96:	68 8c 00 00 00       	pushq  $0x8c
    db9b:	e9 20 f7 ff ff       	jmpq   d2c0 <g_dir_close@plt-0x10>

000000000000dba0 <g_realloc@plt>:
    dba0:	ff 25 da e8 23 00    	jmpq   *0x23e8da(%rip)        # 24c480 <pango_tab_align_get_type+0x220c60>
    dba6:	68 8d 00 00 00       	pushq  $0x8d
    dbab:	e9 10 f7 ff ff       	jmpq   d2c0 <g_dir_close@plt-0x10>

000000000000dbb0 <g_memdup@plt>:
    dbb0:	ff 25 d2 e8 23 00    	jmpq   *0x23e8d2(%rip)        # 24c488 <pango_tab_align_get_type+0x220c68>
    dbb6:	68 8e 00 00 00       	pushq  $0x8e
    dbbb:	e9 00 f7 ff ff       	jmpq   d2c0 <g_dir_close@plt-0x10>

000000000000dbc0 <g_key_file_get_groups@plt>:
    dbc0:	ff 25 ca e8 23 00    	jmpq   *0x23e8ca(%rip)        # 24c490 <pango_tab_align_get_type+0x220c70>
    dbc6:	68 8f 00 00 00       	pushq  $0x8f
    dbcb:	e9 f0 f6 ff ff       	jmpq   d2c0 <g_dir_close@plt-0x10>

000000000000dbd0 <g_type_check_instance_is_a@plt>:
    dbd0:	ff 25 c2 e8 23 00    	jmpq   *0x23e8c2(%rip)        # 24c498 <pango_tab_align_get_type+0x220c78>
    dbd6:	68 90 00 00 00       	pushq  $0x90
    dbdb:	e9 e0 f6 ff ff       	jmpq   d2c0 <g_dir_close@plt-0x10>

000000000000dbe0 <g_strchomp@plt>:
    dbe0:	ff 25 ba e8 23 00    	jmpq   *0x23e8ba(%rip)        # 24c4a0 <pango_tab_align_get_type+0x220c80>
    dbe6:	68 91 00 00 00       	pushq  $0x91
    dbeb:	e9 d0 f6 ff ff       	jmpq   d2c0 <g_dir_close@plt-0x10>

000000000000dbf0 <g_slice_alloc0@plt>:
    dbf0:	ff 25 b2 e8 23 00    	jmpq   *0x23e8b2(%rip)        # 24c4a8 <pango_tab_align_get_type+0x220c88>
    dbf6:	68 92 00 00 00       	pushq  $0x92
    dbfb:	e9 c0 f6 ff ff       	jmpq   d2c0 <g_dir_close@plt-0x10>

000000000000dc00 <fopen@plt>:
    dc00:	ff 25 aa e8 23 00    	jmpq   *0x23e8aa(%rip)        # 24c4b0 <pango_tab_align_get_type+0x220c90>
    dc06:	68 93 00 00 00       	pushq  $0x93
    dc0b:	e9 b0 f6 ff ff       	jmpq   d2c0 <g_dir_close@plt-0x10>

000000000000dc10 <g_type_module_register_type@plt>:
    dc10:	ff 25 a2 e8 23 00    	jmpq   *0x23e8a2(%rip)        # 24c4b8 <pango_tab_align_get_type+0x220c98>
    dc16:	68 94 00 00 00       	pushq  $0x94
    dc1b:	e9 a0 f6 ff ff       	jmpq   d2c0 <g_dir_close@plt-0x10>

000000000000dc20 <g_list_copy@plt>:
    dc20:	ff 25 9a e8 23 00    	jmpq   *0x23e89a(%rip)        # 24c4c0 <pango_tab_align_get_type+0x220ca0>
    dc26:	68 95 00 00 00       	pushq  $0x95
    dc2b:	e9 90 f6 ff ff       	jmpq   d2c0 <g_dir_close@plt-0x10>

000000000000dc30 <g_slice_copy@plt>:
    dc30:	ff 25 92 e8 23 00    	jmpq   *0x23e892(%rip)        # 24c4c8 <pango_tab_align_get_type+0x220ca8>
    dc36:	68 96 00 00 00       	pushq  $0x96
    dc3b:	e9 80 f6 ff ff       	jmpq   d2c0 <g_dir_close@plt-0x10>

000000000000dc40 <g_malloc0@plt>:
    dc40:	ff 25 8a e8 23 00    	jmpq   *0x23e88a(%rip)        # 24c4d0 <pango_tab_align_get_type+0x220cb0>
    dc46:	68 97 00 00 00       	pushq  $0x97
    dc4b:	e9 70 f6 ff ff       	jmpq   d2c0 <g_dir_close@plt-0x10>

000000000000dc50 <g_boxed_type_register_static@plt>:
    dc50:	ff 25 82 e8 23 00    	jmpq   *0x23e882(%rip)        # 24c4d8 <pango_tab_align_get_type+0x220cb8>
    dc56:	68 98 00 00 00       	pushq  $0x98
    dc5b:	e9 60 f6 ff ff       	jmpq   d2c0 <g_dir_close@plt-0x10>

000000000000dc60 <g_markup_parse_context_parse@plt>:
    dc60:	ff 25 7a e8 23 00    	jmpq   *0x23e87a(%rip)        # 24c4e0 <pango_tab_align_get_type+0x220cc0>
    dc66:	68 99 00 00 00       	pushq  $0x99
    dc6b:	e9 50 f6 ff ff       	jmpq   d2c0 <g_dir_close@plt-0x10>

000000000000dc70 <floor@plt>:
    dc70:	ff 25 72 e8 23 00    	jmpq   *0x23e872(%rip)        # 24c4e8 <pango_tab_align_get_type+0x220cc8>
    dc76:	68 9a 00 00 00       	pushq  $0x9a
    dc7b:	e9 40 f6 ff ff       	jmpq   d2c0 <g_dir_close@plt-0x10>

000000000000dc80 <g_dir_read_name@plt>:
    dc80:	ff 25 6a e8 23 00    	jmpq   *0x23e86a(%rip)        # 24c4f0 <pango_tab_align_get_type+0x220cd0>
    dc86:	68 9b 00 00 00       	pushq  $0x9b
    dc8b:	e9 30 f6 ff ff       	jmpq   d2c0 <g_dir_close@plt-0x10>

000000000000dc90 <g_strdup@plt>:
    dc90:	ff 25 62 e8 23 00    	jmpq   *0x23e862(%rip)        # 24c4f8 <pango_tab_align_get_type+0x220cd8>
    dc96:	68 9c 00 00 00       	pushq  $0x9c
    dc9b:	e9 20 f6 ff ff       	jmpq   d2c0 <g_dir_close@plt-0x10>

000000000000dca0 <g_getenv@plt>:
    dca0:	ff 25 5a e8 23 00    	jmpq   *0x23e85a(%rip)        # 24c500 <pango_tab_align_get_type+0x220ce0>
    dca6:	68 9d 00 00 00       	pushq  $0x9d
    dcab:	e9 10 f6 ff ff       	jmpq   d2c0 <g_dir_close@plt-0x10>

000000000000dcb0 <g_ascii_dtostr@plt>:
    dcb0:	ff 25 52 e8 23 00    	jmpq   *0x23e852(%rip)        # 24c508 <pango_tab_align_get_type+0x220ce8>
    dcb6:	68 9e 00 00 00       	pushq  $0x9e
    dcbb:	e9 00 f6 ff ff       	jmpq   d2c0 <g_dir_close@plt-0x10>

000000000000dcc0 <g_slice_free1@plt>:
    dcc0:	ff 25 4a e8 23 00    	jmpq   *0x23e84a(%rip)        # 24c510 <pango_tab_align_get_type+0x220cf0>
    dcc6:	68 9f 00 00 00       	pushq  $0x9f
    dccb:	e9 f0 f5 ff ff       	jmpq   d2c0 <g_dir_close@plt-0x10>

000000000000dcd0 <g_slist_nth@plt>:
    dcd0:	ff 25 42 e8 23 00    	jmpq   *0x23e842(%rip)        # 24c518 <pango_tab_align_get_type+0x220cf8>
    dcd6:	68 a0 00 00 00       	pushq  $0xa0
    dcdb:	e9 e0 f5 ff ff       	jmpq   d2c0 <g_dir_close@plt-0x10>

000000000000dce0 <g_ptr_array_free@plt>:
    dce0:	ff 25 3a e8 23 00    	jmpq   *0x23e83a(%rip)        # 24c520 <pango_tab_align_get_type+0x220d00>
    dce6:	68 a1 00 00 00       	pushq  $0xa1
    dceb:	e9 d0 f5 ff ff       	jmpq   d2c0 <g_dir_close@plt-0x10>

000000000000dcf0 <g_unichar_iswide@plt>:
    dcf0:	ff 25 32 e8 23 00    	jmpq   *0x23e832(%rip)        # 24c528 <pango_tab_align_get_type+0x220d08>
    dcf6:	68 a2 00 00 00       	pushq  $0xa2
    dcfb:	e9 c0 f5 ff ff       	jmpq   d2c0 <g_dir_close@plt-0x10>

000000000000dd00 <g_hash_table_lookup_extended@plt>:
    dd00:	ff 25 2a e8 23 00    	jmpq   *0x23e82a(%rip)        # 24c530 <pango_tab_align_get_type+0x220d10>
    dd06:	68 a3 00 00 00       	pushq  $0xa3
    dd0b:	e9 b0 f5 ff ff       	jmpq   d2c0 <g_dir_close@plt-0x10>

000000000000dd10 <g_list_free_1@plt>:
    dd10:	ff 25 22 e8 23 00    	jmpq   *0x23e822(%rip)        # 24c538 <pango_tab_align_get_type+0x220d18>
    dd16:	68 a4 00 00 00       	pushq  $0xa4
    dd1b:	e9 a0 f5 ff ff       	jmpq   d2c0 <g_dir_close@plt-0x10>

000000000000dd20 <g_module_symbol@plt>:
    dd20:	ff 25 1a e8 23 00    	jmpq   *0x23e81a(%rip)        # 24c540 <pango_tab_align_get_type+0x220d20>
    dd26:	68 a5 00 00 00       	pushq  $0xa5
    dd2b:	e9 90 f5 ff ff       	jmpq   d2c0 <g_dir_close@plt-0x10>

000000000000dd30 <g_type_qname@plt>:
    dd30:	ff 25 12 e8 23 00    	jmpq   *0x23e812(%rip)        # 24c548 <pango_tab_align_get_type+0x220d28>
    dd36:	68 a6 00 00 00       	pushq  $0xa6
    dd3b:	e9 80 f5 ff ff       	jmpq   d2c0 <g_dir_close@plt-0x10>

000000000000dd40 <g_quark_from_string@plt>:
    dd40:	ff 25 0a e8 23 00    	jmpq   *0x23e80a(%rip)        # 24c550 <pango_tab_align_get_type+0x220d30>
    dd46:	68 a7 00 00 00       	pushq  $0xa7
    dd4b:	e9 70 f5 ff ff       	jmpq   d2c0 <g_dir_close@plt-0x10>

000000000000dd50 <g_unichar_get_script@plt>:
    dd50:	ff 25 02 e8 23 00    	jmpq   *0x23e802(%rip)        # 24c558 <pango_tab_align_get_type+0x220d38>
    dd56:	68 a8 00 00 00       	pushq  $0xa8
    dd5b:	e9 60 f5 ff ff       	jmpq   d2c0 <g_dir_close@plt-0x10>

000000000000dd60 <sqrt@plt>:
    dd60:	ff 25 fa e7 23 00    	jmpq   *0x23e7fa(%rip)        # 24c560 <pango_tab_align_get_type+0x220d40>
    dd66:	68 a9 00 00 00       	pushq  $0xa9
    dd6b:	e9 50 f5 ff ff       	jmpq   d2c0 <g_dir_close@plt-0x10>

000000000000dd70 <g_strndup@plt>:
    dd70:	ff 25 f2 e7 23 00    	jmpq   *0x23e7f2(%rip)        # 24c568 <pango_tab_align_get_type+0x220d48>
    dd76:	68 aa 00 00 00       	pushq  $0xaa
    dd7b:	e9 40 f5 ff ff       	jmpq   d2c0 <g_dir_close@plt-0x10>

000000000000dd80 <g_unichar_isgraph@plt>:
    dd80:	ff 25 ea e7 23 00    	jmpq   *0x23e7ea(%rip)        # 24c570 <pango_tab_align_get_type+0x220d50>
    dd86:	68 ab 00 00 00       	pushq  $0xab
    dd8b:	e9 30 f5 ff ff       	jmpq   d2c0 <g_dir_close@plt-0x10>

000000000000dd90 <g_quark_to_string@plt>:
    dd90:	ff 25 e2 e7 23 00    	jmpq   *0x23e7e2(%rip)        # 24c578 <pango_tab_align_get_type+0x220d58>
    dd96:	68 ac 00 00 00       	pushq  $0xac
    dd9b:	e9 20 f5 ff ff       	jmpq   d2c0 <g_dir_close@plt-0x10>

000000000000dda0 <g_utf8_prev_char@plt>:
    dda0:	ff 25 da e7 23 00    	jmpq   *0x23e7da(%rip)        # 24c580 <pango_tab_align_get_type+0x220d60>
    dda6:	68 ad 00 00 00       	pushq  $0xad
    ddab:	e9 10 f5 ff ff       	jmpq   d2c0 <g_dir_close@plt-0x10>

000000000000ddb0 <ceil@plt>:
    ddb0:	ff 25 d2 e7 23 00    	jmpq   *0x23e7d2(%rip)        # 24c588 <pango_tab_align_get_type+0x220d68>
    ddb6:	68 ae 00 00 00       	pushq  $0xae
    ddbb:	e9 00 f5 ff ff       	jmpq   d2c0 <g_dir_close@plt-0x10>

000000000000ddc0 <g_slice_alloc@plt>:
    ddc0:	ff 25 ca e7 23 00    	jmpq   *0x23e7ca(%rip)        # 24c590 <pango_tab_align_get_type+0x220d70>
    ddc6:	68 af 00 00 00       	pushq  $0xaf
    ddcb:	e9 f0 f4 ff ff       	jmpq   d2c0 <g_dir_close@plt-0x10>

000000000000ddd0 <__cxa_finalize@plt>:
    ddd0:	ff 25 c2 e7 23 00    	jmpq   *0x23e7c2(%rip)        # 24c598 <pango_tab_align_get_type+0x220d78>
    ddd6:	68 b0 00 00 00       	pushq  $0xb0
    dddb:	e9 e0 f4 ff ff       	jmpq   d2c0 <g_dir_close@plt-0x10>

000000000000dde0 <g_string_append_len@plt>:
    dde0:	ff 25 ba e7 23 00    	jmpq   *0x23e7ba(%rip)        # 24c5a0 <pango_tab_align_get_type+0x220d80>
    dde6:	68 b1 00 00 00       	pushq  $0xb1
    ddeb:	e9 d0 f4 ff ff       	jmpq   d2c0 <g_dir_close@plt-0x10>

000000000000ddf0 <g_string_insert_c@plt>:
    ddf0:	ff 25 b2 e7 23 00    	jmpq   *0x23e7b2(%rip)        # 24c5a8 <pango_tab_align_get_type+0x220d88>
    ddf6:	68 b2 00 00 00       	pushq  $0xb2
    ddfb:	e9 c0 f4 ff ff       	jmpq   d2c0 <g_dir_close@plt-0x10>

000000000000de00 <g_utf8_validate@plt>:
    de00:	ff 25 aa e7 23 00    	jmpq   *0x23e7aa(%rip)        # 24c5b0 <pango_tab_align_get_type+0x220d90>
    de06:	68 b3 00 00 00       	pushq  $0xb3
    de0b:	e9 b0 f4 ff ff       	jmpq   d2c0 <g_dir_close@plt-0x10>

000000000000de10 <g_utf8_pointer_to_offset@plt>:
    de10:	ff 25 a2 e7 23 00    	jmpq   *0x23e7a2(%rip)        # 24c5b8 <pango_tab_align_get_type+0x220d98>
    de16:	68 b4 00 00 00       	pushq  $0xb4
    de1b:	e9 a0 f4 ff ff       	jmpq   d2c0 <g_dir_close@plt-0x10>

000000000000de20 <g_list_foreach@plt>:
    de20:	ff 25 9a e7 23 00    	jmpq   *0x23e79a(%rip)        # 24c5c0 <pango_tab_align_get_type+0x220da0>
    de26:	68 b5 00 00 00       	pushq  $0xb5
    de2b:	e9 90 f4 ff ff       	jmpq   d2c0 <g_dir_close@plt-0x10>

000000000000de30 <g_error_free@plt>:
    de30:	ff 25 92 e7 23 00    	jmpq   *0x23e792(%rip)        # 24c5c8 <pango_tab_align_get_type+0x220da8>
    de36:	68 b6 00 00 00       	pushq  $0xb6
    de3b:	e9 80 f4 ff ff       	jmpq   d2c0 <g_dir_close@plt-0x10>

000000000000de40 <g_unichar_isspace@plt>:
    de40:	ff 25 8a e7 23 00    	jmpq   *0x23e78a(%rip)        # 24c5d0 <pango_tab_align_get_type+0x220db0>
    de46:	68 b7 00 00 00       	pushq  $0xb7
    de4b:	e9 70 f4 ff ff       	jmpq   d2c0 <g_dir_close@plt-0x10>

Disassembly of section .text:

000000000000de50 <pango_default_break-0x1110>:
    de50:	41 54                	push   %r12
    de52:	55                   	push   %rbp
    de53:	48 89 f5             	mov    %rsi,%rbp
    de56:	be 2d 00 00 00       	mov    $0x2d,%esi
    de5b:	53                   	push   %rbx
    de5c:	48 89 fb             	mov    %rdi,%rbx
    de5f:	e8 dc f7 ff ff       	callq  d640 <strchr@plt>
    de64:	48 85 c0             	test   %rax,%rax
    de67:	74 08                	je     de71 <g_unichar_isspace@plt+0x31>
    de69:	41 89 c4             	mov    %eax,%r12d
    de6c:	41 29 dc             	sub    %ebx,%r12d
    de6f:	eb 12                	jmp    de83 <g_unichar_isspace@plt+0x43>
    de71:	31 c0                	xor    %eax,%eax
    de73:	48 83 c9 ff          	or     $0xffffffffffffffff,%rcx
    de77:	48 89 df             	mov    %rbx,%rdi
    de7a:	f2 ae                	repnz scas %es:(%rdi),%al
    de7c:	48 f7 d1             	not    %rcx
    de7f:	44 8d 61 ff          	lea    -0x1(%rcx),%r12d
    de83:	be 2d 00 00 00       	mov    $0x2d,%esi
    de88:	48 89 ef             	mov    %rbp,%rdi
    de8b:	e8 b0 f7 ff ff       	callq  d640 <strchr@plt>
    de90:	48 85 c0             	test   %rax,%rax
    de93:	74 04                	je     de99 <g_unichar_isspace@plt+0x59>
    de95:	29 e8                	sub    %ebp,%eax
    de97:	eb 11                	jmp    deaa <g_unichar_isspace@plt+0x6a>
    de99:	31 c0                	xor    %eax,%eax
    de9b:	48 83 c9 ff          	or     $0xffffffffffffffff,%rcx
    de9f:	48 89 ef             	mov    %rbp,%rdi
    dea2:	f2 ae                	repnz scas %es:(%rdi),%al
    dea4:	48 f7 d1             	not    %rcx
    dea7:	8d 41 ff             	lea    -0x1(%rcx),%eax
    deaa:	44 39 e0             	cmp    %r12d,%eax
    dead:	48 89 df             	mov    %rbx,%rdi
    deb0:	48 89 ee             	mov    %rbp,%rsi
    deb3:	5b                   	pop    %rbx
    deb4:	44 0f 43 e0          	cmovae %eax,%r12d
    deb8:	5d                   	pop    %rbp
    deb9:	44 89 e2             	mov    %r12d,%edx
    debc:	41 5c                	pop    %r12
    debe:	e9 2d f5 ff ff       	jmpq   d3f0 <strncmp@plt>
    dec3:	41 57                	push   %r15
    dec5:	41 56                	push   %r14
    dec7:	41 55                	push   %r13
    dec9:	41 54                	push   %r12
    decb:	55                   	push   %rbp
    decc:	48 89 fd             	mov    %rdi,%rbp
    decf:	53                   	push   %rbx
    ded0:	48 83 ec 28          	sub    $0x28,%rsp
    ded4:	48 85 ff             	test   %rdi,%rdi
    ded7:	48 89 74 24 10       	mov    %rsi,0x10(%rsp)
    dedc:	48 89 54 24 08       	mov    %rdx,0x8(%rsp)
    dee1:	89 4c 24 18          	mov    %ecx,0x18(%rsp)
    dee5:	44 89 44 24 1c       	mov    %r8d,0x1c(%rsp)
    deea:	0f 84 af 00 00 00    	je     df9f <g_unichar_isspace@plt+0x15f>
    def0:	45 89 c5             	mov    %r8d,%r13d
    def3:	41 89 cf             	mov    %ecx,%r15d
    def6:	45 31 f6             	xor    %r14d,%r14d
    def9:	4d 39 fe             	cmp    %r15,%r14
    defc:	0f 83 9d 00 00 00    	jae    df9f <g_unichar_isspace@plt+0x15f>
    df02:	4f 8d 24 37          	lea    (%r15,%r14,1),%r12
    df06:	48 89 ef             	mov    %rbp,%rdi
    df09:	49 d1 ec             	shr    %r12
    df0c:	4c 89 e3             	mov    %r12,%rbx
    df0f:	49 0f af dd          	imul   %r13,%rbx
    df13:	48 03 5c 24 08       	add    0x8(%rsp),%rbx
    df18:	48 89 de             	mov    %rbx,%rsi
    df1b:	e8 30 ff ff ff       	callq  de50 <g_unichar_isspace@plt+0x10>
    df20:	85 c0                	test   %eax,%eax
    df22:	79 05                	jns    df29 <g_unichar_isspace@plt+0xe9>
    df24:	4d 89 e7             	mov    %r12,%r15
    df27:	eb d0                	jmp    def9 <g_unichar_isspace@plt+0xb9>
    df29:	74 07                	je     df32 <g_unichar_isspace@plt+0xf2>
    df2b:	4d 8d 74 24 01       	lea    0x1(%r12),%r14
    df30:	eb c7                	jmp    def9 <g_unichar_isspace@plt+0xb9>
    df32:	31 c0                	xor    %eax,%eax
    df34:	48 85 db             	test   %rbx,%rbx
    df37:	74 68                	je     dfa1 <g_unichar_isspace@plt+0x161>
    df39:	44 8b 7c 24 18       	mov    0x18(%rsp),%r15d
    df3e:	4d 89 ee             	mov    %r13,%r14
    df41:	44 0f af 7c 24 1c    	imul   0x1c(%rsp),%r15d
    df47:	49 f7 de             	neg    %r14
    df4a:	4c 03 7c 24 08       	add    0x8(%rsp),%r15
    df4f:	4f 8d 24 37          	lea    (%r15,%r14,1),%r12
    df53:	4c 39 e3             	cmp    %r12,%rbx
    df56:	73 39                	jae    df91 <g_unichar_isspace@plt+0x151>
    df58:	4e 8d 3c 2b          	lea    (%rbx,%r13,1),%r15
    df5c:	48 89 ef             	mov    %rbp,%rdi
    df5f:	4c 89 fe             	mov    %r15,%rsi
    df62:	e8 e9 fe ff ff       	callq  de50 <g_unichar_isspace@plt+0x10>
    df67:	85 c0                	test   %eax,%eax
    df69:	75 26                	jne    df91 <g_unichar_isspace@plt+0x151>
    df6b:	4c 89 fb             	mov    %r15,%rbx
    df6e:	eb e3                	jmp    df53 <g_unichar_isspace@plt+0x113>
    df70:	48 89 de             	mov    %rbx,%rsi
    df73:	48 89 ef             	mov    %rbp,%rdi
    df76:	e8 d5 fe ff ff       	callq  de50 <g_unichar_isspace@plt+0x10>
    df7b:	85 c0                	test   %eax,%eax
    df7d:	75 20                	jne    df9f <g_unichar_isspace@plt+0x15f>
    df7f:	48 89 de             	mov    %rbx,%rsi
    df82:	48 89 ef             	mov    %rbp,%rdi
    df85:	e8 86 fd 00 00       	callq  1dd10 <pango_language_matches>
    df8a:	85 c0                	test   %eax,%eax
    df8c:	75 0c                	jne    df9a <g_unichar_isspace@plt+0x15a>
    df8e:	4c 01 f3             	add    %r14,%rbx
    df91:	48 3b 5c 24 08       	cmp    0x8(%rsp),%rbx
    df96:	73 d8                	jae    df70 <g_unichar_isspace@plt+0x130>
    df98:	eb 05                	jmp    df9f <g_unichar_isspace@plt+0x15f>
    df9a:	48 89 d8             	mov    %rbx,%rax
    df9d:	eb 02                	jmp    dfa1 <g_unichar_isspace@plt+0x161>
    df9f:	31 c0                	xor    %eax,%eax
    dfa1:	48 8b 54 24 10       	mov    0x10(%rsp),%rdx
    dfa6:	48 85 d2             	test   %rdx,%rdx
    dfa9:	74 03                	je     dfae <g_unichar_isspace@plt+0x16e>
    dfab:	48 89 02             	mov    %rax,(%rdx)
    dfae:	48 83 c4 28          	add    $0x28,%rsp
    dfb2:	5b                   	pop    %rbx
    dfb3:	5d                   	pop    %rbp
    dfb4:	41 5c                	pop    %r12
    dfb6:	41 5d                	pop    %r13
    dfb8:	41 5e                	pop    %r14
    dfba:	41 5f                	pop    %r15
    dfbc:	c3                   	retq   
    dfbd:	55                   	push   %rbp
    dfbe:	53                   	push   %rbx
    dfbf:	48 89 fb             	mov    %rdi,%rbx
    dfc2:	51                   	push   %rcx
    dfc3:	48 8b 7f 20          	mov    0x20(%rdi),%rdi
    dfc7:	48 85 ff             	test   %rdi,%rdi
    dfca:	74 0a                	je     dfd6 <g_unichar_isspace@plt+0x196>
    dfcc:	e8 af 8d 00 00       	callq  16d80 <pango_attr_list_copy>
    dfd1:	48 89 c5             	mov    %rax,%rbp
    dfd4:	eb 08                	jmp    dfde <g_unichar_isspace@plt+0x19e>
    dfd6:	e8 75 8d 00 00       	callq  16d50 <pango_attr_list_new>
    dfdb:	48 89 c5             	mov    %rax,%rbp
    dfde:	48 8b 7b 28          	mov    0x28(%rbx),%rdi
    dfe2:	48 85 ff             	test   %rdi,%rdi
    dfe5:	74 10                	je     dff7 <g_unichar_isspace@plt+0x1b7>
    dfe7:	e8 24 88 00 00       	callq  16810 <pango_attr_font_desc_new>
    dfec:	48 89 ef             	mov    %rbp,%rdi
    dfef:	48 89 c6             	mov    %rax,%rsi
    dff2:	e8 59 8e 00 00       	callq  16e50 <pango_attr_list_insert_before>
    dff7:	5a                   	pop    %rdx
    dff8:	5b                   	pop    %rbx
    dff9:	48 89 e8             	mov    %rbp,%rax
    dffc:	5d                   	pop    %rbp
    dffd:	c3                   	retq   
    dffe:	41 57                	push   %r15
    e000:	41 56                	push   %r14
    e002:	41 55                	push   %r13
    e004:	49 89 d5             	mov    %rdx,%r13
    e007:	41 54                	push   %r12
    e009:	49 89 f4             	mov    %rsi,%r12
    e00c:	55                   	push   %rbp
    e00d:	48 89 fd             	mov    %rdi,%rbp
    e010:	53                   	push   %rbx
    e011:	48 83 ec 48          	sub    $0x48,%rsp
    e015:	4c 8b 37             	mov    (%rdi),%r14
    e018:	e8 83 62 00 00       	callq  142a0 <pango_glyph_string_new>
    e01d:	49 63 7d 00          	movslq 0x0(%r13),%rdi
    e021:	48 89 c3             	mov    %rax,%rbx
    e024:	49 8b 56 38          	mov    0x38(%r14),%rdx
    e028:	48 01 d7             	add    %rdx,%rdi
    e02b:	80 3f 09             	cmpb   $0x9,(%rdi)
    e02e:	0f 85 04 03 00 00    	jne    e338 <g_unichar_isspace@plt+0x4f8>
    e034:	48 8b 7d 10          	mov    0x10(%rbp),%rdi
    e038:	45 31 ff             	xor    %r15d,%r15d
    e03b:	48 85 ff             	test   %rdi,%rdi
    e03e:	74 26                	je     e066 <g_unichar_isspace@plt+0x226>
    e040:	48 8b 07             	mov    (%rdi),%rax
    e043:	48 8b 70 08          	mov    0x8(%rax),%rsi
    e047:	31 c0                	xor    %eax,%eax
    e049:	8b 0e                	mov    (%rsi),%ecx
    e04b:	39 c1                	cmp    %eax,%ecx
    e04d:	7e 11                	jle    e060 <g_unichar_isspace@plt+0x220>
    e04f:	48 6b d0 14          	imul   $0x14,%rax,%rdx
    e053:	48 ff c0             	inc    %rax
    e056:	48 03 56 08          	add    0x8(%rsi),%rdx
    e05a:	44 03 7a 04          	add    0x4(%rdx),%r15d
    e05e:	eb eb                	jmp    e04b <g_unichar_isspace@plt+0x20b>
    e060:	48 8b 7f 08          	mov    0x8(%rdi),%rdi
    e064:	eb d5                	jmp    e03b <g_unichar_isspace@plt+0x1fb>
    e066:	be 01 00 00 00       	mov    $0x1,%esi
    e06b:	48 89 df             	mov    %rbx,%rdi
    e06e:	e8 5d 62 00 00       	callq  142d0 <pango_glyph_string_set_size>
    e073:	48 8b 43 08          	mov    0x8(%rbx),%rax
    e077:	4c 8b 6d 00          	mov    0x0(%rbp),%r13
    e07b:	c7 00 ff ff ff 0f    	movl   $0xfffffff,(%rax)
    e081:	80 48 10 01          	orb    $0x1,0x10(%rax)
    e085:	c7 40 08 00 00 00 00 	movl   $0x0,0x8(%rax)
    e08c:	c7 40 0c 00 00 00 00 	movl   $0x0,0xc(%rax)
    e093:	48 8b 43 10          	mov    0x10(%rbx),%rax
    e097:	c7 00 00 00 00 00    	movl   $0x0,(%rax)
    e09d:	41 83 bd 90 00 00 00 	cmpl   $0xffffffff,0x90(%r13)
    e0a4:	ff 
    e0a5:	0f 85 38 01 00 00    	jne    e1e3 <g_unichar_isspace@plt+0x3a3>
    e0ab:	e8 f0 61 00 00       	callq  142a0 <pango_glyph_string_new>
    e0b0:	49 8b 7d 18          	mov    0x18(%r13),%rdi
    e0b4:	48 89 44 24 08       	mov    %rax,0x8(%rsp)
    e0b9:	e8 a2 bd 00 00       	callq  19e60 <pango_context_get_font_description>
    e0be:	48 89 c7             	mov    %rax,%rdi
    e0c1:	e8 ba 4d 00 00       	callq  12e80 <pango_font_description_copy_static>
    e0c6:	4c 89 ef             	mov    %r13,%rdi
    e0c9:	49 89 c4             	mov    %rax,%r12
    e0cc:	e8 ec fe ff ff       	callq  dfbd <g_unichar_isspace@plt+0x17d>
    e0d1:	48 89 c7             	mov    %rax,%rdi
    e0d4:	49 89 c6             	mov    %rax,%r14
    e0d7:	e8 24 94 00 00       	callq  17500 <pango_attr_list_get_iterator>
    e0dc:	48 8d 54 24 30       	lea    0x30(%rsp),%rdx
    e0e1:	31 c9                	xor    %ecx,%ecx
    e0e3:	4c 89 e6             	mov    %r12,%rsi
    e0e6:	48 89 c7             	mov    %rax,%rdi
    e0e9:	48 89 44 24 10       	mov    %rax,0x10(%rsp)
    e0ee:	4c 89 24 24          	mov    %r12,(%rsp)
    e0f2:	e8 b9 95 00 00       	callq  176b0 <pango_attr_iterator_get_font>
    e0f7:	e8 54 8c 00 00       	callq  16d50 <pango_attr_list_new>
    e0fc:	48 8b 3c 24          	mov    (%rsp),%rdi
    e100:	49 89 c4             	mov    %rax,%r12
    e103:	e8 08 87 00 00       	callq  16810 <pango_attr_font_desc_new>
    e108:	48 8b 3c 24          	mov    (%rsp),%rdi
    e10c:	48 89 44 24 18       	mov    %rax,0x18(%rsp)
    e111:	e8 5a 3b 00 00       	callq  11c70 <pango_font_description_free>
    e116:	48 8b 44 24 18       	mov    0x18(%rsp),%rax
    e11b:	4c 89 e7             	mov    %r12,%rdi
    e11e:	48 89 c6             	mov    %rax,%rsi
    e121:	e8 2a 8d 00 00       	callq  16e50 <pango_attr_list_insert_before>
    e126:	48 8b 7c 24 30       	mov    0x30(%rsp),%rdi
    e12b:	48 85 ff             	test   %rdi,%rdi
    e12e:	74 10                	je     e140 <g_unichar_isspace@plt+0x300>
    e130:	e8 4b 84 00 00       	callq  16580 <pango_attr_language_new>
    e135:	4c 89 e7             	mov    %r12,%rdi
    e138:	48 89 c6             	mov    %rax,%rsi
    e13b:	e8 10 8d 00 00       	callq  16e50 <pango_attr_list_insert_before>
    e140:	49 8b 7d 18          	mov    0x18(%r13),%rdi
    e144:	48 8d 35 fc 7e 02 00 	lea    0x27efc(%rip),%rsi        # 36047 <pango_tab_align_get_type+0xa827>
    e14b:	45 31 c9             	xor    %r9d,%r9d
    e14e:	31 d2                	xor    %edx,%edx
    e150:	4d 89 e0             	mov    %r12,%r8
    e153:	b9 01 00 00 00       	mov    $0x1,%ecx
    e158:	e8 73 c1 00 00       	callq  1a2d0 <pango_itemize>
    e15d:	48 8b 7c 24 10       	mov    0x10(%rsp),%rdi
    e162:	48 89 04 24          	mov    %rax,(%rsp)
    e166:	e8 95 94 00 00       	callq  17600 <pango_attr_iterator_destroy>
    e16b:	4d 39 75 20          	cmp    %r14,0x20(%r13)
    e16f:	74 08                	je     e179 <g_unichar_isspace@plt+0x339>
    e171:	4c 89 f7             	mov    %r14,%rdi
    e174:	e8 97 7e 00 00       	callq  16010 <pango_attr_list_unref>
    e179:	4c 89 e7             	mov    %r12,%rdi
    e17c:	e8 8f 7e 00 00       	callq  16010 <pango_attr_list_unref>
    e181:	48 8b 04 24          	mov    (%rsp),%rax
    e185:	4c 8b 74 24 08       	mov    0x8(%rsp),%r14
    e18a:	48 8d 3d af 7e 02 00 	lea    0x27eaf(%rip),%rdi        # 36040 <pango_tab_align_get_type+0xa820>
    e191:	be 08 00 00 00       	mov    $0x8,%esi
    e196:	4c 8b 20             	mov    (%rax),%r12
    e199:	4c 89 f1             	mov    %r14,%rcx
    e19c:	49 8d 54 24 10       	lea    0x10(%r12),%rdx
    e1a1:	e8 fa ce 01 00       	callq  2b0a0 <pango_shape>
    e1a6:	4c 89 e7             	mov    %r12,%rdi
    e1a9:	e8 22 f6 00 00       	callq  1d7d0 <pango_item_free>
    e1ae:	48 8b 3c 24          	mov    (%rsp),%rdi
    e1b2:	e8 69 f9 ff ff       	callq  db20 <g_list_free@plt>
    e1b7:	4c 89 f7             	mov    %r14,%rdi
    e1ba:	e8 d1 64 00 00       	callq  14690 <pango_glyph_string_get_width>
    e1bf:	4c 89 f7             	mov    %r14,%rdi
    e1c2:	41 89 85 90 00 00 00 	mov    %eax,0x90(%r13)
    e1c9:	e8 92 60 00 00       	callq  14260 <pango_glyph_string_free>
    e1ce:	41 83 bd 90 00 00 00 	cmpl   $0x0,0x90(%r13)
    e1d5:	00 
    e1d6:	7f 0b                	jg     e1e3 <g_unichar_isspace@plt+0x3a3>
    e1d8:	41 c7 85 90 00 00 00 	movl   $0xc800,0x90(%r13)
    e1df:	00 c8 00 00 
    e1e3:	48 8b 45 00          	mov    0x0(%rbp),%rax
    e1e7:	b9 08 00 00 00       	mov    $0x8,%ecx
    e1ec:	45 31 e4             	xor    %r12d,%r12d
    e1ef:	8b 80 90 00 00 00    	mov    0x90(%rax),%eax
    e1f5:	99                   	cltd   
    e1f6:	f7 f9                	idiv   %ecx
    e1f8:	89 44 24 18          	mov    %eax,0x18(%rsp)
    e1fc:	48 8d 44 24 2c       	lea    0x2c(%rsp),%rax
    e201:	48 89 44 24 10       	mov    %rax,0x10(%rsp)
    e206:	48 8d 44 24 30       	lea    0x30(%rsp),%rax
    e20b:	48 89 44 24 08       	mov    %rax,0x8(%rsp)
    e210:	4c 8b 75 00          	mov    0x0(%rbp),%r14
    e214:	49 8b 7e 30          	mov    0x30(%r14),%rdi
    e218:	48 85 ff             	test   %rdi,%rdi
    e21b:	0f 84 d8 00 00 00    	je     e2f9 <g_unichar_isspace@plt+0x4b9>
    e221:	e8 ca b0 01 00       	callq  292f0 <pango_tab_array_get_size>
    e226:	49 8b 7e 30          	mov    0x30(%r14),%rdi
    e22a:	41 89 c5             	mov    %eax,%r13d
    e22d:	e8 9e b3 01 00       	callq  295d0 <pango_tab_array_get_positions_in_pixels>
    e232:	45 39 ec             	cmp    %r13d,%r12d
    e235:	89 04 24             	mov    %eax,(%rsp)
    e238:	7d 32                	jge    e26c <g_unichar_isspace@plt+0x42c>
    e23a:	49 8b 7e 30          	mov    0x30(%r14),%rdi
    e23e:	48 8b 4c 24 08       	mov    0x8(%rsp),%rcx
    e243:	31 d2                	xor    %edx,%edx
    e245:	44 89 e6             	mov    %r12d,%esi
    e248:	c7 44 24 30 00 00 00 	movl   $0x0,0x30(%rsp)
    e24f:	00 
    e250:	e8 2b b2 01 00       	callq  29480 <pango_tab_array_get_tab>
    e255:	8b 04 24             	mov    (%rsp),%eax
    e258:	85 c0                	test   %eax,%eax
    e25a:	8b 44 24 30          	mov    0x30(%rsp),%eax
    e25e:	0f 84 b1 00 00 00    	je     e315 <g_unichar_isspace@plt+0x4d5>
    e264:	c1 e0 0a             	shl    $0xa,%eax
    e267:	e9 a9 00 00 00       	jmpq   e315 <g_unichar_isspace@plt+0x4d5>
    e26c:	45 85 ed             	test   %r13d,%r13d
    e26f:	0f 8e 8b 00 00 00    	jle    e300 <g_unichar_isspace@plt+0x4c0>
    e275:	49 8b 7e 30          	mov    0x30(%r14),%rdi
    e279:	48 8b 4c 24 10       	mov    0x10(%rsp),%rcx
    e27e:	41 8d 75 ff          	lea    -0x1(%r13),%esi
    e282:	31 d2                	xor    %edx,%edx
    e284:	c7 44 24 2c 00 00 00 	movl   $0x0,0x2c(%rsp)
    e28b:	00 
    e28c:	c7 44 24 30 00 00 00 	movl   $0x0,0x30(%rsp)
    e293:	00 
    e294:	e8 e7 b1 01 00       	callq  29480 <pango_tab_array_get_tab>
    e299:	41 83 fd 01          	cmp    $0x1,%r13d
    e29d:	8b 04 24             	mov    (%rsp),%eax
    e2a0:	74 19                	je     e2bb <g_unichar_isspace@plt+0x47b>
    e2a2:	49 8b 7e 30          	mov    0x30(%r14),%rdi
    e2a6:	48 8b 4c 24 08       	mov    0x8(%rsp),%rcx
    e2ab:	41 8d 75 fe          	lea    -0x2(%r13),%esi
    e2af:	31 d2                	xor    %edx,%edx
    e2b1:	e8 ca b1 01 00       	callq  29480 <pango_tab_array_get_tab>
    e2b6:	8b 04 24             	mov    (%rsp),%eax
    e2b9:	eb 08                	jmp    e2c3 <g_unichar_isspace@plt+0x483>
    e2bb:	c7 44 24 30 00 00 00 	movl   $0x0,0x30(%rsp)
    e2c2:	00 
    e2c3:	85 c0                	test   %eax,%eax
    e2c5:	74 0a                	je     e2d1 <g_unichar_isspace@plt+0x491>
    e2c7:	c1 64 24 30 0a       	shll   $0xa,0x30(%rsp)
    e2cc:	c1 64 24 2c 0a       	shll   $0xa,0x2c(%rsp)
    e2d1:	8b 54 24 2c          	mov    0x2c(%rsp),%edx
    e2d5:	8b 44 24 30          	mov    0x30(%rsp),%eax
    e2d9:	39 c2                	cmp    %eax,%edx
    e2db:	7e 06                	jle    e2e3 <g_unichar_isspace@plt+0x4a3>
    e2dd:	89 d1                	mov    %edx,%ecx
    e2df:	29 c1                	sub    %eax,%ecx
    e2e1:	eb 07                	jmp    e2ea <g_unichar_isspace@plt+0x4aa>
    e2e3:	41 8b 8e 90 00 00 00 	mov    0x90(%r14),%ecx
    e2ea:	44 89 e0             	mov    %r12d,%eax
    e2ed:	44 29 e8             	sub    %r13d,%eax
    e2f0:	ff c0                	inc    %eax
    e2f2:	0f af c1             	imul   %ecx,%eax
    e2f5:	01 d0                	add    %edx,%eax
    e2f7:	eb 1c                	jmp    e315 <g_unichar_isspace@plt+0x4d5>
    e2f9:	b9 01 00 00 00       	mov    $0x1,%ecx
    e2fe:	eb 02                	jmp    e302 <g_unichar_isspace@plt+0x4c2>
    e300:	31 c9                	xor    %ecx,%ecx
    e302:	41 8b 86 90 00 00 00 	mov    0x90(%r14),%eax
    e309:	8b 54 24 18          	mov    0x18(%rsp),%edx
    e30d:	41 0f af c4          	imul   %r12d,%eax
    e311:	85 c9                	test   %ecx,%ecx
    e313:	75 05                	jne    e31a <g_unichar_isspace@plt+0x4da>
    e315:	ba 01 00 00 00       	mov    $0x1,%edx
    e31a:	44 01 fa             	add    %r15d,%edx
    e31d:	39 c2                	cmp    %eax,%edx
    e31f:	7f 0f                	jg     e330 <g_unichar_isspace@plt+0x4f0>
    e321:	48 8b 53 08          	mov    0x8(%rbx),%rdx
    e325:	44 29 f8             	sub    %r15d,%eax
    e328:	89 42 04             	mov    %eax,0x4(%rdx)
    e32b:	e9 a9 00 00 00       	jmpq   e3d9 <g_unichar_isspace@plt+0x599>
    e330:	41 ff c4             	inc    %r12d
    e333:	e9 d8 fe ff ff       	jmpq   e210 <g_unichar_isspace@plt+0x3d0>
    e338:	41 83 7c 24 40 00    	cmpl   $0x0,0x40(%r12)
    e33e:	74 18                	je     e358 <g_unichar_isspace@plt+0x518>
    e340:	49 8b 4c 24 50       	mov    0x50(%r12),%rcx
    e345:	49 8b 54 24 48       	mov    0x48(%r12),%rdx
    e34a:	49 89 c0             	mov    %rax,%r8
    e34d:	41 8b 75 08          	mov    0x8(%r13),%esi
    e351:	e8 2a c6 01 00       	callq  2a980 <pango_extents_to_pixels+0x90>
    e356:	eb 14                	jmp    e36c <g_unichar_isspace@plt+0x52c>
    e358:	41 8b 4e 4c          	mov    0x4c(%r14),%ecx
    e35c:	41 8b 75 04          	mov    0x4(%r13),%esi
    e360:	4d 8d 45 10          	lea    0x10(%r13),%r8
    e364:	49 89 c1             	mov    %rax,%r9
    e367:	e8 44 c9 01 00       	callq  2acb0 <pango_shape_full>
    e36c:	41 8b 4c 24 3c       	mov    0x3c(%r12),%ecx
    e371:	85 c9                	test   %ecx,%ecx
    e373:	74 64                	je     e3d9 <g_unichar_isspace@plt+0x599>
    e375:	49 63 54 24 28       	movslq 0x28(%r12),%rdx
    e37a:	4c 89 6c 24 30       	mov    %r13,0x30(%rsp)
    e37f:	48 8d 7c 24 30       	lea    0x30(%rsp),%rdi
    e384:	48 89 5c 24 38       	mov    %rbx,0x38(%rsp)
    e389:	49 8b 86 98 00 00 00 	mov    0x98(%r14),%rax
    e390:	49 8b 76 38          	mov    0x38(%r14),%rsi
    e394:	48 8d 14 90          	lea    (%rax,%rdx,4),%rdx
    e398:	e8 c3 ef 00 00       	callq  1d360 <pango_glyph_item_letter_space>
    e39d:	41 8b 74 24 3c       	mov    0x3c(%r12),%esi
    e3a2:	b9 02 00 00 00       	mov    $0x2,%ecx
    e3a7:	89 f0                	mov    %esi,%eax
    e3a9:	99                   	cltd   
    e3aa:	f7 f9                	idiv   %ecx
    e3ac:	f7 c6 ff 03 00 00    	test   $0x3ff,%esi
    e3b2:	89 c1                	mov    %eax,%ecx
    e3b4:	75 0c                	jne    e3c2 <g_unichar_isspace@plt+0x582>
    e3b6:	81 c1 00 02 00 00    	add    $0x200,%ecx
    e3bc:	81 e1 00 fc ff ff    	and    $0xfffffc00,%ecx
    e3c2:	48 63 03             	movslq (%rbx),%rax
    e3c5:	48 8b 53 08          	mov    0x8(%rbx),%rdx
    e3c9:	29 ce                	sub    %ecx,%esi
    e3cb:	01 4a 04             	add    %ecx,0x4(%rdx)
    e3ce:	01 4a 08             	add    %ecx,0x8(%rdx)
    e3d1:	48 6b c0 14          	imul   $0x14,%rax,%rax
    e3d5:	01 74 02 f0          	add    %esi,-0x10(%rdx,%rax,1)
    e3d9:	48 83 c4 48          	add    $0x48,%rsp
    e3dd:	48 89 d8             	mov    %rbx,%rax
    e3e0:	5b                   	pop    %rbx
    e3e1:	5d                   	pop    %rbp
    e3e2:	41 5c                	pop    %r12
    e3e4:	41 5d                	pop    %r13
    e3e6:	41 5e                	pop    %r14
    e3e8:	41 5f                	pop    %r15
    e3ea:	c3                   	retq   
    e3eb:	41 56                	push   %r14
    e3ed:	41 89 ce             	mov    %ecx,%r14d
    e3f0:	41 55                	push   %r13
    e3f2:	49 89 d5             	mov    %rdx,%r13
    e3f5:	41 54                	push   %r12
    e3f7:	55                   	push   %rbp
    e3f8:	48 89 f5             	mov    %rsi,%rbp
    e3fb:	53                   	push   %rbx
    e3fc:	48 89 fb             	mov    %rdi,%rbx
    e3ff:	bf 10 00 00 00       	mov    $0x10,%edi
    e404:	e8 b7 f9 ff ff       	callq  ddc0 <g_slice_alloc@plt>
    e409:	45 85 f6             	test   %r14d,%r14d
    e40c:	49 89 c4             	mov    %rax,%r12
    e40f:	4c 89 28             	mov    %r13,(%rax)
    e412:	74 11                	je     e425 <g_unichar_isspace@plt+0x5e5>
    e414:	83 7d 60 00          	cmpl   $0x0,0x60(%rbp)
    e418:	75 0b                	jne    e425 <g_unichar_isspace@plt+0x5e5>
    e41a:	48 8b 45 20          	mov    0x20(%rbp),%rax
    e41e:	49 89 44 24 08       	mov    %rax,0x8(%r12)
    e423:	eb 18                	jmp    e43d <g_unichar_isspace@plt+0x5fd>
    e425:	4c 89 ea             	mov    %r13,%rdx
    e428:	48 89 ee             	mov    %rbp,%rsi
    e42b:	48 89 df             	mov    %rbx,%rdi
    e42e:	e8 cb fb ff ff       	callq  dffe <g_unichar_isspace@plt+0x1be>
    e433:	45 85 f6             	test   %r14d,%r14d
    e436:	49 89 44 24 08       	mov    %rax,0x8(%r12)
    e43b:	74 28                	je     e465 <g_unichar_isspace@plt+0x625>
    e43d:	83 7d 60 00          	cmpl   $0x0,0x60(%rbp)
    e441:	7e 09                	jle    e44c <g_unichar_isspace@plt+0x60c>
    e443:	48 8b 7d 20          	mov    0x20(%rbp),%rdi
    e447:	e8 14 5e 00 00       	callq  14260 <pango_glyph_string_free>
    e44c:	48 8b 7d 58          	mov    0x58(%rbp),%rdi
    e450:	48 c7 45 20 00 00 00 	movq   $0x0,0x20(%rbp)
    e457:	00 
    e458:	e8 c3 ef ff ff       	callq  d420 <g_free@plt>
    e45d:	48 c7 45 58 00 00 00 	movq   $0x0,0x58(%rbp)
    e464:	00 
    e465:	48 8b 7b 10          	mov    0x10(%rbx),%rdi
    e469:	4c 89 e6             	mov    %r12,%rsi
    e46c:	e8 5f f3 ff ff       	callq  d7d0 <g_slist_prepend@plt>
    e471:	48 89 43 10          	mov    %rax,0x10(%rbx)
    e475:	41 8b 45 04          	mov    0x4(%r13),%eax
    e479:	01 43 0c             	add    %eax,0xc(%rbx)
    e47c:	5b                   	pop    %rbx
    e47d:	5d                   	pop    %rbp
    e47e:	41 5c                	pop    %r12
    e480:	41 5d                	pop    %r13
    e482:	41 5e                	pop    %r14
    e484:	c3                   	retq   
    e485:	8d 4e ff             	lea    -0x1(%rsi),%ecx
    e488:	53                   	push   %rbx
    e489:	48 89 fb             	mov    %rdi,%rbx
    e48c:	8a 47 18             	mov    0x18(%rdi),%al
    e48f:	83 f9 04             	cmp    $0x4,%ecx
    e492:	77 0d                	ja     e4a1 <g_unichar_isspace@plt+0x661>
    e494:	ba 01 00 00 00       	mov    $0x1,%edx
    e499:	48 d3 e2             	shl    %cl,%rdx
    e49c:	80 e2 13             	and    $0x13,%dl
    e49f:	75 08                	jne    e4a9 <g_unichar_isspace@plt+0x669>
    e4a1:	83 e0 f1             	and    $0xfffffff1,%eax
    e4a4:	88 43 18             	mov    %al,0x18(%rbx)
    e4a7:	eb 09                	jmp    e4b2 <g_unichar_isspace@plt+0x672>
    e4a9:	83 e0 f1             	and    $0xfffffff1,%eax
    e4ac:	83 c8 02             	or     $0x2,%eax
    e4af:	88 47 18             	mov    %al,0x18(%rdi)
    e4b2:	48 8b 03             	mov    (%rbx),%rax
    e4b5:	48 8b 78 18          	mov    0x18(%rax),%rdi
    e4b9:	e8 e2 bb 00 00       	callq  1a0a0 <pango_context_get_gravity>
    e4be:	83 f8 02             	cmp    $0x2,%eax
    e4c1:	74 0f                	je     e4d2 <g_unichar_isspace@plt+0x692>
    e4c3:	83 f8 03             	cmp    $0x3,%eax
    e4c6:	74 24                	je     e4ec <g_unichar_isspace@plt+0x6ac>
    e4c8:	ff c8                	dec    %eax
    e4ca:	75 2c                	jne    e4f8 <g_unichar_isspace@plt+0x6b8>
    e4cc:	80 63 18 f1          	andb   $0xf1,0x18(%rbx)
    e4d0:	eb 26                	jmp    e4f8 <g_unichar_isspace@plt+0x6b8>
    e4d2:	8a 53 18             	mov    0x18(%rbx),%dl
    e4d5:	b0 01                	mov    $0x1,%al
    e4d7:	88 d1                	mov    %dl,%cl
    e4d9:	83 e2 f1             	and    $0xfffffff1,%edx
    e4dc:	d0 e9                	shr    %cl
    e4de:	29 c8                	sub    %ecx,%eax
    e4e0:	83 e0 07             	and    $0x7,%eax
    e4e3:	01 c0                	add    %eax,%eax
    e4e5:	09 c2                	or     %eax,%edx
    e4e7:	88 53 18             	mov    %dl,0x18(%rbx)
    e4ea:	eb 0c                	jmp    e4f8 <g_unichar_isspace@plt+0x6b8>
    e4ec:	8a 43 18             	mov    0x18(%rbx),%al
    e4ef:	83 e0 f1             	and    $0xfffffff1,%eax
    e4f2:	83 c8 02             	or     $0x2,%eax
    e4f5:	88 43 18             	mov    %al,0x18(%rbx)
    e4f8:	5b                   	pop    %rbx
    e4f9:	c3                   	retq   
    e4fa:	ff cf                	dec    %edi
    e4fc:	45 31 c0             	xor    %r8d,%r8d
    e4ff:	4c 63 cf             	movslq %edi,%r9
    e502:	4d 6b c9 14          	imul   $0x14,%r9,%r9
    e506:	85 ff                	test   %edi,%edi
    e508:	78 31                	js     e53b <g_unichar_isspace@plt+0x6fb>
    e50a:	4b 8d 04 08          	lea    (%r8,%r9,1),%rax
    e50e:	48 03 06             	add    (%rsi),%rax
    e511:	49 83 e8 14          	sub    $0x14,%r8
    e515:	83 78 04 00          	cmpl   $0x0,0x4(%rax)
    e519:	75 04                	jne    e51f <g_unichar_isspace@plt+0x6df>
    e51b:	ff cf                	dec    %edi
    e51d:	eb e7                	jmp    e506 <g_unichar_isspace@plt+0x6c6>
    e51f:	8b 32                	mov    (%rdx),%esi
    e521:	29 ce                	sub    %ecx,%esi
    e523:	89 32                	mov    %esi,(%rdx)
    e525:	03 48 04             	add    0x4(%rax),%ecx
    e528:	85 c9                	test   %ecx,%ecx
    e52a:	89 48 04             	mov    %ecx,0x4(%rax)
    e52d:	79 0c                	jns    e53b <g_unichar_isspace@plt+0x6fb>
    e52f:	01 f1                	add    %esi,%ecx
    e531:	89 0a                	mov    %ecx,(%rdx)
    e533:	c7 40 04 00 00 00 00 	movl   $0x0,0x4(%rax)
    e53a:	c3                   	retq   
    e53b:	c3                   	retq   
    e53c:	31 c0                	xor    %eax,%eax
    e53e:	39 f8                	cmp    %edi,%eax
    e540:	4c 63 c8             	movslq %eax,%r9
    e543:	7d 23                	jge    e568 <g_unichar_isspace@plt+0x728>
    e545:	4c 6b c0 14          	imul   $0x14,%rax,%r8
    e549:	48 ff c0             	inc    %rax
    e54c:	4c 03 06             	add    (%rsi),%r8
    e54f:	41 83 78 04 00       	cmpl   $0x0,0x4(%r8)
    e554:	74 e8                	je     e53e <g_unichar_isspace@plt+0x6fe>
    e556:	4d 6b c9 14          	imul   $0x14,%r9,%r9
    e55a:	29 0a                	sub    %ecx,(%rdx)
    e55c:	4c 03 0e             	add    (%rsi),%r9
    e55f:	41 01 49 04          	add    %ecx,0x4(%r9)
    e563:	41 01 49 08          	add    %ecx,0x8(%r9)
    e567:	c3                   	retq   
    e568:	41 39 f9             	cmp    %edi,%r9d
    e56b:	75 e9                	jne    e556 <g_unichar_isspace@plt+0x716>
    e56d:	c3                   	retq   
    e56e:	31 c0                	xor    %eax,%eax
    e570:	f6 47 65 03          	testb  $0x3,0x65(%rdi)
    e574:	74 26                	je     e59c <g_unichar_isspace@plt+0x75c>
    e576:	83 7f 54 00          	cmpl   $0x0,0x54(%rdi)
    e57a:	79 01                	jns    e57d <g_unichar_isspace@plt+0x73d>
    e57c:	c3                   	retq   
    e57d:	8b 47 58             	mov    0x58(%rdi),%eax
    e580:	85 c0                	test   %eax,%eax
    e582:	78 0e                	js     e592 <g_unichar_isspace@plt+0x752>
    e584:	8b 06                	mov    (%rsi),%eax
    e586:	01 c0                	add    %eax,%eax
    e588:	3b 46 04             	cmp    0x4(%rsi),%eax
    e58b:	0f 9f c0             	setg   %al
    e58e:	0f b6 c0             	movzbl %al,%eax
    e591:	c3                   	retq   
    e592:	03 46 1c             	add    0x1c(%rsi),%eax
    e595:	0f 94 c0             	sete   %al
    e598:	0f b6 c0             	movzbl %al,%eax
    e59b:	c3                   	retq   
    e59c:	c3                   	retq   
    e59d:	8a 47 64             	mov    0x64(%rdi),%al
    e5a0:	c0 e8 05             	shr    $0x5,%al
    e5a3:	83 e0 03             	and    $0x3,%eax
    e5a6:	83 f8 02             	cmp    $0x2,%eax
    e5a9:	75 07                	jne    e5b2 <g_unichar_isspace@plt+0x772>
    e5ab:	31 c0                	xor    %eax,%eax
    e5ad:	85 d2                	test   %edx,%edx
    e5af:	0f 95 c0             	setne  %al
    e5b2:	39 77 50             	cmp    %esi,0x50(%rdi)
    e5b5:	74 4f                	je     e606 <g_unichar_isspace@plt+0x7c6>
    e5b7:	85 c0                	test   %eax,%eax
    e5b9:	75 11                	jne    e5cc <g_unichar_isspace@plt+0x78c>
    e5bb:	48 8b 87 98 00 00 00 	mov    0x98(%rdi),%rax
    e5c2:	48 63 f6             	movslq %esi,%rsi
    e5c5:	8a 04 b0             	mov    (%rax,%rsi,4),%al
    e5c8:	83 e0 01             	and    $0x1,%eax
    e5cb:	c3                   	retq   
    e5cc:	ff c8                	dec    %eax
    e5ce:	75 14                	jne    e5e4 <g_unichar_isspace@plt+0x7a4>
    e5d0:	48 8b 87 98 00 00 00 	mov    0x98(%rdi),%rax
    e5d7:	48 63 f6             	movslq %esi,%rsi
    e5da:	8a 04 b0             	mov    (%rax,%rsi,4),%al
    e5dd:	c0 e8 02             	shr    $0x2,%al
    e5e0:	83 e0 01             	and    $0x1,%eax
    e5e3:	c3                   	retq   
    e5e4:	48 8d 15 9d 85 02 00 	lea    0x2859d(%rip),%rdx        # 36b88 <pango_tab_align_get_type+0xb368>
    e5eb:	48 8d 3d 64 e9 01 00 	lea    0x1e964(%rip),%rdi        # 2cf56 <pango_tab_align_get_type+0x1736>
    e5f2:	51                   	push   %rcx
    e5f3:	31 c0                	xor    %eax,%eax
    e5f5:	be 10 00 00 00       	mov    $0x10,%esi
    e5fa:	e8 71 f4 ff ff       	callq  da70 <g_log@plt>
    e5ff:	b8 01 00 00 00       	mov    $0x1,%eax
    e604:	5a                   	pop    %rdx
    e605:	c3                   	retq   
    e606:	b8 01 00 00 00       	mov    $0x1,%eax
    e60b:	c3                   	retq   
    e60c:	41 57                	push   %r15
    e60e:	49 89 d7             	mov    %rdx,%r15
    e611:	41 56                	push   %r14
    e613:	41 55                	push   %r13
    e615:	45 31 ed             	xor    %r13d,%r13d
    e618:	41 54                	push   %r12
    e61a:	49 89 fc             	mov    %rdi,%r12
    e61d:	55                   	push   %rbp
    e61e:	53                   	push   %rbx
    e61f:	44 89 c3             	mov    %r8d,%ebx
    e622:	48 83 ec 38          	sub    $0x38,%rsp
    e626:	48 83 7a 20 00       	cmpq   $0x0,0x20(%rdx)
    e62b:	48 8b 42 10          	mov    0x10(%rdx),%rax
    e62f:	48 89 74 24 10       	mov    %rsi,0x10(%rsp)
    e634:	89 4c 24 1c          	mov    %ecx,0x1c(%rsp)
    e638:	48 8b 28             	mov    (%rax),%rbp
    e63b:	75 34                	jne    e671 <g_unichar_isspace@plt+0x831>
    e63d:	48 8b 7d 38          	mov    0x38(%rbp),%rdi
    e641:	48 8d 72 30          	lea    0x30(%rdx),%rsi
    e645:	41 b5 01             	mov    $0x1,%r13b
    e648:	e8 b3 01 01 00       	callq  1e800 <pango_layout_iter_copy+0x130>
    e64d:	48 8b 7c 24 10       	mov    0x10(%rsp),%rdi
    e652:	48 89 ea             	mov    %rbp,%rdx
    e655:	4c 89 fe             	mov    %r15,%rsi
    e658:	e8 a1 f9 ff ff       	callq  dffe <g_unichar_isspace@plt+0x1be>
    e65d:	49 c7 47 58 00 00 00 	movq   $0x0,0x58(%r15)
    e664:	00 
    e665:	49 89 47 20          	mov    %rax,0x20(%r15)
    e669:	41 c7 47 60 00 00 00 	movl   $0x0,0x60(%r15)
    e670:	00 
    e671:	41 f6 44 24 64 08    	testb  $0x8,0x64(%r12)
    e677:	75 4a                	jne    e6c3 <g_unichar_isspace@plt+0x883>
    e679:	48 63 7d 00          	movslq 0x0(%rbp),%rdi
    e67d:	49 03 7c 24 38       	add    0x38(%r12),%rdi
    e682:	e8 09 f1 ff ff       	callq  d790 <g_utf8_get_char@plt>
    e687:	3d 28 20 00 00       	cmp    $0x2028,%eax
    e68c:	75 35                	jne    e6c3 <g_unichar_isspace@plt+0x883>
    e68e:	4c 89 fe             	mov    %r15,%rsi
    e691:	4c 89 e7             	mov    %r12,%rdi
    e694:	e8 d5 fe ff ff       	callq  e56e <g_unichar_isspace@plt+0x72e>
    e699:	85 c0                	test   %eax,%eax
    e69b:	75 26                	jne    e6c3 <g_unichar_isspace@plt+0x883>
    e69d:	48 8b 7c 24 10       	mov    0x10(%rsp),%rdi
    e6a2:	b9 01 00 00 00       	mov    $0x1,%ecx
    e6a7:	48 89 ea             	mov    %rbp,%rdx
    e6aa:	4c 89 fe             	mov    %r15,%rsi
    e6ad:	e8 39 fd ff ff       	callq  e3eb <g_unichar_isspace@plt+0x5ab>
    e6b2:	8b 45 08             	mov    0x8(%rbp),%eax
    e6b5:	41 01 47 60          	add    %eax,0x60(%r15)
    e6b9:	b8 04 00 00 00       	mov    $0x4,%eax
    e6be:	e9 a0 02 00 00       	jmpq   e963 <g_unichar_isspace@plt+0xb23>
    e6c3:	41 83 7f 70 00       	cmpl   $0x0,0x70(%r15)
    e6c8:	79 04                	jns    e6ce <g_unichar_isspace@plt+0x88e>
    e6ca:	85 db                	test   %ebx,%ebx
    e6cc:	74 6a                	je     e738 <g_unichar_isspace@plt+0x8f8>
    e6ce:	45 85 ed             	test   %r13d,%r13d
    e6d1:	75 0f                	jne    e6e2 <g_unichar_isspace@plt+0x8a2>
    e6d3:	8b 75 08             	mov    0x8(%rbp),%esi
    e6d6:	31 c0                	xor    %eax,%eax
    e6d8:	c7 44 24 18 00 00 00 	movl   $0x0,0x18(%rsp)
    e6df:	00 
    e6e0:	eb 0f                	jmp    e6f1 <g_unichar_isspace@plt+0x8b1>
    e6e2:	49 8b 7f 20          	mov    0x20(%r15),%rdi
    e6e6:	e8 a5 5f 00 00       	callq  14690 <pango_glyph_string_get_width>
    e6eb:	89 44 24 18          	mov    %eax,0x18(%rsp)
    e6ef:	eb 1c                	jmp    e70d <g_unichar_isspace@plt+0x8cd>
    e6f1:	39 c6                	cmp    %eax,%esi
    e6f3:	7e 18                	jle    e70d <g_unichar_isspace@plt+0x8cd>
    e6f5:	41 8b 4f 60          	mov    0x60(%r15),%ecx
    e6f9:	49 8b 57 58          	mov    0x58(%r15),%rdx
    e6fd:	01 c1                	add    %eax,%ecx
    e6ff:	ff c0                	inc    %eax
    e701:	48 63 c9             	movslq %ecx,%rcx
    e704:	8b 0c 8a             	mov    (%rdx,%rcx,4),%ecx
    e707:	01 4c 24 18          	add    %ecx,0x18(%rsp)
    e70b:	eb e4                	jmp    e6f1 <g_unichar_isspace@plt+0x8b1>
    e70d:	41 8b 47 70          	mov    0x70(%r15),%eax
    e711:	3b 44 24 18          	cmp    0x18(%rsp),%eax
    e715:	7d 12                	jge    e729 <g_unichar_isspace@plt+0x8e9>
    e717:	83 7d 08 01          	cmpl   $0x1,0x8(%rbp)
    e71b:	75 3a                	jne    e757 <g_unichar_isspace@plt+0x917>
    e71d:	48 8b 7c 24 10       	mov    0x10(%rsp),%rdi
    e722:	48 83 7f 10 00       	cmpq   $0x0,0x10(%rdi)
    e727:	75 2e                	jne    e757 <g_unichar_isspace@plt+0x917>
    e729:	85 db                	test   %ebx,%ebx
    e72b:	75 2a                	jne    e757 <g_unichar_isspace@plt+0x917>
    e72d:	2b 44 24 18          	sub    0x18(%rsp),%eax
    e731:	0f 49 d8             	cmovns %eax,%ebx
    e734:	41 89 5f 70          	mov    %ebx,0x70(%r15)
    e738:	48 8b 7c 24 10       	mov    0x10(%rsp),%rdi
    e73d:	b9 01 00 00 00       	mov    $0x1,%ecx
    e742:	48 89 ea             	mov    %rbp,%rdx
    e745:	4c 89 fe             	mov    %r15,%rsi
    e748:	e8 9e fc ff ff       	callq  e3eb <g_unichar_isspace@plt+0x5ab>
    e74d:	b8 02 00 00 00       	mov    $0x2,%eax
    e752:	e9 0c 02 00 00       	jmpq   e963 <g_unichar_isspace@plt+0xb23>
    e757:	45 85 ed             	test   %r13d,%r13d
    e75a:	44 8b 55 08          	mov    0x8(%rbp),%r10d
    e75e:	74 3b                	je     e79b <g_unichar_isspace@plt+0x95b>
    e760:	49 8b 47 20          	mov    0x20(%r15),%rax
    e764:	49 63 fa             	movslq %r10d,%rdi
    e767:	be 04 00 00 00       	mov    $0x4,%esi
    e76c:	44 89 54 24 08       	mov    %r10d,0x8(%rsp)
    e771:	48 89 6c 24 20       	mov    %rbp,0x20(%rsp)
    e776:	48 89 44 24 28       	mov    %rax,0x28(%rsp)
    e77b:	e8 30 f2 ff ff       	callq  d9b0 <g_malloc_n@plt>
    e780:	49 8b 74 24 38       	mov    0x38(%r12),%rsi
    e785:	48 8d 7c 24 20       	lea    0x20(%rsp),%rdi
    e78a:	49 89 47 58          	mov    %rax,0x58(%r15)
    e78e:	48 89 c2             	mov    %rax,%rdx
    e791:	e8 ca ec 00 00       	callq  1d460 <pango_glyph_item_get_logical_widths>
    e796:	44 8b 54 24 08       	mov    0x8(%rsp),%r10d
    e79b:	c7 44 24 08 00 00 00 	movl   $0x0,0x8(%rsp)
    e7a2:	00 
    e7a3:	8b 44 24 18          	mov    0x18(%rsp),%eax
    e7a7:	44 89 d3             	mov    %r10d,%ebx
    e7aa:	45 31 ed             	xor    %r13d,%r13d
    e7ad:	45 31 f6             	xor    %r14d,%r14d
    e7b0:	89 44 24 0c          	mov    %eax,0xc(%rsp)
    e7b4:	44 8b 55 08          	mov    0x8(%rbp),%r10d
    e7b8:	45 39 ea             	cmp    %r13d,%r10d
    e7bb:	7e 66                	jle    e823 <g_unichar_isspace@plt+0x9e3>
    e7bd:	45 39 77 70          	cmp    %r14d,0x70(%r15)
    e7c1:	7d 09                	jge    e7cc <g_unichar_isspace@plt+0x98c>
    e7c3:	44 39 d3             	cmp    %r10d,%ebx
    e7c6:	0f 8c 8a 01 00 00    	jl     e956 <g_unichar_isspace@plt+0xb16>
    e7cc:	41 8b 77 28          	mov    0x28(%r15),%esi
    e7d0:	8b 54 24 08          	mov    0x8(%rsp),%edx
    e7d4:	4c 89 e7             	mov    %r12,%rdi
    e7d7:	44 01 ee             	add    %r13d,%esi
    e7da:	e8 be fd ff ff       	callq  e59d <g_unichar_isspace@plt+0x75d>
    e7df:	85 c0                	test   %eax,%eax
    e7e1:	74 29                	je     e80c <g_unichar_isspace@plt+0x9cc>
    e7e3:	45 85 ed             	test   %r13d,%r13d
    e7e6:	7f 1c                	jg     e804 <g_unichar_isspace@plt+0x9c4>
    e7e8:	48 8b 44 24 10       	mov    0x10(%rsp),%rax
    e7ed:	8b 7c 24 0c          	mov    0xc(%rsp),%edi
    e7f1:	48 83 78 10 00       	cmpq   $0x0,0x10(%rax)
    e7f6:	41 0f 45 fe          	cmovne %r14d,%edi
    e7fa:	41 0f 45 dd          	cmovne %r13d,%ebx
    e7fe:	89 7c 24 0c          	mov    %edi,0xc(%rsp)
    e802:	eb 08                	jmp    e80c <g_unichar_isspace@plt+0x9cc>
    e804:	44 89 74 24 0c       	mov    %r14d,0xc(%rsp)
    e809:	44 89 eb             	mov    %r13d,%ebx
    e80c:	41 8b 57 60          	mov    0x60(%r15),%edx
    e810:	49 8b 47 58          	mov    0x58(%r15),%rax
    e814:	44 01 ea             	add    %r13d,%edx
    e817:	41 ff c5             	inc    %r13d
    e81a:	48 63 d2             	movslq %edx,%rdx
    e81d:	44 03 34 90          	add    (%rax,%rdx,4),%r14d
    e821:	eb 91                	jmp    e7b4 <g_unichar_isspace@plt+0x974>
    e823:	85 db                	test   %ebx,%ebx
    e825:	7e 32                	jle    e859 <g_unichar_isspace@plt+0xa19>
    e827:	44 39 d3             	cmp    %r10d,%ebx
    e82a:	7d 2d                	jge    e859 <g_unichar_isspace@plt+0xa19>
    e82c:	41 8b 57 28          	mov    0x28(%r15),%edx
    e830:	49 8b 84 24 98 00 00 	mov    0x98(%r12),%rax
    e837:	00 
    e838:	01 da                	add    %ebx,%edx
    e83a:	48 63 d2             	movslq %edx,%rdx
    e83d:	f6 44 90 fc 08       	testb  $0x8,-0x4(%rax,%rdx,4)
    e842:	74 15                	je     e859 <g_unichar_isspace@plt+0xa19>
    e844:	41 8b 57 60          	mov    0x60(%r15),%edx
    e848:	49 8b 47 58          	mov    0x58(%r15),%rax
    e84c:	01 da                	add    %ebx,%edx
    e84e:	48 63 d2             	movslq %edx,%rdx
    e851:	8b 44 90 fc          	mov    -0x4(%rax,%rdx,4),%eax
    e855:	29 44 24 0c          	sub    %eax,0xc(%rsp)
    e859:	41 8a 44 24 64       	mov    0x64(%r12),%al
    e85e:	83 e0 60             	and    $0x60,%eax
    e861:	3c 40                	cmp    $0x40,%al
    e863:	75 4d                	jne    e8b2 <g_unichar_isspace@plt+0xa72>
    e865:	83 7c 24 1c 00       	cmpl   $0x0,0x1c(%rsp)
    e86a:	75 0f                	jne    e87b <g_unichar_isspace@plt+0xa3b>
    e86c:	8b 44 24 0c          	mov    0xc(%rsp),%eax
    e870:	41 39 47 70          	cmp    %eax,0x70(%r15)
    e874:	7d 0f                	jge    e885 <g_unichar_isspace@plt+0xa45>
    e876:	e9 b5 00 00 00       	jmpq   e930 <g_unichar_isspace@plt+0xaf0>
    e87b:	8b 44 24 0c          	mov    0xc(%rsp),%eax
    e87f:	41 39 47 70          	cmp    %eax,0x70(%r15)
    e883:	7c 19                	jl     e89e <g_unichar_isspace@plt+0xa5e>
    e885:	41 8b 47 70          	mov    0x70(%r15),%eax
    e889:	85 c0                	test   %eax,%eax
    e88b:	78 2e                	js     e8bb <g_unichar_isspace@plt+0xa7b>
    e88d:	2b 44 24 0c          	sub    0xc(%rsp),%eax
    e891:	31 d2                	xor    %edx,%edx
    e893:	85 c0                	test   %eax,%eax
    e895:	0f 49 d0             	cmovns %eax,%edx
    e898:	41 89 57 70          	mov    %edx,0x70(%r15)
    e89c:	eb 1d                	jmp    e8bb <g_unichar_isspace@plt+0xa7b>
    e89e:	83 7c 24 08 00       	cmpl   $0x0,0x8(%rsp)
    e8a3:	75 e0                	jne    e885 <g_unichar_isspace@plt+0xa45>
    e8a5:	c7 44 24 08 01 00 00 	movl   $0x1,0x8(%rsp)
    e8ac:	00 
    e8ad:	e9 f1 fe ff ff       	jmpq   e7a3 <g_unichar_isspace@plt+0x963>
    e8b2:	83 7c 24 1c 00       	cmpl   $0x0,0x1c(%rsp)
    e8b7:	74 b3                	je     e86c <g_unichar_isspace@plt+0xa2c>
    e8b9:	eb ca                	jmp    e885 <g_unichar_isspace@plt+0xa45>
    e8bb:	44 39 d3             	cmp    %r10d,%ebx
    e8be:	0f 84 74 fe ff ff    	je     e738 <g_unichar_isspace@plt+0x8f8>
    e8c4:	85 db                	test   %ebx,%ebx
    e8c6:	b8 03 00 00 00       	mov    $0x3,%eax
    e8cb:	0f 84 92 00 00 00    	je     e963 <g_unichar_isspace@plt+0xb23>
    e8d1:	4c 63 6d 00          	movslq 0x0(%rbp),%r13
    e8d5:	48 63 f3             	movslq %ebx,%rsi
    e8d8:	4d 03 6c 24 38       	add    0x38(%r12),%r13
    e8dd:	4c 89 ef             	mov    %r13,%rdi
    e8e0:	e8 4b eb ff ff       	callq  d430 <g_utf8_offset_to_pointer@plt>
    e8e5:	4c 29 e8             	sub    %r13,%rax
    e8e8:	89 da                	mov    %ebx,%edx
    e8ea:	48 89 ef             	mov    %rbp,%rdi
    e8ed:	89 c6                	mov    %eax,%esi
    e8ef:	e8 bc ef 00 00       	callq  1d8b0 <pango_item_split>
    e8f4:	8b 7c 24 0c          	mov    0xc(%rsp),%edi
    e8f8:	4c 8b 74 24 10       	mov    0x10(%rsp),%r14
    e8fd:	48 89 c2             	mov    %rax,%rdx
    e900:	41 01 7f 70          	add    %edi,0x70(%r15)
    e904:	31 c9                	xor    %ecx,%ecx
    e906:	4c 89 fe             	mov    %r15,%rsi
    e909:	4c 89 f7             	mov    %r14,%rdi
    e90c:	e8 da fa ff ff       	callq  e3eb <g_unichar_isspace@plt+0x5ab>
    e911:	49 8b 46 10          	mov    0x10(%r14),%rax
    e915:	48 8b 00             	mov    (%rax),%rax
    e918:	48 8b 78 08          	mov    0x8(%rax),%rdi
    e91c:	e8 6f 5d 00 00       	callq  14690 <pango_glyph_string_get_width>
    e921:	41 01 5f 60          	add    %ebx,0x60(%r15)
    e925:	41 29 47 70          	sub    %eax,0x70(%r15)
    e929:	b8 01 00 00 00       	mov    $0x1,%eax
    e92e:	eb 33                	jmp    e963 <g_unichar_isspace@plt+0xb23>
    e930:	49 8b 7f 20          	mov    0x20(%r15),%rdi
    e934:	e8 27 59 00 00       	callq  14260 <pango_glyph_string_free>
    e939:	49 8b 7f 58          	mov    0x58(%r15),%rdi
    e93d:	49 c7 47 20 00 00 00 	movq   $0x0,0x20(%r15)
    e944:	00 
    e945:	e8 d6 ea ff ff       	callq  d420 <g_free@plt>
    e94a:	49 c7 47 58 00 00 00 	movq   $0x0,0x58(%r15)
    e951:	00 
    e952:	31 c0                	xor    %eax,%eax
    e954:	eb 0d                	jmp    e963 <g_unichar_isspace@plt+0xb23>
    e956:	85 db                	test   %ebx,%ebx
    e958:	0f 8f ce fe ff ff    	jg     e82c <g_unichar_isspace@plt+0x9ec>
    e95e:	e9 f6 fe ff ff       	jmpq   e859 <g_unichar_isspace@plt+0xa19>
    e963:	48 83 c4 38          	add    $0x38,%rsp
    e967:	5b                   	pop    %rbx
    e968:	5d                   	pop    %rbp
    e969:	41 5c                	pop    %r12
    e96b:	41 5d                	pop    %r13
    e96d:	41 5e                	pop    %r14
    e96f:	41 5f                	pop    %r15
    e971:	c3                   	retq   
    e972:	41 55                	push   %r13
    e974:	49 89 f5             	mov    %rsi,%r13
    e977:	41 54                	push   %r12
    e979:	49 89 d4             	mov    %rdx,%r12
    e97c:	55                   	push   %rbp
    e97d:	48 89 fd             	mov    %rdi,%rbp
    e980:	48 89 ee             	mov    %rbp,%rsi
    e983:	53                   	push   %rbx
    e984:	48 83 ec 18          	sub    $0x18,%rsp
    e988:	48 8b 1f             	mov    (%rdi),%rbx
    e98b:	48 8b bb a0 00 00 00 	mov    0xa0(%rbx),%rdi
    e992:	e8 39 ee ff ff       	callq  d7d0 <g_slist_prepend@plt>
    e997:	ff 83 a8 00 00 00    	incl   0xa8(%rbx)
    e99d:	83 7b 58 00          	cmpl   $0x0,0x58(%rbx)
    e9a1:	48 89 83 a0 00 00 00 	mov    %rax,0xa0(%rbx)
    e9a8:	78 19                	js     e9c3 <g_unichar_isspace@plt+0xb83>
    e9aa:	48 89 e2             	mov    %rsp,%rdx
    e9ad:	31 f6                	xor    %esi,%esi
    e9af:	48 89 ef             	mov    %rbp,%rdi
    e9b2:	e8 c9 22 01 00       	callq  20c80 <pango_layout_line_get_extents>
    e9b7:	8b 44 24 0c          	mov    0xc(%rsp),%eax
    e9bb:	41 29 04 24          	sub    %eax,(%r12)
    e9bf:	41 89 45 00          	mov    %eax,0x0(%r13)
    e9c3:	48 83 c4 18          	add    $0x18,%rsp
    e9c7:	5b                   	pop    %rbx
    e9c8:	5d                   	pop    %rbp
    e9c9:	41 5c                	pop    %r12
    e9cb:	41 5d                	pop    %r13
    e9cd:	c3                   	retq   
    e9ce:	41 55                	push   %r13
    e9d0:	41 89 cd             	mov    %ecx,%r13d
    e9d3:	41 54                	push   %r12
    e9d5:	49 89 fc             	mov    %rdi,%r12
    e9d8:	48 89 d7             	mov    %rdx,%rdi
    e9db:	55                   	push   %rbp
    e9dc:	4c 89 c5             	mov    %r8,%rbp
    e9df:	53                   	push   %rbx
    e9e0:	48 89 f3             	mov    %rsi,%rbx
    e9e3:	48 83 ec 18          	sub    $0x18,%rsp
    e9e7:	e8 44 96 00 00       	callq  18030 <pango_color_parse>
    e9ec:	85 c0                	test   %eax,%eax
    e9ee:	ba 01 00 00 00       	mov    $0x1,%edx
    e9f3:	75 29                	jne    ea1e <g_unichar_isspace@plt+0xbde>
    e9f5:	e8 26 ed ff ff       	callq  d720 <g_markup_error_quark@plt>
    e9fa:	48 8d 0d 5f 8b 02 00 	lea    0x28b5f(%rip),%rcx        # 37560 <pango_tab_align_get_type+0xbd40>
    ea01:	ba 05 00 00 00       	mov    $0x5,%edx
    ea06:	89 c6                	mov    %eax,%esi
    ea08:	48 89 1c 24          	mov    %rbx,(%rsp)
    ea0c:	45 89 e9             	mov    %r13d,%r9d
    ea0f:	4d 89 e0             	mov    %r12,%r8
    ea12:	48 89 ef             	mov    %rbp,%rdi
    ea15:	31 c0                	xor    %eax,%eax
    ea17:	e8 54 ec ff ff       	callq  d670 <g_set_error@plt>
    ea1c:	31 d2                	xor    %edx,%edx
    ea1e:	48 83 c4 18          	add    $0x18,%rsp
    ea22:	89 d0                	mov    %edx,%eax
    ea24:	5b                   	pop    %rbx
    ea25:	5d                   	pop    %rbp
    ea26:	41 5c                	pop    %r12
    ea28:	41 5d                	pop    %r13
    ea2a:	c3                   	retq   
    ea2b:	41 56                	push   %r14
    ea2d:	41 55                	push   %r13
    ea2f:	45 89 c5             	mov    %r8d,%r13d
    ea32:	41 54                	push   %r12
    ea34:	49 89 fc             	mov    %rdi,%r12
    ea37:	48 89 d7             	mov    %rdx,%rdi
    ea3a:	48 89 ca             	mov    %rcx,%rdx
    ea3d:	31 c9                	xor    %ecx,%ecx
    ea3f:	55                   	push   %rbp
    ea40:	4c 89 cd             	mov    %r9,%rbp
    ea43:	53                   	push   %rbx
    ea44:	48 89 f3             	mov    %rsi,%rbx
    ea47:	48 83 ec 20          	sub    $0x20,%rsp
    ea4b:	4c 8d 44 24 18       	lea    0x18(%rsp),%r8
    ea50:	48 c7 44 24 18 00 00 	movq   $0x0,0x18(%rsp)
    ea57:	00 00 
    ea59:	e8 d2 ba 01 00       	callq  2a530 <pango_parse_enum>
    ea5e:	85 c0                	test   %eax,%eax
    ea60:	ba 01 00 00 00       	mov    $0x1,%edx
    ea65:	75 3d                	jne    eaa4 <g_unichar_isspace@plt+0xc64>
    ea67:	4c 8b 74 24 18       	mov    0x18(%rsp),%r14
    ea6c:	e8 af ec ff ff       	callq  d720 <g_markup_error_quark@plt>
    ea71:	48 8d 0d 58 8b 02 00 	lea    0x28b58(%rip),%rcx        # 375d0 <pango_tab_align_get_type+0xbdb0>
    ea78:	ba 05 00 00 00       	mov    $0x5,%edx
    ea7d:	89 c6                	mov    %eax,%esi
    ea7f:	4d 89 e1             	mov    %r12,%r9
    ea82:	49 89 d8             	mov    %rbx,%r8
    ea85:	48 89 ef             	mov    %rbp,%rdi
    ea88:	31 c0                	xor    %eax,%eax
    ea8a:	4c 89 74 24 08       	mov    %r14,0x8(%rsp)
    ea8f:	44 89 2c 24          	mov    %r13d,(%rsp)
    ea93:	e8 d8 eb ff ff       	callq  d670 <g_set_error@plt>
    ea98:	48 8b 7c 24 18       	mov    0x18(%rsp),%rdi
    ea9d:	e8 7e e9 ff ff       	callq  d420 <g_free@plt>
    eaa2:	31 d2                	xor    %edx,%edx
    eaa4:	48 83 c4 20          	add    $0x20,%rsp
    eaa8:	89 d0                	mov    %edx,%eax
    eaaa:	5b                   	pop    %rbx
    eaab:	5d                   	pop    %rbp
    eaac:	41 5c                	pop    %r12
    eaae:	41 5d                	pop    %r13
    eab0:	41 5e                	pop    %r14
    eab2:	c3                   	retq   
    eab3:	41 57                	push   %r15
    eab5:	49 89 d7             	mov    %rdx,%r15
    eab8:	41 56                	push   %r14
    eaba:	41 89 ce             	mov    %ecx,%r14d
    eabd:	41 55                	push   %r13
    eabf:	49 89 fd             	mov    %rdi,%r13
    eac2:	41 54                	push   %r12
    eac4:	4d 89 c4             	mov    %r8,%r12
    eac7:	55                   	push   %rbp
    eac8:	53                   	push   %rbx
    eac9:	48 89 f3             	mov    %rsi,%rbx
    eacc:	48 8d 35 cd 88 02 00 	lea    0x288cd(%rip),%rsi        # 373a0 <pango_tab_align_get_type+0xbb80>
    ead3:	48 89 df             	mov    %rbx,%rdi
    ead6:	48 83 ec 18          	sub    $0x18,%rsp
    eada:	e8 51 ed ff ff       	callq  d830 <strcmp@plt>
    eadf:	85 c0                	test   %eax,%eax
    eae1:	74 33                	je     eb16 <g_unichar_isspace@plt+0xcd6>
    eae3:	0f b6 2b             	movzbl (%rbx),%ebp
    eae6:	b8 79 00 00 00       	mov    $0x79,%eax
    eaeb:	29 e8                	sub    %ebp,%eax
    eaed:	75 12                	jne    eb01 <g_unichar_isspace@plt+0xcc1>
    eaef:	80 7b 01 65          	cmpb   $0x65,0x1(%rbx)
    eaf3:	75 0c                	jne    eb01 <g_unichar_isspace@plt+0xcc1>
    eaf5:	80 7b 02 73          	cmpb   $0x73,0x2(%rbx)
    eaf9:	75 06                	jne    eb01 <g_unichar_isspace@plt+0xcc1>
    eafb:	80 7b 03 00          	cmpb   $0x0,0x3(%rbx)
    eaff:	74 15                	je     eb16 <g_unichar_isspace@plt+0xcd6>
    eb01:	83 fd 74             	cmp    $0x74,%ebp
    eb04:	75 06                	jne    eb0c <g_unichar_isspace@plt+0xccc>
    eb06:	80 7b 01 00          	cmpb   $0x0,0x1(%rbx)
    eb0a:	74 0a                	je     eb16 <g_unichar_isspace@plt+0xcd6>
    eb0c:	85 c0                	test   %eax,%eax
    eb0e:	75 14                	jne    eb24 <g_unichar_isspace@plt+0xce4>
    eb10:	80 7b 01 00          	cmpb   $0x0,0x1(%rbx)
    eb14:	75 0e                	jne    eb24 <g_unichar_isspace@plt+0xce4>
    eb16:	41 c7 07 01 00 00 00 	movl   $0x1,(%r15)
    eb1d:	b8 01 00 00 00       	mov    $0x1,%eax
    eb22:	eb 74                	jmp    eb98 <g_unichar_isspace@plt+0xd58>
    eb24:	48 8d 35 7a 88 02 00 	lea    0x2887a(%rip),%rsi        # 373a5 <pango_tab_align_get_type+0xbb85>
    eb2b:	48 89 df             	mov    %rbx,%rdi
    eb2e:	e8 fd ec ff ff       	callq  d830 <strcmp@plt>
    eb33:	85 c0                	test   %eax,%eax
    eb35:	74 2a                	je     eb61 <g_unichar_isspace@plt+0xd21>
    eb37:	b8 6e 00 00 00       	mov    $0x6e,%eax
    eb3c:	29 e8                	sub    %ebp,%eax
    eb3e:	75 0c                	jne    eb4c <g_unichar_isspace@plt+0xd0c>
    eb40:	80 7b 01 6f          	cmpb   $0x6f,0x1(%rbx)
    eb44:	75 06                	jne    eb4c <g_unichar_isspace@plt+0xd0c>
    eb46:	80 7b 02 00          	cmpb   $0x0,0x2(%rbx)
    eb4a:	74 15                	je     eb61 <g_unichar_isspace@plt+0xd21>
    eb4c:	83 fd 66             	cmp    $0x66,%ebp
    eb4f:	75 06                	jne    eb57 <g_unichar_isspace@plt+0xd17>
    eb51:	80 7b 01 00          	cmpb   $0x0,0x1(%rbx)
    eb55:	74 0a                	je     eb61 <g_unichar_isspace@plt+0xd21>
    eb57:	85 c0                	test   %eax,%eax
    eb59:	75 14                	jne    eb6f <g_unichar_isspace@plt+0xd2f>
    eb5b:	80 7b 01 00          	cmpb   $0x0,0x1(%rbx)
    eb5f:	75 0e                	jne    eb6f <g_unichar_isspace@plt+0xd2f>
    eb61:	41 c7 07 00 00 00 00 	movl   $0x0,(%r15)
    eb68:	b8 01 00 00 00       	mov    $0x1,%eax
    eb6d:	eb 29                	jmp    eb98 <g_unichar_isspace@plt+0xd58>
    eb6f:	e8 ac eb ff ff       	callq  d720 <g_markup_error_quark@plt>
    eb74:	48 8d 0d b5 8a 02 00 	lea    0x28ab5(%rip),%rcx        # 37630 <pango_tab_align_get_type+0xbe10>
    eb7b:	89 c6                	mov    %eax,%esi
    eb7d:	48 89 1c 24          	mov    %rbx,(%rsp)
    eb81:	31 c0                	xor    %eax,%eax
    eb83:	45 89 f1             	mov    %r14d,%r9d
    eb86:	4d 89 e8             	mov    %r13,%r8
    eb89:	ba 05 00 00 00       	mov    $0x5,%edx
    eb8e:	4c 89 e7             	mov    %r12,%rdi
    eb91:	e8 da ea ff ff       	callq  d670 <g_set_error@plt>
    eb96:	31 c0                	xor    %eax,%eax
    eb98:	48 83 c4 18          	add    $0x18,%rsp
    eb9c:	5b                   	pop    %rbx
    eb9d:	5d                   	pop    %rbp
    eb9e:	41 5c                	pop    %r12
    eba0:	41 5d                	pop    %r13
    eba2:	41 5e                	pop    %r14
    eba4:	41 5f                	pop    %r15
    eba6:	c3                   	retq   
    eba7:	41 55                	push   %r13
    eba9:	41 89 cd             	mov    %ecx,%r13d
    ebac:	41 54                	push   %r12
    ebae:	49 89 fc             	mov    %rdi,%r12
    ebb1:	55                   	push   %rbp
    ebb2:	4c 89 c5             	mov    %r8,%rbp
    ebb5:	53                   	push   %rbx
    ebb6:	48 89 f3             	mov    %rsi,%rbx
    ebb9:	48 83 ec 28          	sub    $0x28,%rsp
    ebbd:	48 8d 7c 24 18       	lea    0x18(%rsp),%rdi
    ebc2:	48 89 74 24 18       	mov    %rsi,0x18(%rsp)
    ebc7:	48 89 d6             	mov    %rdx,%rsi
    ebca:	e8 11 b6 01 00       	callq  2a1e0 <pango_scan_int>
    ebcf:	85 c0                	test   %eax,%eax
    ebd1:	74 0f                	je     ebe2 <g_unichar_isspace@plt+0xda2>
    ebd3:	48 8b 54 24 18       	mov    0x18(%rsp),%rdx
    ebd8:	b8 01 00 00 00       	mov    $0x1,%eax
    ebdd:	80 3a 00             	cmpb   $0x0,(%rdx)
    ebe0:	74 29                	je     ec0b <g_unichar_isspace@plt+0xdcb>
    ebe2:	e8 39 eb ff ff       	callq  d720 <g_markup_error_quark@plt>
    ebe7:	48 8d 0d ba 8a 02 00 	lea    0x28aba(%rip),%rcx        # 376a8 <pango_tab_align_get_type+0xbe88>
    ebee:	89 c6                	mov    %eax,%esi
    ebf0:	48 89 1c 24          	mov    %rbx,(%rsp)
    ebf4:	31 c0                	xor    %eax,%eax
    ebf6:	45 89 e9             	mov    %r13d,%r9d
    ebf9:	4d 89 e0             	mov    %r12,%r8
    ebfc:	ba 05 00 00 00       	mov    $0x5,%edx
    ec01:	48 89 ef             	mov    %rbp,%rdi
    ec04:	e8 67 ea ff ff       	callq  d670 <g_set_error@plt>
    ec09:	31 c0                	xor    %eax,%eax
    ec0b:	48 83 c4 28          	add    $0x28,%rsp
    ec0f:	5b                   	pop    %rbx
    ec10:	5d                   	pop    %rbp
    ec11:	41 5c                	pop    %r12
    ec13:	41 5d                	pop    %r13
    ec15:	c3                   	retq   
    ec16:	66 2e 0f 1f 84 00 00 	nopw   %cs:0x0(%rax,%rax,1)
    ec1d:	00 00 00 
    ec20:	48 8d 05 20 dd 23 00 	lea    0x23dd20(%rip),%rax        # 24c947 <pango_tab_align_get_type+0x221127>
    ec27:	48 8d 3d 12 dd 23 00 	lea    0x23dd12(%rip),%rdi        # 24c940 <pango_tab_align_get_type+0x221120>
    ec2e:	55                   	push   %rbp
    ec2f:	48 29 f8             	sub    %rdi,%rax
    ec32:	48 89 e5             	mov    %rsp,%rbp
    ec35:	48 83 f8 0e          	cmp    $0xe,%rax
    ec39:	77 02                	ja     ec3d <g_unichar_isspace@plt+0xdfd>
    ec3b:	5d                   	pop    %rbp
    ec3c:	c3                   	retq   
    ec3d:	48 8b 05 54 d3 23 00 	mov    0x23d354(%rip),%rax        # 24bf98 <pango_tab_align_get_type+0x220778>
    ec44:	48 85 c0             	test   %rax,%rax
    ec47:	74 f2                	je     ec3b <g_unichar_isspace@plt+0xdfb>
    ec49:	5d                   	pop    %rbp
    ec4a:	ff e0                	jmpq   *%rax
    ec4c:	0f 1f 40 00          	nopl   0x0(%rax)
    ec50:	48 8d 05 e9 dc 23 00 	lea    0x23dce9(%rip),%rax        # 24c940 <pango_tab_align_get_type+0x221120>
    ec57:	48 8d 3d e2 dc 23 00 	lea    0x23dce2(%rip),%rdi        # 24c940 <pango_tab_align_get_type+0x221120>
    ec5e:	55                   	push   %rbp
    ec5f:	48 29 f8             	sub    %rdi,%rax
    ec62:	48 89 e5             	mov    %rsp,%rbp
    ec65:	48 c1 f8 03          	sar    $0x3,%rax
    ec69:	48 89 c2             	mov    %rax,%rdx
    ec6c:	48 c1 ea 3f          	shr    $0x3f,%rdx
    ec70:	48 01 d0             	add    %rdx,%rax
    ec73:	48 d1 f8             	sar    %rax
    ec76:	75 02                	jne    ec7a <g_unichar_isspace@plt+0xe3a>
    ec78:	5d                   	pop    %rbp
    ec79:	c3                   	retq   
    ec7a:	48 8b 15 57 d3 23 00 	mov    0x23d357(%rip),%rdx        # 24bfd8 <pango_tab_align_get_type+0x2207b8>
    ec81:	48 85 d2             	test   %rdx,%rdx
    ec84:	74 f2                	je     ec78 <g_unichar_isspace@plt+0xe38>
    ec86:	5d                   	pop    %rbp
    ec87:	48 89 c6             	mov    %rax,%rsi
    ec8a:	ff e2                	jmpq   *%rdx
    ec8c:	0f 1f 40 00          	nopl   0x0(%rax)
    ec90:	80 3d a9 dc 23 00 00 	cmpb   $0x0,0x23dca9(%rip)        # 24c940 <pango_tab_align_get_type+0x221120>
    ec97:	75 27                	jne    ecc0 <g_unichar_isspace@plt+0xe80>
    ec99:	48 83 3d 47 d3 23 00 	cmpq   $0x0,0x23d347(%rip)        # 24bfe8 <pango_tab_align_get_type+0x2207c8>
    eca0:	00 
    eca1:	55                   	push   %rbp
    eca2:	48 89 e5             	mov    %rsp,%rbp
    eca5:	74 0c                	je     ecb3 <g_unichar_isspace@plt+0xe73>
    eca7:	48 8b 3d 32 d9 23 00 	mov    0x23d932(%rip),%rdi        # 24c5e0 <pango_tab_align_get_type+0x220dc0>
    ecae:	e8 1d f1 ff ff       	callq  ddd0 <__cxa_finalize@plt>
    ecb3:	e8 68 ff ff ff       	callq  ec20 <g_unichar_isspace@plt+0xde0>
    ecb8:	5d                   	pop    %rbp
    ecb9:	c6 05 80 dc 23 00 01 	movb   $0x1,0x23dc80(%rip)        # 24c940 <pango_tab_align_get_type+0x221120>
    ecc0:	f3 c3                	repz retq 
    ecc2:	66 66 66 66 66 2e 0f 	data32 data32 data32 data32 nopw %cs:0x0(%rax,%rax,1)
    ecc9:	1f 84 00 00 00 00 00 
    ecd0:	48 83 3d 88 b7 23 00 	cmpq   $0x0,0x23b788(%rip)        # 24a460 <pango_tab_align_get_type+0x21ec40>
    ecd7:	00 
    ecd8:	74 26                	je     ed00 <g_unichar_isspace@plt+0xec0>
    ecda:	48 8b 05 ef d2 23 00 	mov    0x23d2ef(%rip),%rax        # 24bfd0 <pango_tab_align_get_type+0x2207b0>
    ece1:	48 85 c0             	test   %rax,%rax
    ece4:	74 1a                	je     ed00 <g_unichar_isspace@plt+0xec0>
    ece6:	55                   	push   %rbp
    ece7:	48 8d 3d 72 b7 23 00 	lea    0x23b772(%rip),%rdi        # 24a460 <pango_tab_align_get_type+0x21ec40>
    ecee:	48 89 e5             	mov    %rsp,%rbp
    ecf1:	ff d0                	callq  *%rax
    ecf3:	5d                   	pop    %rbp
    ecf4:	e9 57 ff ff ff       	jmpq   ec50 <g_unichar_isspace@plt+0xe10>
    ecf9:	0f 1f 80 00 00 00 00 	nopl   0x0(%rax)
    ed00:	e9 4b ff ff ff       	jmpq   ec50 <g_unichar_isspace@plt+0xe10>
    ed05:	66 2e 0f 1f 84 00 00 	nopw   %cs:0x0(%rax,%rax,1)
    ed0c:	00 00 00 
    ed0f:	90                   	nop
    ed10:	41 54                	push   %r12
    ed12:	55                   	push   %rbp
    ed13:	53                   	push   %rbx
    ed14:	48 83 ec 20          	sub    $0x20,%rsp
    ed18:	48 8b 6a 08          	mov    0x8(%rdx),%rbp
    ed1c:	48 85 ed             	test   %rbp,%rbp
    ed1f:	74 7f                	je     eda0 <g_unichar_isspace@plt+0xf60>
    ed21:	48 8b 45 00          	mov    0x0(%rbp),%rax
    ed25:	4c 8b a0 88 00 00 00 	mov    0x88(%rax),%r12
    ed2c:	4d 85 e4             	test   %r12,%r12
    ed2f:	74 6f                	je     eda0 <g_unichar_isspace@plt+0xf60>
    ed31:	85 f6                	test   %esi,%esi
    ed33:	48 89 fb             	mov    %rdi,%rbx
    ed36:	78 38                	js     ed70 <g_unichar_isspace@plt+0xf30>
    ed38:	48 8d 05 e8 3c 02 00 	lea    0x23ce8(%rip),%rax        # 32a27 <pango_tab_align_get_type+0x7207>
    ed3f:	48 85 ff             	test   %rdi,%rdi
    ed42:	48 0f 44 d8          	cmove  %rax,%rbx
    ed46:	45 89 c1             	mov    %r8d,%r9d
    ed49:	48 89 ef             	mov    %rbp,%rdi
    ed4c:	49 89 c8             	mov    %rcx,%r8
    ed4f:	48 89 d1             	mov    %rdx,%rcx
    ed52:	89 f2                	mov    %esi,%edx
    ed54:	48 89 de             	mov    %rbx,%rsi
    ed57:	41 ff d4             	callq  *%r12
    ed5a:	48 83 c4 20          	add    $0x20,%rsp
    ed5e:	b8 01 00 00 00       	mov    $0x1,%eax
    ed63:	5b                   	pop    %rbx
    ed64:	5d                   	pop    %rbp
    ed65:	41 5c                	pop    %r12
    ed67:	c3                   	retq   
    ed68:	0f 1f 84 00 00 00 00 	nopl   0x0(%rax,%rax,1)
    ed6f:	00 
    ed70:	44 89 44 24 1c       	mov    %r8d,0x1c(%rsp)
    ed75:	48 89 4c 24 10       	mov    %rcx,0x10(%rsp)
    ed7a:	48 89 54 24 08       	mov    %rdx,0x8(%rsp)
    ed7f:	e8 4c e8 ff ff       	callq  d5d0 <strlen@plt>
    ed84:	48 8b 54 24 08       	mov    0x8(%rsp),%rdx
    ed89:	89 c6                	mov    %eax,%esi
    ed8b:	48 8b 4c 24 10       	mov    0x10(%rsp),%rcx
    ed90:	44 8b 44 24 1c       	mov    0x1c(%rsp),%r8d
    ed95:	eb af                	jmp    ed46 <g_unichar_isspace@plt+0xf06>
    ed97:	66 0f 1f 84 00 00 00 	nopw   0x0(%rax,%rax,1)
    ed9e:	00 00 
    eda0:	48 83 c4 20          	add    $0x20,%rsp
    eda4:	31 c0                	xor    %eax,%eax
    eda6:	5b                   	pop    %rbx
    eda7:	5d                   	pop    %rbp
    eda8:	41 5c                	pop    %r12
    edaa:	c3                   	retq   
    edab:	0f 1f 44 00 00       	nopl   0x0(%rax,%rax,1)
    edb0:	41 57                	push   %r15
    edb2:	4d 89 c2             	mov    %r8,%r10
    edb5:	41 56                	push   %r14
    edb7:	41 55                	push   %r13
    edb9:	41 54                	push   %r12
    edbb:	4d 89 cc             	mov    %r9,%r12
    edbe:	55                   	push   %rbp
    edbf:	53                   	push   %rbx
    edc0:	48 89 fb             	mov    %rdi,%rbx
    edc3:	48 83 ec 18          	sub    $0x18,%rsp
    edc7:	45 0f b6 31          	movzbl (%r9),%r14d
    edcb:	45 0f b6 69 01       	movzbl 0x1(%r9),%r13d
    edd0:	49 89 50 08          	mov    %rdx,0x8(%r8)
    edd4:	44 89 f0             	mov    %r14d,%eax
    edd7:	41 c0 ed 02          	shr    $0x2,%r13b
    eddb:	83 e0 01             	and    $0x1,%eax
    edde:	41 83 e5 01          	and    $0x1,%r13d
    ede2:	88 44 24 03          	mov    %al,0x3(%rsp)
    ede6:	44 89 f0             	mov    %r14d,%eax
    ede9:	41 c0 ee 04          	shr    $0x4,%r14b
    eded:	d0 e8                	shr    %al
    edef:	41 83 e6 01          	and    $0x1,%r14d
    edf3:	88 44 24 02          	mov    %al,0x2(%rsp)
    edf7:	80 64 24 02 01       	andb   $0x1,0x2(%rsp)
    edfc:	48 29 fe             	sub    %rdi,%rsi
    edff:	48 89 f5             	mov    %rsi,%rbp
    ee02:	0f 84 c8 00 00 00    	je     eed0 <g_unichar_isspace@plt+0x1090>
    ee08:	48 85 ff             	test   %rdi,%rdi
    ee0b:	0f 85 bf 00 00 00    	jne    eed0 <g_unichar_isspace@plt+0x1090>
    ee11:	48 8d 15 28 e1 01 00 	lea    0x1e128(%rip),%rdx        # 2cf40 <pango_tab_align_get_type+0x1720>
    ee18:	48 8d 35 71 e5 01 00 	lea    0x1e571(%rip),%rsi        # 2d390 <pango_tab_align_get_type+0x1b70>
    ee1f:	48 8d 3d 30 e1 01 00 	lea    0x1e130(%rip),%rdi        # 2cf56 <pango_tab_align_get_type+0x1736>
    ee26:	4c 89 44 24 08       	mov    %r8,0x8(%rsp)
    ee2b:	89 4c 24 04          	mov    %ecx,0x4(%rsp)
    ee2f:	45 31 ff             	xor    %r15d,%r15d
    ee32:	e8 b9 e8 ff ff       	callq  d6f0 <g_return_if_fail_warning@plt>
    ee37:	8b 4c 24 04          	mov    0x4(%rsp),%ecx
    ee3b:	4c 8b 54 24 08       	mov    0x8(%rsp),%r10
    ee40:	41 b8 01 00 00 00    	mov    $0x1,%r8d
    ee46:	48 63 c9             	movslq %ecx,%rcx
    ee49:	4c 89 d2             	mov    %r10,%rdx
    ee4c:	89 ee                	mov    %ebp,%esi
    ee4e:	49 8d 0c 8c          	lea    (%r12,%rcx,4),%rcx
    ee52:	48 89 df             	mov    %rbx,%rdi
    ee55:	e8 b6 fe ff ff       	callq  ed10 <g_unichar_isspace@plt+0xed0>
    ee5a:	85 c0                	test   %eax,%eax
    ee5c:	74 58                	je     eeb6 <g_unichar_isspace@plt+0x1076>
    ee5e:	41 0f b6 44 24 01    	movzbl 0x1(%r12),%eax
    ee64:	41 0f b6 14 24       	movzbl (%r12),%edx
    ee69:	45 89 e9             	mov    %r13d,%r9d
    ee6c:	41 83 e1 01          	and    $0x1,%r9d
    ee70:	41 c1 e1 02          	shl    $0x2,%r9d
    ee74:	83 e0 fb             	and    $0xfffffffb,%eax
    ee77:	44 09 c8             	or     %r9d,%eax
    ee7a:	41 88 44 24 01       	mov    %al,0x1(%r12)
    ee7f:	89 d0                	mov    %edx,%eax
    ee81:	83 e2 fe             	and    $0xfffffffe,%edx
    ee84:	83 e0 01             	and    $0x1,%eax
    ee87:	0a 44 24 03          	or     0x3(%rsp),%al
    ee8b:	09 c2                	or     %eax,%edx
    ee8d:	89 d0                	mov    %edx,%eax
    ee8f:	83 e2 fd             	and    $0xfffffffd,%edx
    ee92:	d0 e8                	shr    %al
    ee94:	0a 44 24 02          	or     0x2(%rsp),%al
    ee98:	83 e0 01             	and    $0x1,%eax
    ee9b:	01 c0                	add    %eax,%eax
    ee9d:	09 c2                	or     %eax,%edx
    ee9f:	89 d0                	mov    %edx,%eax
    eea1:	83 e2 ef             	and    $0xffffffef,%edx
    eea4:	c0 e8 04             	shr    $0x4,%al
    eea7:	44 09 f0             	or     %r14d,%eax
    eeaa:	83 e0 01             	and    $0x1,%eax
    eead:	c1 e0 04             	shl    $0x4,%eax
    eeb0:	09 c2                	or     %eax,%edx
    eeb2:	41 88 14 24          	mov    %dl,(%r12)
    eeb6:	48 83 c4 18          	add    $0x18,%rsp
    eeba:	44 89 f8             	mov    %r15d,%eax
    eebd:	5b                   	pop    %rbx
    eebe:	5d                   	pop    %rbp
    eebf:	41 5c                	pop    %r12
    eec1:	41 5d                	pop    %r13
    eec3:	41 5e                	pop    %r14
    eec5:	41 5f                	pop    %r15
    eec7:	c3                   	retq   
    eec8:	0f 1f 84 00 00 00 00 	nopl   0x0(%rax,%rax,1)
    eecf:	00 
    eed0:	48 85 ed             	test   %rbp,%rbp
    eed3:	7e 5b                	jle    ef30 <g_unichar_isspace@plt+0x10f0>
    eed5:	48 8b 05 04 d1 23 00 	mov    0x23d104(%rip),%rax        # 24bfe0 <pango_tab_align_get_type+0x2207c0>
    eedc:	45 31 c0             	xor    %r8d,%r8d
    eedf:	48 8b 30             	mov    (%rax),%rsi
    eee2:	0f b6 03             	movzbl (%rbx),%eax
    eee5:	48 0f be 04 06       	movsbq (%rsi,%rax,1),%rax
    eeea:	48 01 d8             	add    %rbx,%rax
    eeed:	48 89 c2             	mov    %rax,%rdx
    eef0:	48 29 da             	sub    %rbx,%rdx
    eef3:	48 39 d5             	cmp    %rdx,%rbp
    eef6:	7e 22                	jle    ef1a <g_unichar_isspace@plt+0x10da>
    eef8:	0f 1f 84 00 00 00 00 	nopl   0x0(%rax,%rax,1)
    eeff:	00 
    ef00:	0f b6 10             	movzbl (%rax),%edx
    ef03:	49 83 c0 01          	add    $0x1,%r8
    ef07:	48 0f be 14 16       	movsbq (%rsi,%rdx,1),%rdx
    ef0c:	48 01 d0             	add    %rdx,%rax
    ef0f:	48 89 c2             	mov    %rax,%rdx
    ef12:	48 29 da             	sub    %rbx,%rdx
    ef15:	48 39 d5             	cmp    %rdx,%rbp
    ef18:	7f e6                	jg     ef00 <g_unichar_isspace@plt+0x10c0>
    ef1a:	48 39 d5             	cmp    %rdx,%rbp
    ef1d:	7c 04                	jl     ef23 <g_unichar_isspace@plt+0x10e3>
    ef1f:	49 83 c0 01          	add    $0x1,%r8
    ef23:	45 89 c7             	mov    %r8d,%r15d
    ef26:	41 83 c0 01          	add    $0x1,%r8d
    ef2a:	e9 17 ff ff ff       	jmpq   ee46 <g_unichar_isspace@plt+0x1006>
    ef2f:	90                   	nop
    ef30:	48 89 ee             	mov    %rbp,%rsi
    ef33:	48 89 df             	mov    %rbx,%rdi
    ef36:	4c 89 54 24 08       	mov    %r10,0x8(%rsp)
    ef3b:	89 4c 24 04          	mov    %ecx,0x4(%rsp)
    ef3f:	e8 8c e7 ff ff       	callq  d6d0 <g_utf8_strlen@plt>
    ef44:	8b 4c 24 04          	mov    0x4(%rsp),%ecx
    ef48:	41 89 c7             	mov    %eax,%r15d
    ef4b:	44 8d 40 01          	lea    0x1(%rax),%r8d
    ef4f:	4c 8b 54 24 08       	mov    0x8(%rsp),%r10
    ef54:	e9 ed fe ff ff       	jmpq   ee46 <g_unichar_isspace@plt+0x1006>
    ef59:	0f 1f 80 00 00 00 00 	nopl   0x0(%rax)

000000000000ef60 <pango_default_break>:
    ef60:	41 57                	push   %r15
    ef62:	41 56                	push   %r14
    ef64:	41 55                	push   %r13
    ef66:	41 54                	push   %r12
    ef68:	55                   	push   %rbp
    ef69:	53                   	push   %rbx
    ef6a:	48 89 fb             	mov    %rdi,%rbx
    ef6d:	48 81 ec 88 00 00 00 	sub    $0x88,%rsp
    ef74:	85 f6                	test   %esi,%esi
    ef76:	89 74 24 54          	mov    %esi,0x54(%rsp)
    ef7a:	48 89 4c 24 60       	mov    %rcx,0x60(%rsp)
    ef7f:	0f 94 c0             	sete   %al
    ef82:	74 34                	je     efb8 <pango_default_break+0x58>
    ef84:	48 85 ff             	test   %rdi,%rdi
    ef87:	75 2f                	jne    efb8 <pango_default_break+0x58>
    ef89:	48 8d 15 d4 df 01 00 	lea    0x1dfd4(%rip),%rdx        # 2cf64 <pango_tab_align_get_type+0x1744>
    ef90:	48 81 c4 88 00 00 00 	add    $0x88,%rsp
    ef97:	48 8d 35 62 e4 01 00 	lea    0x1e462(%rip),%rsi        # 2d400 <pango_tab_align_get_type+0x1be0>
    ef9e:	48 8d 3d b1 df 01 00 	lea    0x1dfb1(%rip),%rdi        # 2cf56 <pango_tab_align_get_type+0x1736>
    efa5:	5b                   	pop    %rbx
    efa6:	5d                   	pop    %rbp
    efa7:	41 5c                	pop    %r12
    efa9:	41 5d                	pop    %r13
    efab:	41 5e                	pop    %r14
    efad:	41 5f                	pop    %r15
    efaf:	e9 3c e7 ff ff       	jmpq   d6f0 <g_return_if_fail_warning@plt>
    efb4:	0f 1f 40 00          	nopl   0x0(%rax)
    efb8:	48 83 7c 24 60 00    	cmpq   $0x0,0x60(%rsp)
    efbe:	0f 84 5c 11 00 00    	je     10120 <pango_default_break+0x11c0>
    efc4:	84 c0                	test   %al,%al
    efc6:	0f 84 54 09 00 00    	je     f920 <pango_default_break+0x9c0>
    efcc:	c7 44 24 28 01 00 00 	movl   $0x1,0x28(%rsp)
    efd3:	00 
    efd4:	41 bc 29 20 00 00    	mov    $0x2029,%r12d
    efda:	44 89 e7             	mov    %r12d,%edi
    efdd:	41 be 1c 00 00 00    	mov    $0x1c,%r14d
    efe3:	e8 08 eb ff ff       	callq  daf0 <g_unichar_break_type@plt>
    efe8:	83 f8 24             	cmp    $0x24,%eax
    efeb:	41 89 c7             	mov    %eax,%r15d
    efee:	b8 1c 00 00 00       	mov    $0x1c,%eax
    eff3:	44 0f 43 f8          	cmovae %eax,%r15d
    eff7:	b8 ff ff ff ff       	mov    $0xffffffff,%eax
    effc:	44 8b 44 24 28       	mov    0x28(%rsp),%r8d
    f001:	89 44 24 78          	mov    %eax,0x78(%rsp)
    f005:	89 44 24 6c          	mov    %eax,0x6c(%rsp)
    f009:	89 44 24 5c          	mov    %eax,0x5c(%rsp)
    f00d:	48 63 44 24 54       	movslq 0x54(%rsp),%rax
    f012:	4c 8b 6c 24 60       	mov    0x60(%rsp),%r13
    f017:	48 89 5c 24 20       	mov    %rbx,0x20(%rsp)
    f01c:	c7 44 24 30 00 00 00 	movl   $0x0,0x30(%rsp)
    f023:	00 
    f024:	c7 44 24 08 00 00 00 	movl   $0x0,0x8(%rsp)
    f02b:	00 
    f02c:	c7 44 24 68 00 00 00 	movl   $0x0,0x68(%rsp)
    f033:	00 
    f034:	c7 44 24 3c 00 00 00 	movl   $0x0,0x3c(%rsp)
    f03b:	00 
    f03c:	48 01 d8             	add    %rbx,%rax
    f03f:	45 85 c0             	test   %r8d,%r8d
    f042:	c7 44 24 1c 00 00 00 	movl   $0x0,0x1c(%rsp)
    f049:	00 
    f04a:	c7 44 24 58 00 00 00 	movl   $0x0,0x58(%rsp)
    f051:	00 
    f052:	c7 44 24 38 00 00 00 	movl   $0x0,0x38(%rsp)
    f059:	00 
    f05a:	c7 44 24 44 00 00 00 	movl   $0x0,0x44(%rsp)
    f061:	00 
    f062:	c7 44 24 14 1c 00 00 	movl   $0x1c,0x14(%rsp)
    f069:	00 
    f06a:	c7 44 24 2c 05 00 00 	movl   $0x5,0x2c(%rsp)
    f071:	00 
    f072:	c7 44 24 18 00 00 00 	movl   $0x0,0x18(%rsp)
    f079:	00 
    f07a:	c7 44 24 40 00 00 00 	movl   $0x0,0x40(%rsp)
    f081:	00 
    f082:	48 89 44 24 70       	mov    %rax,0x70(%rsp)
    f087:	44 89 7c 24 04       	mov    %r15d,0x4(%rsp)
    f08c:	0f 85 ba 04 00 00    	jne    f54c <pango_default_break+0x5ec>
    f092:	66 0f 1f 44 00 00    	nopw   0x0(%rax,%rax,1)
    f098:	48 8b 44 24 20       	mov    0x20(%rsp),%rax
    f09d:	48 8b 15 3c cf 23 00 	mov    0x23cf3c(%rip),%rdx        # 24bfe0 <pango_tab_align_get_type+0x2207c0>
    f0a4:	8b 7c 24 54          	mov    0x54(%rsp),%edi
    f0a8:	0f b6 00             	movzbl (%rax),%eax
    f0ab:	48 8b 12             	mov    (%rdx),%rdx
    f0ae:	48 0f be 04 02       	movsbq (%rdx,%rax,1),%rax
    f0b3:	48 01 44 24 20       	add    %rax,0x20(%rsp)
    f0b8:	85 ff                	test   %edi,%edi
    f0ba:	78 10                	js     f0cc <pango_default_break+0x16c>
    f0bc:	48 8b 44 24 70       	mov    0x70(%rsp),%rax
    f0c1:	48 39 44 24 20       	cmp    %rax,0x20(%rsp)
    f0c6:	0f 83 a4 05 00 00    	jae    f670 <pango_default_break+0x710>
    f0cc:	48 8b 44 24 20       	mov    0x20(%rsp),%rax
    f0d1:	80 38 00             	cmpb   $0x0,(%rax)
    f0d4:	0f 84 96 05 00 00    	je     f670 <pango_default_break+0x710>
    f0da:	48 89 c7             	mov    %rax,%rdi
    f0dd:	e8 ae e6 ff ff       	callq  d790 <g_utf8_get_char@plt>
    f0e2:	89 44 24 10          	mov    %eax,0x10(%rsp)
    f0e6:	8b 7c 24 10          	mov    0x10(%rsp),%edi
    f0ea:	e8 01 ea ff ff       	callq  daf0 <g_unichar_break_type@plt>
    f0ef:	41 89 c7             	mov    %eax,%r15d
    f0f2:	83 f8 24             	cmp    $0x24,%eax
    f0f5:	b8 1c 00 00 00       	mov    $0x1c,%eax
    f0fa:	c7 44 24 34 00 00 00 	movl   $0x0,0x34(%rsp)
    f101:	00 
    f102:	44 0f 43 f8          	cmovae %eax,%r15d
    f106:	44 89 e7             	mov    %r12d,%edi
    f109:	e8 d2 e7 ff ff       	callq  d8e0 <g_unichar_type@plt>
    f10e:	89 c3                	mov    %eax,%ebx
    f110:	8b 44 24 04          	mov    0x4(%rsp),%eax
    f114:	c7 44 24 0c 00 00 00 	movl   $0x0,0xc(%rsp)
    f11b:	00 
    f11c:	8d 68 e1             	lea    -0x1f(%rax),%ebp
    f11f:	b8 05 00 00 00       	mov    $0x5,%eax
    f124:	83 fd 05             	cmp    $0x5,%ebp
    f127:	0f 47 e8             	cmova  %eax,%ebp
    f12a:	83 fd 05             	cmp    $0x5,%ebp
    f12d:	74 2f                	je     f15e <pango_default_break+0x1fe>
    f12f:	8b 54 24 2c          	mov    0x2c(%rsp),%edx
    f133:	48 8d 05 e6 e2 01 00 	lea    0x1e2e6(%rip),%rax        # 2d420 <pango_tab_align_get_type+0x1c00>
    f13a:	89 e9                	mov    %ebp,%ecx
    f13c:	c7 44 24 0c 01 00 00 	movl   $0x1,0xc(%rsp)
    f143:	00 
    f144:	8b 54 d0 04          	mov    0x4(%rax,%rdx,8),%edx
    f148:	8b 04 c8             	mov    (%rax,%rcx,8),%eax
    f14b:	39 c2                	cmp    %eax,%edx
    f14d:	74 0f                	je     f15e <pango_default_break+0x1fe>
    f14f:	83 c2 01             	add    $0x1,%edx
    f152:	39 d0                	cmp    %edx,%eax
    f154:	0f 94 c0             	sete   %al
    f157:	0f b6 c0             	movzbl %al,%eax
    f15a:	89 44 24 0c          	mov    %eax,0xc(%rsp)
    f15e:	44 89 e7             	mov    %r12d,%edi
    f161:	4c 89 6c 24 48       	mov    %r13,0x48(%rsp)
    f166:	e8 d5 ec ff ff       	callq  de40 <g_unichar_isspace@plt>
    f16b:	41 0f b6 55 00       	movzbl 0x0(%r13),%edx
    f170:	83 e0 01             	and    $0x1,%eax
    f173:	c1 e0 03             	shl    $0x3,%eax
    f176:	83 e2 f7             	and    $0xfffffff7,%edx
    f179:	09 c2                	or     %eax,%edx
    f17b:	44 89 e0             	mov    %r12d,%eax
    f17e:	24 7f                	and    $0x7f,%al
    f180:	41 88 55 00          	mov    %dl,0x0(%r13)
    f184:	83 f8 20             	cmp    $0x20,%eax
    f187:	41 0f b6 45 01       	movzbl 0x1(%r13),%eax
    f18c:	0f 94 c2             	sete   %dl
    f18f:	c1 e2 03             	shl    $0x3,%edx
    f192:	83 e0 f7             	and    $0xfffffff7,%eax
    f195:	09 d0                	or     %edx,%eax
    f197:	83 fb 1c             	cmp    $0x1c,%ebx
    f19a:	41 88 45 01          	mov    %al,0x1(%r13)
    f19e:	0f 87 4c 0a 00 00    	ja     fbf0 <pango_default_break+0xc90>
    f1a4:	48 8d 35 d5 df 01 00 	lea    0x1dfd5(%rip),%rsi        # 2d180 <pango_tab_align_get_type+0x1960>
    f1ab:	89 d8                	mov    %ebx,%eax
    f1ad:	48 63 04 86          	movslq (%rsi,%rax,4),%rax
    f1b1:	48 01 f0             	add    %rsi,%rax
    f1b4:	ff e0                	jmpq   *%rax
    f1b6:	66 2e 0f 1f 84 00 00 	nopw   %cs:0x0(%rax,%rax,1)
    f1bd:	00 00 00 
    f1c0:	41 8d 84 24 00 00 f2 	lea    -0xe0000(%r12),%eax
    f1c7:	ff 
    f1c8:	3d ff 0f 00 00       	cmp    $0xfff,%eax
    f1cd:	76 11                	jbe    f1e0 <pango_default_break+0x280>
    f1cf:	41 8d 84 24 10 00 ff 	lea    -0xfff0(%r12),%eax
    f1d6:	ff 
    f1d7:	83 f8 08             	cmp    $0x8,%eax
    f1da:	0f 87 10 01 00 00    	ja     f2f0 <pango_default_break+0x390>
    f1e0:	41 ba 01 00 00 00    	mov    $0x1,%r10d
    f1e6:	41 83 fc 0a          	cmp    $0xa,%r12d
    f1ea:	0f 94 c0             	sete   %al
    f1ed:	83 7c 24 18 0d       	cmpl   $0xd,0x18(%rsp)
    f1f2:	88 44 24 53          	mov    %al,0x53(%rsp)
    f1f6:	75 08                	jne    f200 <pango_default_break+0x2a0>
    f1f8:	84 c0                	test   %al,%al
    f1fa:	0f 85 90 01 00 00    	jne    f390 <pango_default_break+0x430>
    f200:	41 83 fa 01          	cmp    $0x1,%r10d
    f204:	74 2a                	je     f230 <pango_default_break+0x2d0>
    f206:	83 7c 24 38 01       	cmpl   $0x1,0x38(%rsp)
    f20b:	74 23                	je     f230 <pango_default_break+0x2d0>
    f20d:	41 83 fa 02          	cmp    $0x2,%r10d
    f211:	0f 84 79 01 00 00    	je     f390 <pango_default_break+0x430>
    f217:	41 8d 42 fc          	lea    -0x4(%r10),%eax
    f21b:	83 f8 01             	cmp    $0x1,%eax
    f21e:	0f 86 6c 01 00 00    	jbe    f390 <pango_default_break+0x430>
    f224:	83 7c 24 38 03       	cmpl   $0x3,0x38(%rsp)
    f229:	0f 84 61 01 00 00    	je     f390 <pango_default_break+0x430>
    f22f:	90                   	nop
    f230:	8b 44 24 08          	mov    0x8(%rsp),%eax
    f234:	41 80 4d 00 10       	orb    $0x10,0x0(%r13)
    f239:	83 e8 20             	sub    $0x20,%eax
    f23c:	3d 8f 02 00 00       	cmp    $0x28f,%eax
    f241:	76 14                	jbe    f257 <pango_default_break+0x2f7>
    f243:	8b 44 24 08          	mov    0x8(%rsp),%eax
    f247:	2d 00 1e 00 00       	sub    $0x1e00,%eax
    f24c:	3d ff 01 00 00       	cmp    $0x1ff,%eax
    f251:	0f 87 31 04 00 00    	ja     f688 <pango_default_break+0x728>
    f257:	31 d2                	xor    %edx,%edx
    f259:	41 0f b6 45 01       	movzbl 0x1(%r13),%eax
    f25e:	c1 e2 02             	shl    $0x2,%edx
    f261:	44 89 e7             	mov    %r12d,%edi
    f264:	44 89 54 24 38       	mov    %r10d,0x38(%rsp)
    f269:	83 e0 fb             	and    $0xfffffffb,%eax
    f26c:	09 d0                	or     %edx,%eax
    f26e:	41 88 45 01          	mov    %al,0x1(%r13)
    f272:	e8 59 9a 01 00       	callq  28cd0 <pango_script_for_unichar>
    f277:	83 f8 16             	cmp    $0x16,%eax
    f27a:	44 8b 54 24 38       	mov    0x38(%rsp),%r10d
    f27f:	0f 84 ab 04 00 00    	je     f730 <pango_default_break+0x7d0>
    f285:	44 89 e2             	mov    %r12d,%edx
    f288:	c1 ea 08             	shr    $0x8,%edx
    f28b:	83 fa 30             	cmp    $0x30,%edx
    f28e:	0f 84 84 04 00 00    	je     f718 <pango_default_break+0x7b8>
    f294:	81 fa ff 00 00 00    	cmp    $0xff,%edx
    f29a:	0f 84 e0 0b 00 00    	je     fe80 <pango_default_break+0xf20>
    f2a0:	83 fa 05             	cmp    $0x5,%edx
    f2a3:	0f 84 bf 0b 00 00    	je     fe68 <pango_default_break+0xf08>
    f2a9:	8b 74 24 04          	mov    0x4(%rsp),%esi
    f2ad:	83 fe 14             	cmp    $0x14,%esi
    f2b0:	0f 84 3a 0b 00 00    	je     fdf0 <pango_default_break+0xe90>
    f2b6:	83 fe 15             	cmp    $0x15,%esi
    f2b9:	75 15                	jne    f2d0 <pango_default_break+0x370>
    f2bb:	41 83 fc 3a          	cmp    $0x3a,%r12d
    f2bf:	74 0f                	je     f2d0 <pango_default_break+0x370>
    f2c1:	41 81 fc 13 fe 00 00 	cmp    $0xfe13,%r12d
    f2c8:	0f 85 b2 09 00 00    	jne    fc80 <pango_default_break+0xd20>
    f2ce:	66 90                	xchg   %ax,%ax
    f2d0:	83 fb 1c             	cmp    $0x1c,%ebx
    f2d3:	0f 87 f7 0a 00 00    	ja     fdd0 <pango_default_break+0xe70>
    f2d9:	48 8d 3d 14 df 01 00 	lea    0x1df14(%rip),%rdi        # 2d1f4 <pango_tab_align_get_type+0x19d4>
    f2e0:	89 da                	mov    %ebx,%edx
    f2e2:	48 63 14 97          	movslq (%rdi,%rdx,4),%rdx
    f2e6:	48 01 fa             	add    %rdi,%rdx
    f2e9:	ff e2                	jmpq   *%rdx
    f2eb:	0f 1f 44 00 00       	nopl   0x0(%rax,%rax,1)
    f2f0:	44 8b 54 24 0c       	mov    0xc(%rsp),%r10d
    f2f5:	41 f7 da             	neg    %r10d
    f2f8:	41 83 e2 05          	and    $0x5,%r10d
    f2fc:	e9 e5 fe ff ff       	jmpq   f1e6 <pango_default_break+0x286>
    f301:	0f 1f 80 00 00 00 00 	nopl   0x0(%rax)
    f308:	41 81 fc ff 08 00 00 	cmp    $0x8ff,%r12d
    f30f:	0f 86 eb 08 00 00    	jbe    fc00 <pango_default_break+0xca0>
    f315:	44 89 e0             	mov    %r12d,%eax
    f318:	80 e4 fd             	and    $0xfd,%ah
    f31b:	3d be 09 00 00       	cmp    $0x9be,%eax
    f320:	74 1e                	je     f340 <pango_default_break+0x3e0>
    f322:	3d d7 09 00 00       	cmp    $0x9d7,%eax
    f327:	74 17                	je     f340 <pango_default_break+0x3e0>
    f329:	41 81 fc 3e 0b 00 00 	cmp    $0xb3e,%r12d
    f330:	74 0e                	je     f340 <pango_default_break+0x3e0>
    f332:	41 81 fc 57 0b 00 00 	cmp    $0xb57,%r12d
    f339:	0f 85 61 10 00 00    	jne    103a0 <pango_default_break+0x1440>
    f33f:	90                   	nop
    f340:	41 ba 02 00 00 00    	mov    $0x2,%r10d
    f346:	e9 9b fe ff ff       	jmpq   f1e6 <pango_default_break+0x286>
    f34b:	0f 1f 44 00 00       	nopl   0x0(%rax,%rax,1)
    f350:	41 8d 84 24 f4 df ff 	lea    -0x200c(%r12),%eax
    f357:	ff 
    f358:	83 f8 02             	cmp    $0x2,%eax
    f35b:	45 19 d2             	sbb    %r10d,%r10d
    f35e:	41 f7 d2             	not    %r10d
    f361:	41 83 c2 02          	add    $0x2,%r10d
    f365:	e9 7c fe ff ff       	jmpq   f1e6 <pango_default_break+0x286>
    f36a:	66 0f 1f 44 00 00    	nopw   0x0(%rax,%rax,1)
    f370:	41 8d 84 24 62 00 ff 	lea    -0xff9e(%r12),%eax
    f377:	ff 
    f378:	83 f8 02             	cmp    $0x2,%eax
    f37b:	45 19 d2             	sbb    %r10d,%r10d
    f37e:	41 83 e2 02          	and    $0x2,%r10d
    f382:	e9 5f fe ff ff       	jmpq   f1e6 <pango_default_break+0x286>
    f387:	66 0f 1f 84 00 00 00 	nopw   0x0(%rax,%rax,1)
    f38e:	00 00 
    f390:	41 80 65 00 ef       	andb   $0xef,0x0(%r13)
    f395:	41 80 65 01 fb       	andb   $0xfb,0x1(%r13)
    f39a:	31 c0                	xor    %eax,%eax
    f39c:	44 89 54 24 38       	mov    %r10d,0x38(%rsp)
    f3a1:	c1 e0 04             	shl    $0x4,%eax
    f3a4:	89 c2                	mov    %eax,%edx
    f3a6:	41 0f b6 45 01       	movzbl 0x1(%r13),%eax
    f3ab:	83 e0 ef             	and    $0xffffffef,%eax
    f3ae:	09 d0                	or     %edx,%eax
    f3b0:	41 83 fe 09          	cmp    $0x9,%r14d
    f3b4:	41 88 45 01          	mov    %al,0x1(%r13)
    f3b8:	0f 84 12 03 00 00    	je     f6d0 <pango_default_break+0x770>
    f3be:	41 0f b6 45 00       	movzbl 0x0(%r13),%eax
    f3c3:	89 c2                	mov    %eax,%edx
    f3c5:	83 e2 fc             	and    $0xfffffffc,%edx
    f3c8:	a8 10                	test   $0x10,%al
    f3ca:	41 88 55 00          	mov    %dl,0x0(%r13)
    f3ce:	0f 85 9c 01 00 00    	jne    f570 <pango_default_break+0x610>
    f3d4:	44 89 f2             	mov    %r14d,%edx
    f3d7:	44 8b 74 24 04       	mov    0x4(%rsp),%r14d
    f3dc:	41 83 fe 09          	cmp    $0x9,%r14d
    f3e0:	c7 44 24 44 00 00 00 	movl   $0x0,0x44(%rsp)
    f3e7:	00 
    f3e8:	0f 84 0a 02 00 00    	je     f5f8 <pango_default_break+0x698>
    f3ee:	41 0f b6 45 00       	movzbl 0x0(%r13),%eax
    f3f3:	8b 54 24 3c          	mov    0x3c(%rsp),%edx
    f3f7:	83 e0 9f             	and    $0xffffff9f,%eax
    f3fa:	85 d2                	test   %edx,%edx
    f3fc:	41 88 45 00          	mov    %al,0x0(%r13)
    f400:	0f 84 32 02 00 00    	je     f638 <pango_default_break+0x6d8>
    f406:	8d 4b ff             	lea    -0x1(%rbx),%ecx
    f409:	83 f9 0e             	cmp    $0xe,%ecx
    f40c:	0f 87 ee 02 00 00    	ja     f700 <pango_default_break+0x7a0>
    f412:	b8 01 00 00 00       	mov    $0x1,%eax
    f417:	48 d3 e0             	shl    %cl,%rax
    f41a:	a9 01 0e 00 00       	test   $0xe01,%eax
    f41f:	75 2f                	jne    f450 <pango_default_break+0x4f0>
    f421:	f6 c4 70             	test   $0x70,%ah
    f424:	0f 85 06 08 00 00    	jne    fc30 <pango_default_break+0xcd0>
    f42a:	a9 f0 01 00 00       	test   $0x1f0,%eax
    f42f:	0f 84 cb 02 00 00    	je     f700 <pango_default_break+0x7a0>
    f435:	83 7c 24 3c 01       	cmpl   $0x1,0x3c(%rsp)
    f43a:	0f 84 d8 0f 00 00    	je     10418 <pango_default_break+0x14b8>
    f440:	44 89 64 24 68       	mov    %r12d,0x68(%rsp)
    f445:	c7 44 24 3c 02 00 00 	movl   $0x2,0x3c(%rsp)
    f44c:	00 
    f44d:	0f 1f 00             	nopl   (%rax)
    f450:	41 0f b6 45 00       	movzbl 0x0(%r13),%eax
    f455:	41 80 65 01 fc       	andb   $0xfc,0x1(%r13)
    f45a:	83 e0 7f             	and    $0x7f,%eax
    f45d:	83 7c 24 14 1c       	cmpl   $0x1c,0x14(%rsp)
    f462:	41 88 45 00          	mov    %al,0x0(%r13)
    f466:	77 26                	ja     f48e <pango_default_break+0x52e>
    f468:	0f b6 4c 24 14       	movzbl 0x14(%rsp),%ecx
    f46d:	ba 01 00 00 00       	mov    $0x1,%edx
    f472:	48 d3 e2             	shl    %cl,%rdx
    f475:	f7 c2 03 00 00 18    	test   $0x18000003,%edx
    f47b:	74 11                	je     f48e <pango_default_break+0x52e>
    f47d:	41 83 fc 0d          	cmp    $0xd,%r12d
    f481:	0f 84 c9 09 00 00    	je     fe50 <pango_default_break+0xef0>
    f487:	83 c8 80             	or     $0xffffff80,%eax
    f48a:	41 88 45 00          	mov    %al,0x0(%r13)
    f48e:	83 fb 1c             	cmp    $0x1c,%ebx
    f491:	77 21                	ja     f4b4 <pango_default_break+0x554>
    f493:	b8 01 00 00 00       	mov    $0x1,%eax
    f498:	89 d9                	mov    %ebx,%ecx
    f49a:	48 d3 e0             	shl    %cl,%rax
    f49d:	a9 03 00 00 18       	test   $0x18000003,%eax
    f4a2:	74 10                	je     f4b4 <pango_default_break+0x554>
    f4a4:	80 7c 24 53 00       	cmpb   $0x0,0x53(%rsp)
    f4a9:	0f 85 89 09 00 00    	jne    fe38 <pango_default_break+0xed8>
    f4af:	41 80 4d 00 80       	orb    $0x80,0x0(%r13)
    f4b4:	8b 44 24 30          	mov    0x30(%rsp),%eax
    f4b8:	83 f8 0a             	cmp    $0xa,%eax
    f4bb:	0f 87 4f 09 00 00    	ja     fe10 <pango_default_break+0xeb0>
    f4c1:	89 c2                	mov    %eax,%edx
    f4c3:	48 8d 05 9e dd 01 00 	lea    0x1dd9e(%rip),%rax        # 2d268 <pango_tab_align_get_type+0x1a48>
    f4ca:	48 63 14 90          	movslq (%rax,%rdx,4),%rdx
    f4ce:	48 01 d0             	add    %rdx,%rax
    f4d1:	ff e0                	jmpq   *%rax
    f4d3:	0f 1f 44 00 00       	nopl   0x0(%rax,%rax,1)
    f4d8:	83 fb 12             	cmp    $0x12,%ebx
    f4db:	c7 44 24 30 07 00 00 	movl   $0x7,0x30(%rsp)
    f4e2:	00 
    f4e3:	74 1b                	je     f500 <pango_default_break+0x5a0>
    f4e5:	83 fb 1d             	cmp    $0x1d,%ebx
    f4e8:	0f 85 22 07 00 00    	jne    fc10 <pango_default_break+0xcb0>
    f4ee:	8b 44 24 40          	mov    0x40(%rsp),%eax
    f4f2:	c7 44 24 30 08 00 00 	movl   $0x8,0x30(%rsp)
    f4f9:	00 
    f4fa:	89 44 24 6c          	mov    %eax,0x6c(%rsp)
    f4fe:	66 90                	xchg   %ax,%ax
    f500:	8d 43 f6             	lea    -0xa(%rbx),%eax
    f503:	83 f8 03             	cmp    $0x3,%eax
    f506:	8b 44 24 08          	mov    0x8(%rsp),%eax
    f50a:	41 0f 43 c4          	cmovae %r12d,%eax
    f50e:	89 44 24 08          	mov    %eax,0x8(%rsp)
    f512:	8b 44 24 34          	mov    0x34(%rsp),%eax
    f516:	83 44 24 40 01       	addl   $0x1,0x40(%rsp)
    f51b:	49 83 c5 04          	add    $0x4,%r13
    f51f:	85 c0                	test   %eax,%eax
    f521:	0f 85 79 0d 00 00    	jne    102a0 <pango_default_break+0x1340>
    f527:	44 8b 44 24 28       	mov    0x28(%rsp),%r8d
    f52c:	44 89 64 24 18       	mov    %r12d,0x18(%rsp)
    f531:	89 5c 24 14          	mov    %ebx,0x14(%rsp)
    f535:	44 89 7c 24 04       	mov    %r15d,0x4(%rsp)
    f53a:	89 6c 24 2c          	mov    %ebp,0x2c(%rsp)
    f53e:	44 8b 64 24 10       	mov    0x10(%rsp),%r12d
    f543:	45 85 c0             	test   %r8d,%r8d
    f546:	0f 84 4c fb ff ff    	je     f098 <pango_default_break+0x138>
    f54c:	c7 44 24 34 01 00 00 	movl   $0x1,0x34(%rsp)
    f553:	00 
    f554:	c7 44 24 28 01 00 00 	movl   $0x1,0x28(%rsp)
    f55b:	00 
    f55c:	41 bf 1c 00 00 00    	mov    $0x1c,%r15d
    f562:	c7 44 24 10 00 00 00 	movl   $0x0,0x10(%rsp)
    f569:	00 
    f56a:	e9 97 fb ff ff       	jmpq   f106 <pango_default_break+0x1a6>
    f56f:	90                   	nop
    f570:	41 83 ff 03          	cmp    $0x3,%r15d
    f574:	75 13                	jne    f589 <pango_default_break+0x629>
    f576:	8b 7c 24 04          	mov    0x4(%rsp),%edi
    f57a:	b8 13 00 00 00       	mov    $0x13,%eax
    f57f:	83 ff 09             	cmp    $0x9,%edi
    f582:	0f 45 c7             	cmovne %edi,%eax
    f585:	89 44 24 04          	mov    %eax,0x4(%rsp)
    f589:	41 0f b6 45 00       	movzbl 0x0(%r13),%eax
    f58e:	83 c8 04             	or     $0x4,%eax
    f591:	41 83 fe 1a          	cmp    $0x1a,%r14d
    f595:	41 88 45 00          	mov    %al,0x0(%r13)
    f599:	0f 8c 41 02 00 00    	jl     f7e0 <pango_default_break+0x880>
    f59f:	41 83 fe 1c          	cmp    $0x1c,%r14d
    f5a3:	0f 8e 27 02 00 00    	jle    f7d0 <pango_default_break+0x870>
    f5a9:	41 8d 56 e1          	lea    -0x1f(%r14),%edx
    f5ad:	83 fa 04             	cmp    $0x4,%edx
    f5b0:	0f 87 2a 02 00 00    	ja     f7e0 <pango_default_break+0x880>
    f5b6:	be 00 00 08 00       	mov    $0x80000,%esi
    f5bb:	ba 13 00 00 00       	mov    $0x13,%edx
    f5c0:	f7 c6 10 01 00 00    	test   $0x110,%esi
    f5c6:	75 5c                	jne    f624 <pango_default_break+0x6c4>
    f5c8:	83 e6 02             	and    $0x2,%esi
    f5cb:	0f 84 12 03 00 00    	je     f8e3 <pango_default_break+0x983>
    f5d1:	41 83 fc 0a          	cmp    $0xa,%r12d
    f5d5:	74 05                	je     f5dc <pango_default_break+0x67c>
    f5d7:	41 80 4d 00 03       	orb    $0x3,0x0(%r13)
    f5dc:	44 8b 74 24 04       	mov    0x4(%rsp),%r14d
    f5e1:	41 83 fe 09          	cmp    $0x9,%r14d
    f5e5:	c7 44 24 44 00 00 00 	movl   $0x0,0x44(%rsp)
    f5ec:	00 
    f5ed:	0f 85 fb fd ff ff    	jne    f3ee <pango_default_break+0x48e>
    f5f3:	0f 1f 44 00 00       	nopl   0x0(%rax,%rax,1)
    f5f8:	41 89 d6             	mov    %edx,%r14d
    f5fb:	8b 6c 24 2c          	mov    0x2c(%rsp),%ebp
    f5ff:	c7 44 24 44 01 00 00 	movl   $0x1,0x44(%rsp)
    f606:	00 
    f607:	e9 e2 fd ff ff       	jmpq   f3ee <pango_default_break+0x48e>
    f60c:	0f 1f 40 00          	nopl   0x0(%rax)
    f610:	8b 74 24 0c          	mov    0xc(%rsp),%esi
    f614:	85 f6                	test   %esi,%esi
    f616:	0f 85 3c 09 00 00    	jne    ff58 <pango_default_break+0xff8>
    f61c:	c7 44 24 04 13 00 00 	movl   $0x13,0x4(%rsp)
    f623:	00 
    f624:	41 80 4d 00 01       	orb    $0x1,0x0(%r13)
    f629:	44 8b 74 24 04       	mov    0x4(%rsp),%r14d
    f62e:	e9 a9 fd ff ff       	jmpq   f3dc <pango_default_break+0x47c>
    f633:	0f 1f 44 00 00       	nopl   0x0(%rax,%rax,1)
    f638:	83 fb 05             	cmp    $0x5,%ebx
    f63b:	0f 8c 0f fe ff ff    	jl     f450 <pango_default_break+0x4f0>
    f641:	83 fb 09             	cmp    $0x9,%ebx
    f644:	0f 8e d6 01 00 00    	jle    f820 <pango_default_break+0x8c0>
    f64a:	8d 53 f3             	lea    -0xd(%rbx),%edx
    f64d:	83 fa 02             	cmp    $0x2,%edx
    f650:	0f 87 fa fd ff ff    	ja     f450 <pango_default_break+0x4f0>
    f656:	83 c8 20             	or     $0x20,%eax
    f659:	44 89 64 24 68       	mov    %r12d,0x68(%rsp)
    f65e:	c7 44 24 3c 02 00 00 	movl   $0x2,0x3c(%rsp)
    f665:	00 
    f666:	41 88 45 00          	mov    %al,0x0(%r13)
    f66a:	e9 e1 fd ff ff       	jmpq   f450 <pango_default_break+0x4f0>
    f66f:	90                   	nop
    f670:	c7 44 24 28 01 00 00 	movl   $0x1,0x28(%rsp)
    f677:	00 
    f678:	c7 44 24 10 29 20 00 	movl   $0x2029,0x10(%rsp)
    f67f:	00 
    f680:	e9 61 fa ff ff       	jmpq   f0e6 <pango_default_break+0x186>
    f685:	0f 1f 00             	nopl   (%rax)
    f688:	8b 44 24 08          	mov    0x8(%rsp),%eax
    f68c:	31 d2                	xor    %edx,%edx
    f68e:	2d 70 03 00 00       	sub    $0x370,%eax
    f693:	3d bf 01 00 00       	cmp    $0x1bf,%eax
    f698:	0f 86 bb fb ff ff    	jbe    f259 <pango_default_break+0x2f9>
    f69e:	8b 44 24 08          	mov    0x8(%rsp),%eax
    f6a2:	2d 40 30 00 00       	sub    $0x3040,%eax
    f6a7:	3d bf 00 00 00       	cmp    $0xbf,%eax
    f6ac:	0f 86 a7 fb ff ff    	jbe    f259 <pango_default_break+0x2f9>
    f6b2:	8b 44 24 08          	mov    0x8(%rsp),%eax
    f6b6:	2d 00 ac 00 00       	sub    $0xac00,%eax
    f6bb:	3d a3 2b 00 00       	cmp    $0x2ba3,%eax
    f6c0:	0f 97 c2             	seta   %dl
    f6c3:	e9 91 fb ff ff       	jmpq   f259 <pango_default_break+0x2f9>
    f6c8:	0f 1f 84 00 00 00 00 	nopl   0x0(%rax,%rax,1)
    f6cf:	00 
    f6d0:	4c 8d 05 91 d9 01 00 	lea    0x1d991(%rip),%r8        # 2d068 <pango_tab_align_get_type+0x1848>
    f6d7:	48 8d 0d 22 dd 01 00 	lea    0x1dd22(%rip),%rcx        # 2d400 <pango_tab_align_get_type+0x1be0>
    f6de:	48 8d 35 53 d9 01 00 	lea    0x1d953(%rip),%rsi        # 2d038 <pango_tab_align_get_type+0x1818>
    f6e5:	48 8d 3d 6a d8 01 00 	lea    0x1d86a(%rip),%rdi        # 2cf56 <pango_tab_align_get_type+0x1736>
    f6ec:	ba 96 03 00 00       	mov    $0x396,%edx
    f6f1:	e8 ba df ff ff       	callq  d6b0 <g_assertion_message_expr@plt>
    f6f6:	66 2e 0f 1f 84 00 00 	nopw   %cs:0x0(%rax,%rax,1)
    f6fd:	00 00 00 
    f700:	41 80 4d 00 40       	orb    $0x40,0x0(%r13)
    f705:	c7 44 24 3c 00 00 00 	movl   $0x0,0x3c(%rsp)
    f70c:	00 
    f70d:	e9 3e fd ff ff       	jmpq   f450 <pango_default_break+0x4f0>
    f712:	66 0f 1f 44 00 00    	nopw   0x0(%rax,%rax,1)
    f718:	41 8d 94 24 cf cf ff 	lea    -0x3031(%r12),%edx
    f71f:	ff 
    f720:	83 fa 04             	cmp    $0x4,%edx
    f723:	0f 87 df 07 00 00    	ja     ff08 <pango_default_break+0xfa8>
    f729:	0f 1f 80 00 00 00 00 	nopl   0x0(%rax)
    f730:	41 bb 03 00 00 00    	mov    $0x3,%r11d
    f736:	41 83 fc 41          	cmp    $0x41,%r12d
    f73a:	0f 84 00 01 00 00    	je     f840 <pango_default_break+0x8e0>
    f740:	83 7c 24 1c 01       	cmpl   $0x1,0x1c(%rsp)
    f745:	0f 84 43 01 00 00    	je     f88e <pango_default_break+0x92e>
    f74b:	41 83 fb 01          	cmp    $0x1,%r11d
    f74f:	0f 84 63 01 00 00    	je     f8b8 <pango_default_break+0x958>
    f755:	41 83 fb 02          	cmp    $0x2,%r11d
    f759:	0f 84 81 06 00 00    	je     fde0 <pango_default_break+0xe80>
    f75f:	8b 44 24 1c          	mov    0x1c(%rsp),%eax
    f763:	83 e8 08             	sub    $0x8,%eax
    f766:	83 f8 01             	cmp    $0x1,%eax
    f769:	76 45                	jbe    f7b0 <pango_default_break+0x850>
    f76b:	83 7c 24 1c 04       	cmpl   $0x4,0x1c(%rsp)
    f770:	74 3e                	je     f7b0 <pango_default_break+0x850>
    f772:	83 7c 24 1c 09       	cmpl   $0x9,0x1c(%rsp)
    f777:	0f 85 13 04 00 00    	jne    fb90 <pango_default_break+0xc30>
    f77d:	41 83 fb 09          	cmp    $0x9,%r11d
    f781:	0f 85 69 07 00 00    	jne    fef0 <pango_default_break+0xf90>
    f787:	31 c0                	xor    %eax,%eax
    f789:	8b 7c 24 40          	mov    0x40(%rsp),%edi
    f78d:	44 89 54 24 38       	mov    %r10d,0x38(%rsp)
    f792:	89 7c 24 5c          	mov    %edi,0x5c(%rsp)
    f796:	8b 7c 24 1c          	mov    0x1c(%rsp),%edi
    f79a:	44 89 5c 24 1c       	mov    %r11d,0x1c(%rsp)
    f79f:	89 7c 24 58          	mov    %edi,0x58(%rsp)
    f7a3:	e9 f9 fb ff ff       	jmpq   f3a1 <pango_default_break+0x441>
    f7a8:	0f 1f 84 00 00 00 00 	nopl   0x0(%rax,%rax,1)
    f7af:	00 
    f7b0:	41 8d 43 f8          	lea    -0x8(%r11),%eax
    f7b4:	83 f8 01             	cmp    $0x1,%eax
    f7b7:	76 ce                	jbe    f787 <pango_default_break+0x827>
    f7b9:	41 83 fb 04          	cmp    $0x4,%r11d
    f7bd:	74 c8                	je     f787 <pango_default_break+0x827>
    f7bf:	83 7c 24 1c 09       	cmpl   $0x9,0x1c(%rsp)
    f7c4:	74 b7                	je     f77d <pango_default_break+0x81d>
    f7c6:	e9 c5 03 00 00       	jmpq   fb90 <pango_default_break+0xc30>
    f7cb:	0f 1f 44 00 00       	nopl   0x0(%rax,%rax,1)
    f7d0:	be 00 00 80 00       	mov    $0x800000,%esi
    f7d5:	ba 17 00 00 00       	mov    $0x17,%edx
    f7da:	e9 e1 fd ff ff       	jmpq   f5c0 <pango_default_break+0x660>
    f7df:	90                   	nop
    f7e0:	41 83 fe 1d          	cmp    $0x1d,%r14d
    f7e4:	0f 86 ab 0d 00 00    	jbe    10595 <pango_default_break+0x1635>
    f7ea:	41 83 fe 23          	cmp    $0x23,%r14d
    f7ee:	0f 86 ec 00 00 00    	jbe    f8e0 <pango_default_break+0x980>
    f7f4:	4c 8d 05 9d d8 01 00 	lea    0x1d89d(%rip),%r8        # 2d098 <pango_tab_align_get_type+0x1878>
    f7fb:	48 8d 0d fe db 01 00 	lea    0x1dbfe(%rip),%rcx        # 2d400 <pango_tab_align_get_type+0x1be0>
    f802:	48 8d 35 2f d8 01 00 	lea    0x1d82f(%rip),%rsi        # 2d038 <pango_tab_align_get_type+0x1818>
    f809:	48 8d 3d 46 d7 01 00 	lea    0x1d746(%rip),%rdi        # 2cf56 <pango_tab_align_get_type+0x1736>
    f810:	ba ec 03 00 00       	mov    $0x3ec,%edx
    f815:	e8 96 de ff ff       	callq  d6b0 <g_assertion_message_expr@plt>
    f81a:	66 0f 1f 44 00 00    	nopw   0x0(%rax,%rax,1)
    f820:	83 c8 20             	or     $0x20,%eax
    f823:	44 89 64 24 68       	mov    %r12d,0x68(%rsp)
    f828:	c7 44 24 3c 01 00 00 	movl   $0x1,0x3c(%rsp)
    f82f:	00 
    f830:	41 88 45 00          	mov    %al,0x0(%r13)
    f834:	e9 17 fc ff ff       	jmpq   f450 <pango_default_break+0x4f0>
    f839:	0f 1f 80 00 00 00 00 	nopl   0x0(%rax)
    f840:	81 7c 24 18 31 30 00 	cmpl   $0x3031,0x18(%rsp)
    f847:	00 
    f848:	0f 85 f2 fe ff ff    	jne    f740 <pango_default_break+0x7e0>
    f84e:	8b 4c 24 1c          	mov    0x1c(%rsp),%ecx
    f852:	48 8d 15 03 d7 01 00 	lea    0x1d703(%rip),%rdx        # 2cf5c <pango_tab_align_get_type+0x173c>
    f859:	48 8d 3d f6 d6 01 00 	lea    0x1d6f6(%rip),%rdi        # 2cf56 <pango_tab_align_get_type+0x1736>
    f860:	45 89 d8             	mov    %r11d,%r8d
    f863:	31 c0                	xor    %eax,%eax
    f865:	be 80 00 00 00       	mov    $0x80,%esi
    f86a:	44 89 54 24 7c       	mov    %r10d,0x7c(%rsp)
    f86f:	44 89 5c 24 38       	mov    %r11d,0x38(%rsp)
    f874:	e8 f7 e1 ff ff       	callq  da70 <g_log@plt>
    f879:	83 7c 24 1c 01       	cmpl   $0x1,0x1c(%rsp)
    f87e:	44 8b 54 24 7c       	mov    0x7c(%rsp),%r10d
    f883:	44 8b 5c 24 38       	mov    0x38(%rsp),%r11d
    f888:	0f 85 bd fe ff ff    	jne    f74b <pango_default_break+0x7eb>
    f88e:	8b 44 24 5c          	mov    0x5c(%rsp),%eax
    f892:	83 c0 01             	add    $0x1,%eax
    f895:	3b 44 24 40          	cmp    0x40(%rsp),%eax
    f899:	0f 85 ac fe ff ff    	jne    f74b <pango_default_break+0x7eb>
    f89f:	41 83 fb 02          	cmp    $0x2,%r11d
    f8a3:	0f 85 c8 0c 00 00    	jne    10571 <pango_default_break+0x1611>
    f8a9:	b8 01 00 00 00       	mov    $0x1,%eax
    f8ae:	e9 2f 05 00 00       	jmpq   fde2 <pango_default_break+0xe82>
    f8b3:	0f 1f 44 00 00       	nopl   0x0(%rax,%rax,1)
    f8b8:	8b 44 24 40          	mov    0x40(%rsp),%eax
    f8bc:	44 89 54 24 38       	mov    %r10d,0x38(%rsp)
    f8c1:	89 44 24 5c          	mov    %eax,0x5c(%rsp)
    f8c5:	8b 44 24 1c          	mov    0x1c(%rsp),%eax
    f8c9:	c7 44 24 1c 01 00 00 	movl   $0x1,0x1c(%rsp)
    f8d0:	00 
    f8d1:	89 44 24 58          	mov    %eax,0x58(%rsp)
    f8d5:	b8 01 00 00 00       	mov    $0x1,%eax
    f8da:	e9 c2 fa ff ff       	jmpq   f3a1 <pango_default_break+0x441>
    f8df:	90                   	nop
    f8e0:	44 89 f2             	mov    %r14d,%edx
    f8e3:	48 8d 35 76 db 01 00 	lea    0x1db76(%rip),%rsi        # 2d460 <pango_tab_align_get_type+0x1c40>
    f8ea:	89 d1                	mov    %edx,%ecx
    f8ec:	48 63 0c 8e          	movslq (%rsi,%rcx,4),%rcx
    f8f0:	83 f9 14             	cmp    $0x14,%ecx
    f8f3:	0f 8f fb fe ff ff    	jg     f7f4 <pango_default_break+0x894>
    f8f9:	83 7c 24 04 23       	cmpl   $0x23,0x4(%rsp)
    f8fe:	44 8b 44 24 04       	mov    0x4(%rsp),%r8d
    f903:	0f 87 27 09 00 00    	ja     10230 <pango_default_break+0x12d0>
    f909:	48 8d 3d 84 d9 01 00 	lea    0x1d984(%rip),%rdi        # 2d294 <pango_tab_align_get_type+0x1a74>
    f910:	4e 63 14 87          	movslq (%rdi,%r8,4),%r10
    f914:	4c 01 d7             	add    %r10,%rdi
    f917:	ff e7                	jmpq   *%rdi
    f919:	0f 1f 80 00 00 00 00 	nopl   0x0(%rax)
    f920:	80 3b 00             	cmpb   $0x0,(%rbx)
    f923:	0f 84 a3 f6 ff ff    	je     efcc <pango_default_break+0x6c>
    f929:	48 89 df             	mov    %rbx,%rdi
    f92c:	e8 5f de ff ff       	callq  d790 <g_utf8_get_char@plt>
    f931:	c7 44 24 28 00 00 00 	movl   $0x0,0x28(%rsp)
    f938:	00 
    f939:	41 89 c4             	mov    %eax,%r12d
    f93c:	e9 99 f6 ff ff       	jmpq   efda <pango_default_break+0x7a>
    f941:	0f 1f 80 00 00 00 00 	nopl   0x0(%rax)
    f948:	83 fb 05             	cmp    $0x5,%ebx
    f94b:	0f 84 3f 09 00 00    	je     10290 <pango_default_break+0x1330>
    f951:	83 fb 16             	cmp    $0x16,%ebx
    f954:	0f 84 a6 fb ff ff    	je     f500 <pango_default_break+0x5a0>
    f95a:	83 7c 24 6c ff       	cmpl   $0xffffffff,0x6c(%rsp)
    f95f:	0f 84 79 0b 00 00    	je     104de <pango_default_break+0x157e>
    f965:	83 7c 24 78 ff       	cmpl   $0xffffffff,0x78(%rsp)
    f96a:	0f 84 48 0b 00 00    	je     104b8 <pango_default_break+0x1558>
    f970:	48 63 44 24 78       	movslq 0x78(%rsp),%rax
    f975:	48 8b 7c 24 60       	mov    0x60(%rsp),%rdi
    f97a:	80 0c 87 80          	orb    $0x80,(%rdi,%rax,4)
    f97e:	48 63 44 24 6c       	movslq 0x6c(%rsp),%rax
    f983:	80 4c 87 01 02       	orb    $0x2,0x1(%rdi,%rax,4)
    f988:	83 fb 1d             	cmp    $0x1d,%ebx
    f98b:	0f 86 cf 01 00 00    	jbe    fb60 <pango_default_break+0xc00>
    f991:	0f 1f 80 00 00 00 00 	nopl   0x0(%rax)
    f998:	b8 ff ff ff ff       	mov    $0xffffffff,%eax
    f99d:	41 80 4d 01 01       	orb    $0x1,0x1(%r13)
    f9a2:	89 44 24 78          	mov    %eax,0x78(%rsp)
    f9a6:	89 44 24 6c          	mov    %eax,0x6c(%rsp)
    f9aa:	c7 44 24 30 01 00 00 	movl   $0x1,0x30(%rsp)
    f9b1:	00 
    f9b2:	e9 49 fb ff ff       	jmpq   f500 <pango_default_break+0x5a0>
    f9b7:	66 0f 1f 84 00 00 00 	nopw   0x0(%rax,%rax,1)
    f9be:	00 00 
    f9c0:	83 fb 16             	cmp    $0x16,%ebx
    f9c3:	0f 84 67 09 00 00    	je     10330 <pango_default_break+0x13d0>
    f9c9:	83 fb 1d             	cmp    $0x1d,%ebx
    f9cc:	0f 84 be 05 00 00    	je     ff90 <pango_default_break+0x1030>
    f9d2:	83 fb 05             	cmp    $0x5,%ebx
    f9d5:	0f 84 6d 09 00 00    	je     10348 <pango_default_break+0x13e8>
    f9db:	83 7c 24 6c ff       	cmpl   $0xffffffff,0x6c(%rsp)
    f9e0:	0f 84 1e 0b 00 00    	je     10504 <pango_default_break+0x15a4>
    f9e6:	41 80 4d 00 80       	orb    $0x80,0x0(%r13)
    f9eb:	e9 58 01 00 00       	jmpq   fb48 <pango_default_break+0xbe8>
    f9f0:	41 83 fc 0a          	cmp    $0xa,%r12d
    f9f4:	0f 84 e6 04 00 00    	je     fee0 <pango_default_break+0xf80>
    f9fa:	41 80 4d 00 80       	orb    $0x80,0x0(%r13)
    f9ff:	83 fb 1d             	cmp    $0x1d,%ebx
    fa02:	76 44                	jbe    fa48 <pango_default_break+0xae8>
    fa04:	41 80 4d 01 01       	orb    $0x1,0x1(%r13)
    fa09:	c7 44 24 30 01 00 00 	movl   $0x1,0x30(%rsp)
    fa10:	00 
    fa11:	e9 ea fa ff ff       	jmpq   f500 <pango_default_break+0x5a0>
    fa16:	66 2e 0f 1f 84 00 00 	nopw   %cs:0x0(%rax,%rax,1)
    fa1d:	00 00 00 
    fa20:	83 fb 1b             	cmp    $0x1b,%ebx
    fa23:	7c 12                	jl     fa37 <pango_default_break+0xad7>
    fa25:	83 fb 1c             	cmp    $0x1c,%ebx
    fa28:	0f 8e 12 05 00 00    	jle    ff40 <pango_default_break+0xfe0>
    fa2e:	83 fb 1d             	cmp    $0x1d,%ebx
    fa31:	0f 84 c9 fa ff ff    	je     f500 <pango_default_break+0x5a0>
    fa37:	41 80 4d 00 80       	orb    $0x80,0x0(%r13)
    fa3c:	83 fb 1d             	cmp    $0x1d,%ebx
    fa3f:	77 c3                	ja     fa04 <pango_default_break+0xaa4>
    fa41:	0f 1f 80 00 00 00 00 	nopl   0x0(%rax)
    fa48:	b8 01 00 00 00       	mov    $0x1,%eax
    fa4d:	89 d9                	mov    %ebx,%ecx
    fa4f:	c7 44 24 30 00 00 00 	movl   $0x0,0x30(%rsp)
    fa56:	00 
    fa57:	48 d3 e0             	shl    %cl,%rax
    fa5a:	a9 03 00 00 38       	test   $0x38000003,%eax
    fa5f:	0f 85 9b fa ff ff    	jne    f500 <pango_default_break+0x5a0>
    fa65:	41 80 4d 01 01       	orb    $0x1,0x1(%r13)
    fa6a:	c7 44 24 30 01 00 00 	movl   $0x1,0x30(%rsp)
    fa71:	00 
    fa72:	e9 89 fa ff ff       	jmpq   f500 <pango_default_break+0x5a0>
    fa77:	66 0f 1f 84 00 00 00 	nopw   0x0(%rax,%rax,1)
    fa7e:	00 00 
    fa80:	8d 43 ee             	lea    -0x12(%rbx),%eax
    fa83:	83 f8 0b             	cmp    $0xb,%eax
    fa86:	0f 87 a4 06 00 00    	ja     10130 <pango_default_break+0x11d0>
    fa8c:	48 8d 15 91 d8 01 00 	lea    0x1d891(%rip),%rdx        # 2d324 <pango_tab_align_get_type+0x1b04>
    fa93:	48 63 04 82          	movslq (%rdx,%rax,4),%rax
    fa97:	48 01 c2             	add    %rax,%rdx
    fa9a:	ff e2                	jmpq   *%rdx
    fa9c:	0f 1f 40 00          	nopl   0x0(%rax)
    faa0:	8d 43 ee             	lea    -0x12(%rbx),%eax
    faa3:	83 f8 0b             	cmp    $0xb,%eax
    faa6:	0f 87 84 06 00 00    	ja     10130 <pango_default_break+0x11d0>
    faac:	48 8d 15 a1 d8 01 00 	lea    0x1d8a1(%rip),%rdx        # 2d354 <pango_tab_align_get_type+0x1b34>
    fab3:	48 63 04 82          	movslq (%rdx,%rax,4),%rax
    fab7:	48 01 c2             	add    %rax,%rdx
    faba:	ff e2                	jmpq   *%rdx
    fabc:	0f 1f 40 00          	nopl   0x0(%rax)
    fac0:	41 80 7d 00 00       	cmpb   $0x0,0x0(%r13)
    fac5:	0f 88 e5 03 00 00    	js     feb0 <pango_default_break+0xf50>
    facb:	41 83 fc 2e          	cmp    $0x2e,%r12d
    facf:	0f 84 8b 08 00 00    	je     10360 <pango_default_break+0x1400>
    fad5:	41 83 fc 21          	cmp    $0x21,%r12d
    fad9:	74 0a                	je     fae5 <pango_default_break+0xb85>
    fadb:	41 83 fc 3f          	cmp    $0x3f,%r12d
    fadf:	0f 85 1b fa ff ff    	jne    f500 <pango_default_break+0x5a0>
    fae5:	c7 44 24 30 02 00 00 	movl   $0x2,0x30(%rsp)
    faec:	00 
    faed:	e9 0e fa ff ff       	jmpq   f500 <pango_default_break+0x5a0>
    faf2:	66 0f 1f 44 00 00    	nopw   0x0(%rax,%rax,1)
    faf8:	83 fb 1d             	cmp    $0x1d,%ebx
    fafb:	0f 87 03 ff ff ff    	ja     fa04 <pango_default_break+0xaa4>
    fb01:	b8 01 00 00 00       	mov    $0x1,%eax
    fb06:	89 d9                	mov    %ebx,%ecx
    fb08:	48 d3 e0             	shl    %cl,%rax
    fb0b:	a9 03 00 00 38       	test   $0x38000003,%eax
    fb10:	0f 85 ea f9 ff ff    	jne    f500 <pango_default_break+0x5a0>
    fb16:	e9 e9 fe ff ff       	jmpq   fa04 <pango_default_break+0xaa4>
    fb1b:	0f 1f 44 00 00       	nopl   0x0(%rax,%rax,1)
    fb20:	41 83 fc 0a          	cmp    $0xa,%r12d
    fb24:	75 07                	jne    fb2d <pango_default_break+0xbcd>
    fb26:	83 7c 24 18 0d       	cmpl   $0xd,0x18(%rsp)
    fb2b:	74 05                	je     fb32 <pango_default_break+0xbd2>
    fb2d:	41 80 4d 00 80       	orb    $0x80,0x0(%r13)
    fb32:	83 7c 24 6c ff       	cmpl   $0xffffffff,0x6c(%rsp)
    fb37:	0f 84 c3 07 00 00    	je     10300 <pango_default_break+0x13a0>
    fb3d:	83 7c 24 78 ff       	cmpl   $0xffffffff,0x78(%rsp)
    fb42:	0f 84 88 07 00 00    	je     102d0 <pango_default_break+0x1370>
    fb48:	48 63 44 24 6c       	movslq 0x6c(%rsp),%rax
    fb4d:	48 8b 7c 24 60       	mov    0x60(%rsp),%rdi
    fb52:	80 4c 87 01 02       	orb    $0x2,0x1(%rdi,%rax,4)
    fb57:	83 fb 1d             	cmp    $0x1d,%ebx
    fb5a:	0f 87 38 fe ff ff    	ja     f998 <pango_default_break+0xa38>
    fb60:	b8 01 00 00 00       	mov    $0x1,%eax
    fb65:	89 d9                	mov    %ebx,%ecx
    fb67:	48 d3 e0             	shl    %cl,%rax
    fb6a:	a9 03 00 00 38       	test   $0x38000003,%eax
    fb6f:	0f 84 23 fe ff ff    	je     f998 <pango_default_break+0xa38>
    fb75:	b8 ff ff ff ff       	mov    $0xffffffff,%eax
    fb7a:	c7 44 24 30 00 00 00 	movl   $0x0,0x30(%rsp)
    fb81:	00 
    fb82:	89 44 24 78          	mov    %eax,0x78(%rsp)
    fb86:	89 44 24 6c          	mov    %eax,0x6c(%rsp)
    fb8a:	e9 71 f9 ff ff       	jmpq   f500 <pango_default_break+0x5a0>
    fb8f:	90                   	nop
    fb90:	83 7c 24 1c 03       	cmpl   $0x3,0x1c(%rsp)
    fb95:	0f 84 e2 fb ff ff    	je     f77d <pango_default_break+0x81d>
    fb9b:	83 7c 24 58 04       	cmpl   $0x4,0x58(%rsp)
    fba0:	75 0a                	jne    fbac <pango_default_break+0xc4c>
    fba2:	41 83 fb 04          	cmp    $0x4,%r11d
    fba6:	0f 84 94 00 00 00    	je     fc40 <pango_default_break+0xce0>
    fbac:	83 7c 24 58 08       	cmpl   $0x8,0x58(%rsp)
    fbb1:	0f 85 b9 00 00 00    	jne    fc70 <pango_default_break+0xd10>
    fbb7:	41 83 fb 08          	cmp    $0x8,%r11d
    fbbb:	0f 85 af 00 00 00    	jne    fc70 <pango_default_break+0xd10>
    fbc1:	8b 54 24 1c          	mov    0x1c(%rsp),%edx
    fbc5:	b8 01 00 00 00       	mov    $0x1,%eax
    fbca:	83 e2 fd             	and    $0xfffffffd,%edx
    fbcd:	83 fa 05             	cmp    $0x5,%edx
    fbd0:	0f 85 b3 fb ff ff    	jne    f789 <pango_default_break+0x829>
    fbd6:	48 63 44 24 5c       	movslq 0x5c(%rsp),%rax
    fbdb:	48 8b 7c 24 60       	mov    0x60(%rsp),%rdi
    fbe0:	80 64 87 01 ef       	andb   $0xef,0x1(%rdi,%rax,4)
    fbe5:	31 c0                	xor    %eax,%eax
    fbe7:	e9 9d fb ff ff       	jmpq   f789 <pango_default_break+0x829>
    fbec:	0f 1f 40 00          	nopl   0x0(%rax)
    fbf0:	45 31 d2             	xor    %r10d,%r10d
    fbf3:	e9 ee f5 ff ff       	jmpq   f1e6 <pango_default_break+0x286>
    fbf8:	0f 1f 84 00 00 00 00 	nopl   0x0(%rax,%rax,1)
    fbff:	00 
    fc00:	41 ba 04 00 00 00    	mov    $0x4,%r10d
    fc06:	e9 db f5 ff ff       	jmpq   f1e6 <pango_default_break+0x286>
    fc0b:	0f 1f 44 00 00       	nopl   0x0(%rax,%rax,1)
    fc10:	41 80 7d 00 00       	cmpb   $0x0,0x0(%r13)
    fc15:	c7 44 24 30 01 00 00 	movl   $0x1,0x30(%rsp)
    fc1c:	00 
    fc1d:	0f 89 dd f8 ff ff    	jns    f500 <pango_default_break+0x5a0>
    fc23:	41 80 4d 01 02       	orb    $0x2,0x1(%r13)
    fc28:	e9 d2 fd ff ff       	jmpq   f9ff <pango_default_break+0xa9f>
    fc2d:	0f 1f 00             	nopl   (%rax)
    fc30:	44 89 64 24 68       	mov    %r12d,0x68(%rsp)
    fc35:	e9 16 f8 ff ff       	jmpq   f450 <pango_default_break+0x4f0>
    fc3a:	66 0f 1f 44 00 00    	nopw   0x0(%rax,%rax,1)
    fc40:	8b 44 24 1c          	mov    0x1c(%rsp),%eax
    fc44:	83 e8 05             	sub    $0x5,%eax
    fc47:	83 f8 01             	cmp    $0x1,%eax
    fc4a:	0f 87 5c ff ff ff    	ja     fbac <pango_default_break+0xc4c>
    fc50:	48 63 44 24 5c       	movslq 0x5c(%rsp),%rax
    fc55:	48 8b 4c 24 60       	mov    0x60(%rsp),%rcx
    fc5a:	80 64 81 01 ef       	andb   $0xef,0x1(%rcx,%rax,4)
    fc5f:	31 c0                	xor    %eax,%eax
    fc61:	e9 23 fb ff ff       	jmpq   f789 <pango_default_break+0x829>
    fc66:	66 2e 0f 1f 84 00 00 	nopw   %cs:0x0(%rax,%rax,1)
    fc6d:	00 00 00 
    fc70:	b8 01 00 00 00       	mov    $0x1,%eax
    fc75:	e9 0f fb ff ff       	jmpq   f789 <pango_default_break+0x829>
    fc7a:	66 0f 1f 44 00 00    	nopw   0x0(%rax,%rax,1)
    fc80:	41 83 fc 2e          	cmp    $0x2e,%r12d
    fc84:	41 bb 07 00 00 00    	mov    $0x7,%r11d
    fc8a:	0f 85 a6 fa ff ff    	jne    f736 <pango_default_break+0x7d6>
    fc90:	e9 3b f6 ff ff       	jmpq   f2d0 <pango_default_break+0x370>
    fc95:	0f 1f 00             	nopl   (%rax)
    fc98:	83 e0 fb             	and    $0xfffffffb,%eax
    fc9b:	44 8b 74 24 04       	mov    0x4(%rsp),%r14d
    fca0:	41 88 45 00          	mov    %al,0x0(%r13)
    fca4:	e9 33 f7 ff ff       	jmpq   f3dc <pango_default_break+0x47c>
    fca9:	0f 1f 80 00 00 00 00 	nopl   0x0(%rax)
    fcb0:	48 8d 35 c9 a7 23 00 	lea    0x23a7c9(%rip),%rsi        # 24a480 <pango_tab_align_get_type+0x21ec60>
    fcb7:	48 8b 0c ce          	mov    (%rsi,%rcx,8),%rcx
    fcbb:	8b 49 2c             	mov    0x2c(%rcx),%ecx
    fcbe:	83 f9 01             	cmp    $0x1,%ecx
    fcc1:	74 d5                	je     fc98 <pango_default_break+0xd38>
    fcc3:	0f 82 13 f9 ff ff    	jb     f5dc <pango_default_break+0x67c>
    fcc9:	83 f9 02             	cmp    $0x2,%ecx
    fccc:	0f 84 ae 05 00 00    	je     10280 <pango_default_break+0x1320>
    fcd2:	83 f9 03             	cmp    $0x3,%ecx
    fcd5:	0f 84 49 f9 ff ff    	je     f624 <pango_default_break+0x6c4>
    fcdb:	48 8d 0d 1e d7 01 00 	lea    0x1d71e(%rip),%rcx        # 2d400 <pango_tab_align_get_type+0x1be0>
    fce2:	48 8d 35 4f d3 01 00 	lea    0x1d34f(%rip),%rsi        # 2d038 <pango_tab_align_get_type+0x1818>
    fce9:	48 8d 3d 66 d2 01 00 	lea    0x1d266(%rip),%rdi        # 2cf56 <pango_tab_align_get_type+0x1736>
    fcf0:	45 31 c0             	xor    %r8d,%r8d
    fcf3:	ba 4e 04 00 00       	mov    $0x44e,%edx
    fcf8:	e8 b3 d9 ff ff       	callq  d6b0 <g_assertion_message_expr@plt>
    fcfd:	0f 1f 00             	nopl   (%rax)
    fd00:	41 8d 94 24 fa cf ff 	lea    -0x3006(%r12),%edx
    fd07:	ff 
    fd08:	83 fa 01             	cmp    $0x1,%edx
    fd0b:	0f 86 bf 00 00 00    	jbe    fdd0 <pango_default_break+0xe70>
    fd11:	41 8d 94 24 df cf ff 	lea    -0x3021(%r12),%edx
    fd18:	ff 
    fd19:	83 fa 08             	cmp    $0x8,%edx
    fd1c:	0f 86 ae 00 00 00    	jbe    fdd0 <pango_default_break+0xe70>
    fd22:	41 8d 94 24 c8 cf ff 	lea    -0x3038(%r12),%edx
    fd29:	ff 
    fd2a:	45 31 db             	xor    %r11d,%r11d
    fd2d:	83 fa 02             	cmp    $0x2,%edx
    fd30:	0f 86 00 fa ff ff    	jbe    f736 <pango_default_break+0x7d6>
    fd36:	41 8d 94 24 00 cc ff 	lea    -0x3400(%r12),%edx
    fd3d:	ff 
    fd3e:	81 fa b5 19 00 00    	cmp    $0x19b5,%edx
    fd44:	0f 86 ec f9 ff ff    	jbe    f736 <pango_default_break+0x7d6>
    fd4a:	41 8d 94 24 00 b2 ff 	lea    -0x4e00(%r12),%edx
    fd51:	ff 
    fd52:	81 fa c3 51 00 00    	cmp    $0x51c3,%edx
    fd58:	0f 86 d8 f9 ff ff    	jbe    f736 <pango_default_break+0x7d6>
    fd5e:	41 8d 94 24 00 07 ff 	lea    -0xf900(%r12),%edx
    fd65:	ff 
    fd66:	81 fa 2d 01 00 00    	cmp    $0x12d,%edx
    fd6c:	0f 86 c4 f9 ff ff    	jbe    f736 <pango_default_break+0x7d6>
    fd72:	41 8d 94 24 d0 05 ff 	lea    -0xfa30(%r12),%edx
    fd79:	ff 
    fd7a:	83 fa 3a             	cmp    $0x3a,%edx
    fd7d:	0f 86 b3 f9 ff ff    	jbe    f736 <pango_default_break+0x7d6>
    fd83:	41 8d 94 24 90 05 ff 	lea    -0xfa70(%r12),%edx
    fd8a:	ff 
    fd8b:	83 fa 69             	cmp    $0x69,%edx
    fd8e:	0f 86 a2 f9 ff ff    	jbe    f736 <pango_default_break+0x7d6>
    fd94:	41 8d 94 24 00 00 fe 	lea    -0x20000(%r12),%edx
    fd9b:	ff 
    fd9c:	81 fa d6 a6 00 00    	cmp    $0xa6d6,%edx
    fda2:	0f 86 8e f9 ff ff    	jbe    f736 <pango_default_break+0x7d6>
    fda8:	41 8d 94 24 00 08 fd 	lea    -0x2f800(%r12),%edx
    fdaf:	ff 
    fdb0:	81 fa 1d 02 00 00    	cmp    $0x21d,%edx
    fdb6:	0f 86 7a f9 ff ff    	jbe    f736 <pango_default_break+0x7d6>
    fdbc:	0f 1f 40 00          	nopl   0x0(%rax)
    fdc0:	83 f8 14             	cmp    $0x14,%eax
    fdc3:	74 0b                	je     fdd0 <pango_default_break+0xe70>
    fdc5:	83 7c 24 04 1a       	cmpl   $0x1a,0x4(%rsp)
    fdca:	0f 85 a5 00 00 00    	jne    fe75 <pango_default_break+0xf15>
    fdd0:	45 31 db             	xor    %r11d,%r11d
    fdd3:	e9 5e f9 ff ff       	jmpq   f736 <pango_default_break+0x7d6>
    fdd8:	0f 1f 84 00 00 00 00 	nopl   0x0(%rax,%rax,1)
    fddf:	00 
    fde0:	31 c0                	xor    %eax,%eax
    fde2:	44 89 54 24 38       	mov    %r10d,0x38(%rsp)
    fde7:	e9 b5 f5 ff ff       	jmpq   f3a1 <pango_default_break+0x441>
    fdec:	0f 1f 40 00          	nopl   0x0(%rax)
    fdf0:	41 81 fc 6c 06 00 00 	cmp    $0x66c,%r12d
    fdf7:	41 bb 08 00 00 00    	mov    $0x8,%r11d
    fdfd:	0f 85 33 f9 ff ff    	jne    f736 <pango_default_break+0x7d6>
    fe03:	e9 c8 f4 ff ff       	jmpq   f2d0 <pango_default_break+0x370>
    fe08:	0f 1f 84 00 00 00 00 	nopl   0x0(%rax,%rax,1)
    fe0f:	00 
    fe10:	48 8d 0d e9 d5 01 00 	lea    0x1d5e9(%rip),%rcx        # 2d400 <pango_tab_align_get_type+0x1be0>
    fe17:	48 8d 35 1a d2 01 00 	lea    0x1d21a(%rip),%rsi        # 2d038 <pango_tab_align_get_type+0x1818>
    fe1e:	48 8d 3d 31 d1 01 00 	lea    0x1d131(%rip),%rdi        # 2cf56 <pango_tab_align_get_type+0x1736>
    fe25:	45 31 c0             	xor    %r8d,%r8d
    fe28:	ba 52 06 00 00       	mov    $0x652,%edx
    fe2d:	e8 7e d8 ff ff       	callq  d6b0 <g_assertion_message_expr@plt>
    fe32:	66 0f 1f 44 00 00    	nopw   0x0(%rax,%rax,1)
    fe38:	83 7c 24 18 0d       	cmpl   $0xd,0x18(%rsp)
    fe3d:	0f 85 6c f6 ff ff    	jne    f4af <pango_default_break+0x54f>
    fe43:	e9 6c f6 ff ff       	jmpq   f4b4 <pango_default_break+0x554>
    fe48:	0f 1f 84 00 00 00 00 	nopl   0x0(%rax,%rax,1)
    fe4f:	00 
    fe50:	83 7c 24 10 0a       	cmpl   $0xa,0x10(%rsp)
    fe55:	0f 85 2c f6 ff ff    	jne    f487 <pango_default_break+0x527>
    fe5b:	0f 1f 44 00 00       	nopl   0x0(%rax,%rax,1)
    fe60:	e9 29 f6 ff ff       	jmpq   f48e <pango_default_break+0x52e>
    fe65:	0f 1f 00             	nopl   (%rax)
    fe68:	41 81 fc f3 05 00 00 	cmp    $0x5f3,%r12d
    fe6f:	0f 85 34 f4 ff ff    	jne    f2a9 <pango_default_break+0x349>
    fe75:	41 bb 04 00 00 00    	mov    $0x4,%r11d
    fe7b:	e9 b6 f8 ff ff       	jmpq   f736 <pango_default_break+0x7d6>
    fe80:	41 81 fc 70 ff 00 00 	cmp    $0xff70,%r12d
    fe87:	0f 84 a3 f8 ff ff    	je     f730 <pango_default_break+0x7d0>
    fe8d:	41 8d 94 24 62 00 ff 	lea    -0xff9e(%r12),%edx
    fe94:	ff 
    fe95:	83 fa 01             	cmp    $0x1,%edx
    fe98:	0f 87 0b f4 ff ff    	ja     f2a9 <pango_default_break+0x349>
    fe9e:	41 bb 02 00 00 00    	mov    $0x2,%r11d
    fea4:	e9 8d f8 ff ff       	jmpq   f736 <pango_default_break+0x7d6>
    fea9:	0f 1f 80 00 00 00 00 	nopl   0x0(%rax)
    feb0:	41 80 4d 01 02       	orb    $0x2,0x1(%r13)
    feb5:	83 fb 1d             	cmp    $0x1d,%ebx
    feb8:	77 15                	ja     fecf <pango_default_break+0xf6f>
    feba:	b8 01 00 00 00       	mov    $0x1,%eax
    febf:	89 d9                	mov    %ebx,%ecx
    fec1:	48 d3 e0             	shl    %cl,%rax
    fec4:	a9 03 00 00 38       	test   $0x38000003,%eax
    fec9:	0f 85 c4 04 00 00    	jne    10393 <pango_default_break+0x1433>
    fecf:	41 80 4d 01 01       	orb    $0x1,0x1(%r13)
    fed4:	e9 27 f6 ff ff       	jmpq   f500 <pango_default_break+0x5a0>
    fed9:	0f 1f 80 00 00 00 00 	nopl   0x0(%rax)
    fee0:	83 7c 24 18 0d       	cmpl   $0xd,0x18(%rsp)
    fee5:	0f 84 14 fb ff ff    	je     f9ff <pango_default_break+0xa9f>
    feeb:	e9 0a fb ff ff       	jmpq   f9fa <pango_default_break+0xa9a>
    fef0:	41 83 fb 03          	cmp    $0x3,%r11d
    fef4:	0f 84 8d f8 ff ff    	je     f787 <pango_default_break+0x827>
    fefa:	66 0f 1f 44 00 00    	nopw   0x0(%rax,%rax,1)
    ff00:	e9 96 fc ff ff       	jmpq   fb9b <pango_default_break+0xc3b>
    ff05:	0f 1f 00             	nopl   (%rax)
    ff08:	41 8d 94 24 65 cf ff 	lea    -0x309b(%r12),%edx
    ff0f:	ff 
    ff10:	83 fa 01             	cmp    $0x1,%edx
    ff13:	0f 86 17 f8 ff ff    	jbe    f730 <pango_default_break+0x7d0>
    ff19:	41 81 fc a0 30 00 00 	cmp    $0x30a0,%r12d
    ff20:	0f 84 0a f8 ff ff    	je     f730 <pango_default_break+0x7d0>
    ff26:	41 81 fc fc 30 00 00 	cmp    $0x30fc,%r12d
    ff2d:	0f 85 76 f3 ff ff    	jne    f2a9 <pango_default_break+0x349>
    ff33:	e9 f8 f7 ff ff       	jmpq   f730 <pango_default_break+0x7d0>
    ff38:	0f 1f 84 00 00 00 00 	nopl   0x0(%rax,%rax,1)
    ff3f:	00 
    ff40:	41 80 65 00 7f       	andb   $0x7f,0x0(%r13)
    ff45:	c7 44 24 30 05 00 00 	movl   $0x5,0x30(%rsp)
    ff4c:	00 
    ff4d:	e9 ae f5 ff ff       	jmpq   f500 <pango_default_break+0x5a0>
    ff52:	66 0f 1f 44 00 00    	nopw   0x0(%rax,%rax,1)
    ff58:	41 be 13 00 00 00    	mov    $0x13,%r14d
    ff5e:	8b 4c 24 44          	mov    0x44(%rsp),%ecx
    ff62:	85 c9                	test   %ecx,%ecx
    ff64:	0f 84 72 f4 ff ff    	je     f3dc <pango_default_break+0x47c>
    ff6a:	41 80 4d 00 01       	orb    $0x1,0x0(%r13)
    ff6f:	e9 68 f4 ff ff       	jmpq   f3dc <pango_default_break+0x47c>
    ff74:	0f 1f 40 00          	nopl   0x0(%rax)
    ff78:	41 80 4d 01 02       	orb    $0x2,0x1(%r13)
    ff7d:	c7 44 24 30 04 00 00 	movl   $0x4,0x30(%rsp)
    ff84:	00 
    ff85:	e9 76 f5 ff ff       	jmpq   f500 <pango_default_break+0x5a0>
    ff8a:	66 0f 1f 44 00 00    	nopw   0x0(%rax,%rax,1)
    ff90:	8b 44 24 40          	mov    0x40(%rsp),%eax
    ff94:	89 44 24 78          	mov    %eax,0x78(%rsp)
    ff98:	e9 63 f5 ff ff       	jmpq   f500 <pango_default_break+0x5a0>
    ff9d:	0f 1f 00             	nopl   (%rax)
    ffa0:	41 80 4d 01 02       	orb    $0x2,0x1(%r13)
    ffa5:	41 80 65 00 7f       	andb   $0x7f,0x0(%r13)
    ffaa:	c7 44 24 30 05 00 00 	movl   $0x5,0x30(%rsp)
    ffb1:	00 
    ffb2:	e9 49 f5 ff ff       	jmpq   f500 <pango_default_break+0x5a0>
    ffb7:	66 0f 1f 84 00 00 00 	nopw   0x0(%rax,%rax,1)
    ffbe:	00 00 
    ffc0:	83 fb 12             	cmp    $0x12,%ebx
    ffc3:	0f 85 b6 03 00 00    	jne    1037f <pango_default_break+0x141f>
    ffc9:	44 89 64 24 08       	mov    %r12d,0x8(%rsp)
    ffce:	e9 3f f5 ff ff       	jmpq   f512 <pango_default_break+0x5b2>
    ffd3:	0f 1f 44 00 00       	nopl   0x0(%rax,%rax,1)
    ffd8:	41 80 4d 01 02       	orb    $0x2,0x1(%r13)
    ffdd:	c7 44 24 30 05 00 00 	movl   $0x5,0x30(%rsp)
    ffe4:	00 
    ffe5:	e9 16 f5 ff ff       	jmpq   f500 <pango_default_break+0x5a0>
    ffea:	66 0f 1f 44 00 00    	nopw   0x0(%rax,%rax,1)
    fff0:	83 fb 12             	cmp    $0x12,%ebx
    fff3:	0f 84 74 03 00 00    	je     1036d <pango_default_break+0x140d>
    fff9:	44 89 e0             	mov    %r12d,%eax
    fffc:	c7 44 24 30 03 00 00 	movl   $0x3,0x30(%rsp)
   10003:	00 
   10004:	83 e0 fd             	and    $0xfffffffd,%eax
   10007:	83 f8 2c             	cmp    $0x2c,%eax
   1000a:	0f 84 f0 f4 ff ff    	je     f500 <pango_default_break+0x5a0>
   10010:	41 83 fc 3f          	cmp    $0x3f,%r12d
   10014:	0f 84 e6 f4 ff ff    	je     f500 <pango_default_break+0x5a0>
   1001a:	41 83 fc 21          	cmp    $0x21,%r12d
   1001e:	0f 84 dc f4 ff ff    	je     f500 <pango_default_break+0x5a0>
   10024:	41 0f b6 55 01       	movzbl 0x1(%r13),%edx
   10029:	89 d9                	mov    %ebx,%ecx
   1002b:	41 80 4d 00 80       	orb    $0x80,0x0(%r13)
   10030:	c7 44 24 30 00 00 00 	movl   $0x0,0x30(%rsp)
   10037:	00 
   10038:	89 d0                	mov    %edx,%eax
   1003a:	83 c8 02             	or     $0x2,%eax
   1003d:	41 88 45 01          	mov    %al,0x1(%r13)
   10041:	b8 01 00 00 00       	mov    $0x1,%eax
   10046:	48 d3 e0             	shl    %cl,%rax
   10049:	a9 03 00 00 38       	test   $0x38000003,%eax
   1004e:	0f 85 ac f4 ff ff    	jne    f500 <pango_default_break+0x5a0>
   10054:	83 ca 03             	or     $0x3,%edx
   10057:	c7 44 24 30 01 00 00 	movl   $0x1,0x30(%rsp)
   1005e:	00 
   1005f:	41 88 55 01          	mov    %dl,0x1(%r13)
   10063:	e9 98 f4 ff ff       	jmpq   f500 <pango_default_break+0x5a0>
   10068:	0f 1f 84 00 00 00 00 	nopl   0x0(%rax,%rax,1)
   1006f:	00 
   10070:	41 83 fc 27          	cmp    $0x27,%r12d
   10074:	74 0a                	je     10080 <pango_default_break+0x1120>
   10076:	41 83 fc 2e          	cmp    $0x2e,%r12d
   1007a:	0f 85 c8 00 00 00    	jne    10148 <pango_default_break+0x11e8>
   10080:	41 bb 05 00 00 00    	mov    $0x5,%r11d
   10086:	e9 ab f6 ff ff       	jmpq   f736 <pango_default_break+0x7d6>
   1008b:	0f 1f 44 00 00       	nopl   0x0(%rax,%rax,1)
   10090:	41 8d 94 24 4a db ff 	lea    -0x24b6(%r12),%edx
   10097:	ff 
   10098:	83 fa 33             	cmp    $0x33,%edx
   1009b:	0f 86 1f fd ff ff    	jbe    fdc0 <pango_default_break+0xe60>
   100a1:	e9 2a fd ff ff       	jmpq   fdd0 <pango_default_break+0xe70>
   100a6:	66 2e 0f 1f 84 00 00 	nopw   %cs:0x0(%rax,%rax,1)
   100ad:	00 00 00 
   100b0:	41 8d 44 24 f6       	lea    -0xa(%r12),%eax
   100b5:	41 bb 01 00 00 00    	mov    $0x1,%r11d
   100bb:	83 f8 03             	cmp    $0x3,%eax
   100be:	0f 86 72 f6 ff ff    	jbe    f736 <pango_default_break+0x7d6>
   100c4:	45 31 db             	xor    %r11d,%r11d
   100c7:	41 81 fc 85 00 00 00 	cmp    $0x85,%r12d
   100ce:	41 0f 94 c3          	sete   %r11b
   100d2:	e9 5f f6 ff ff       	jmpq   f736 <pango_default_break+0x7d6>
   100d7:	66 0f 1f 84 00 00 00 	nopw   0x0(%rax,%rax,1)
   100de:	00 00 
   100e0:	41 bb 09 00 00 00    	mov    $0x9,%r11d
   100e6:	e9 4b f6 ff ff       	jmpq   f736 <pango_default_break+0x7d6>
   100eb:	0f 1f 44 00 00       	nopl   0x0(%rax,%rax,1)
   100f0:	41 8d 84 24 e8 df ff 	lea    -0x2018(%r12),%eax
   100f7:	ff 
   100f8:	83 f8 02             	cmp    $0x2,%eax
   100fb:	45 19 db             	sbb    %r11d,%r11d
   100fe:	41 83 e3 05          	and    $0x5,%r11d
   10102:	e9 2f f6 ff ff       	jmpq   f736 <pango_default_break+0x7d6>
   10107:	66 0f 1f 84 00 00 00 	nopw   0x0(%rax,%rax,1)
   1010e:	00 00 
   10110:	41 bb 01 00 00 00    	mov    $0x1,%r11d
   10116:	e9 1b f6 ff ff       	jmpq   f736 <pango_default_break+0x7d6>
   1011b:	0f 1f 44 00 00       	nopl   0x0(%rax,%rax,1)
   10120:	48 8d 15 d3 ce 01 00 	lea    0x1ced3(%rip),%rdx        # 2cffa <pango_tab_align_get_type+0x17da>
   10127:	e9 64 ee ff ff       	jmpq   ef90 <pango_default_break+0x30>
   1012c:	0f 1f 40 00          	nopl   0x0(%rax)
   10130:	41 80 4d 01 02       	orb    $0x2,0x1(%r13)
   10135:	41 80 4d 00 80       	orb    $0x80,0x0(%r13)
   1013a:	83 fb 1d             	cmp    $0x1d,%ebx
   1013d:	0f 87 c1 f8 ff ff    	ja     fa04 <pango_default_break+0xaa4>
   10143:	e9 00 f9 ff ff       	jmpq   fa48 <pango_default_break+0xae8>
   10148:	41 81 fc 24 20 00 00 	cmp    $0x2024,%r12d
   1014f:	0f 84 2b ff ff ff    	je     10080 <pango_default_break+0x1120>
   10155:	41 81 fc 52 fe 00 00 	cmp    $0xfe52,%r12d
   1015c:	0f 84 1e ff ff ff    	je     10080 <pango_default_break+0x1120>
   10162:	41 81 fc 07 ff 00 00 	cmp    $0xff07,%r12d
   10169:	0f 84 11 ff ff ff    	je     10080 <pango_default_break+0x1120>
   1016f:	41 81 fc 0e ff 00 00 	cmp    $0xff0e,%r12d
   10176:	0f 84 04 ff ff ff    	je     10080 <pango_default_break+0x1120>
   1017c:	41 81 fc b7 00 00 00 	cmp    $0xb7,%r12d
   10183:	0f 84 a1 03 00 00    	je     1052a <pango_default_break+0x15ca>
   10189:	41 81 fc f4 05 00 00 	cmp    $0x5f4,%r12d
   10190:	0f 84 94 03 00 00    	je     1052a <pango_default_break+0x15ca>
   10196:	41 81 fc 27 20 00 00 	cmp    $0x2027,%r12d
   1019d:	0f 84 87 03 00 00    	je     1052a <pango_default_break+0x15ca>
   101a3:	41 83 fc 3a          	cmp    $0x3a,%r12d
   101a7:	0f 84 7d 03 00 00    	je     1052a <pango_default_break+0x15ca>
   101ad:	41 81 fc 87 03 00 00 	cmp    $0x387,%r12d
   101b4:	0f 84 70 03 00 00    	je     1052a <pango_default_break+0x15ca>
   101ba:	41 81 fc 13 fe 00 00 	cmp    $0xfe13,%r12d
   101c1:	0f 84 63 03 00 00    	je     1052a <pango_default_break+0x15ca>
   101c7:	41 81 fc 55 fe 00 00 	cmp    $0xfe55,%r12d
   101ce:	0f 84 56 03 00 00    	je     1052a <pango_default_break+0x15ca>
   101d4:	41 81 fc 1a ff 00 00 	cmp    $0xff1a,%r12d
   101db:	0f 84 49 03 00 00    	je     1052a <pango_default_break+0x15ca>
   101e1:	41 81 fc 6c 06 00 00 	cmp    $0x66c,%r12d
   101e8:	41 bb 07 00 00 00    	mov    $0x7,%r11d
   101ee:	0f 84 42 f5 ff ff    	je     f736 <pango_default_break+0x7d6>
   101f4:	44 89 e0             	mov    %r12d,%eax
   101f7:	83 e0 fb             	and    $0xfffffffb,%eax
   101fa:	3d 50 fe 00 00       	cmp    $0xfe50,%eax
   101ff:	0f 84 31 f5 ff ff    	je     f736 <pango_default_break+0x7d6>
   10205:	41 81 fc 0c ff 00 00 	cmp    $0xff0c,%r12d
   1020c:	0f 84 2e f5 ff ff    	je     f740 <pango_default_break+0x7e0>
   10212:	41 81 fc 1b ff 00 00 	cmp    $0xff1b,%r12d
   10219:	0f 84 21 f5 ff ff    	je     f740 <pango_default_break+0x7e0>
   1021f:	45 30 db             	xor    %r11b,%r11b
   10222:	e9 0f f5 ff ff       	jmpq   f736 <pango_default_break+0x7d6>
   10227:	66 0f 1f 84 00 00 00 	nopw   0x0(%rax,%rax,1)
   1022e:	00 00 
   10230:	4a 63 34 86          	movslq (%rsi,%r8,4),%rsi
   10234:	83 fe 14             	cmp    $0x14,%esi
   10237:	7f 17                	jg     10250 <pango_default_break+0x12f0>
   10239:	48 8d 3d 40 a2 23 00 	lea    0x23a240(%rip),%rdi        # 24a480 <pango_tab_align_get_type+0x21ec60>
   10240:	48 8b 0c cf          	mov    (%rdi,%rcx,8),%rcx
   10244:	8b 0c b1             	mov    (%rcx,%rsi,4),%ecx
   10247:	e9 72 fa ff ff       	jmpq   fcbe <pango_default_break+0xd5e>
   1024c:	0f 1f 40 00          	nopl   0x0(%rax)
   10250:	4c 8d 05 29 cd 01 00 	lea    0x1cd29(%rip),%r8        # 2cf80 <pango_tab_align_get_type+0x1760>
   10257:	48 8d 0d a2 d1 01 00 	lea    0x1d1a2(%rip),%rcx        # 2d400 <pango_tab_align_get_type+0x1be0>
   1025e:	48 8d 35 d3 cd 01 00 	lea    0x1cdd3(%rip),%rsi        # 2d038 <pango_tab_align_get_type+0x1818>
   10265:	48 8d 3d ea cc 01 00 	lea    0x1ccea(%rip),%rdi        # 2cf56 <pango_tab_align_get_type+0x1736>
   1026c:	ba 32 04 00 00       	mov    $0x432,%edx
   10271:	e8 3a d4 ff ff       	callq  d6b0 <g_assertion_message_expr@plt>
   10276:	66 2e 0f 1f 84 00 00 	nopw   %cs:0x0(%rax,%rax,1)
   1027d:	00 00 00 
   10280:	44 8b 74 24 04       	mov    0x4(%rsp),%r14d
   10285:	e9 d4 fc ff ff       	jmpq   ff5e <pango_default_break+0xffe>
   1028a:	66 0f 1f 44 00 00    	nopw   0x0(%rax,%rax,1)
   10290:	c7 44 24 30 01 00 00 	movl   $0x1,0x30(%rsp)
   10297:	00 
   10298:	e9 63 f2 ff ff       	jmpq   f500 <pango_default_break+0x5a0>
   1029d:	0f 1f 00             	nopl   (%rax)
   102a0:	48 8b 44 24 48       	mov    0x48(%rsp),%rax
   102a5:	48 8b 4c 24 60       	mov    0x60(%rsp),%rcx
   102aa:	80 08 10             	orb    $0x10,(%rax)
   102ad:	80 09 10             	orb    $0x10,(%rcx)
   102b0:	80 48 01 10          	orb    $0x10,0x1(%rax)
   102b4:	80 49 01 10          	orb    $0x10,0x1(%rcx)
   102b8:	80 08 01             	orb    $0x1,(%rax)
   102bb:	80 21 fe             	andb   $0xfe,(%rcx)
   102be:	48 81 c4 88 00 00 00 	add    $0x88,%rsp
   102c5:	5b                   	pop    %rbx
   102c6:	5d                   	pop    %rbp
   102c7:	41 5c                	pop    %r12
   102c9:	41 5d                	pop    %r13
   102cb:	41 5e                	pop    %r14
   102cd:	41 5f                	pop    %r15
   102cf:	c3                   	retq   
   102d0:	4c 8d 05 e9 cd 01 00 	lea    0x1cde9(%rip),%r8        # 2d0c0 <pango_tab_align_get_type+0x18a0>
   102d7:	48 8d 0d 22 d1 01 00 	lea    0x1d122(%rip),%rcx        # 2d400 <pango_tab_align_get_type+0x1be0>
   102de:	48 8d 35 53 cd 01 00 	lea    0x1cd53(%rip),%rsi        # 2d038 <pango_tab_align_get_type+0x1818>
   102e5:	48 8d 3d 6a cc 01 00 	lea    0x1cc6a(%rip),%rdi        # 2cf56 <pango_tab_align_get_type+0x1736>
   102ec:	ba 46 06 00 00       	mov    $0x646,%edx
   102f1:	e8 ba d3 ff ff       	callq  d6b0 <g_assertion_message_expr@plt>
   102f6:	66 2e 0f 1f 84 00 00 	nopw   %cs:0x0(%rax,%rax,1)
   102fd:	00 00 00 
   10300:	4c 8d 05 95 cc 01 00 	lea    0x1cc95(%rip),%r8        # 2cf9c <pango_tab_align_get_type+0x177c>
   10307:	48 8d 0d f2 d0 01 00 	lea    0x1d0f2(%rip),%rcx        # 2d400 <pango_tab_align_get_type+0x1be0>
   1030e:	48 8d 35 23 cd 01 00 	lea    0x1cd23(%rip),%rsi        # 2d038 <pango_tab_align_get_type+0x1818>
   10315:	48 8d 3d 3a cc 01 00 	lea    0x1cc3a(%rip),%rdi        # 2cf56 <pango_tab_align_get_type+0x1736>
   1031c:	ba 45 06 00 00       	mov    $0x645,%edx
   10321:	e8 8a d3 ff ff       	callq  d6b0 <g_assertion_message_expr@plt>
   10326:	66 2e 0f 1f 84 00 00 	nopw   %cs:0x0(%rax,%rax,1)
   1032d:	00 00 00 
   10330:	8b 44 24 40          	mov    0x40(%rsp),%eax
   10334:	c7 44 24 30 09 00 00 	movl   $0x9,0x30(%rsp)
   1033b:	00 
   1033c:	89 44 24 78          	mov    %eax,0x78(%rsp)
   10340:	e9 bb f1 ff ff       	jmpq   f500 <pango_default_break+0x5a0>
   10345:	0f 1f 00             	nopl   (%rax)
   10348:	8b 44 24 40          	mov    0x40(%rsp),%eax
   1034c:	c7 44 24 30 01 00 00 	movl   $0x1,0x30(%rsp)
   10353:	00 
   10354:	89 44 24 78          	mov    %eax,0x78(%rsp)
   10358:	e9 a3 f1 ff ff       	jmpq   f500 <pango_default_break+0x5a0>
   1035d:	0f 1f 00             	nopl   (%rax)
   10360:	c7 44 24 30 06 00 00 	movl   $0x6,0x30(%rsp)
   10367:	00 
   10368:	e9 93 f1 ff ff       	jmpq   f500 <pango_default_break+0x5a0>
   1036d:	44 89 64 24 08       	mov    %r12d,0x8(%rsp)
   10372:	c7 44 24 30 03 00 00 	movl   $0x3,0x30(%rsp)
   10379:	00 
   1037a:	e9 93 f1 ff ff       	jmpq   f512 <pango_default_break+0x5b2>
   1037f:	44 89 e0             	mov    %r12d,%eax
   10382:	83 e0 fd             	and    $0xfffffffd,%eax
   10385:	83 f8 2c             	cmp    $0x2c,%eax
   10388:	0f 84 72 f1 ff ff    	je     f500 <pango_default_break+0x5a0>
   1038e:	e9 7d fc ff ff       	jmpq   10010 <pango_default_break+0x10b0>
   10393:	c7 44 24 30 00 00 00 	movl   $0x0,0x30(%rsp)
   1039a:	00 
   1039b:	e9 60 f1 ff ff       	jmpq   f500 <pango_default_break+0x5a0>
   103a0:	41 81 fc c2 0c 00 00 	cmp    $0xcc2,%r12d
   103a7:	0f 84 93 ef ff ff    	je     f340 <pango_default_break+0x3e0>
   103ad:	41 8d 84 24 2b f3 ff 	lea    -0xcd5(%r12),%eax
   103b4:	ff 
   103b5:	83 f8 01             	cmp    $0x1,%eax
   103b8:	0f 86 82 ef ff ff    	jbe    f340 <pango_default_break+0x3e0>
   103be:	41 81 fc 3e 0d 00 00 	cmp    $0xd3e,%r12d
   103c5:	0f 84 6a 01 00 00    	je     10535 <pango_default_break+0x15d5>
   103cb:	41 81 fc 57 0d 00 00 	cmp    $0xd57,%r12d
   103d2:	0f 84 68 ef ff ff    	je     f340 <pango_default_break+0x3e0>
   103d8:	44 89 e0             	mov    %r12d,%eax
   103db:	83 e0 ef             	and    $0xffffffef,%eax
   103de:	3d cf 0d 00 00       	cmp    $0xdcf,%eax
   103e3:	0f 84 57 ef ff ff    	je     f340 <pango_default_break+0x3e0>
   103e9:	41 81 fc 65 d1 01 00 	cmp    $0x1d165,%r12d
   103f0:	0f 84 3f 01 00 00    	je     10535 <pango_default_break+0x15d5>
   103f6:	41 8d 84 24 92 2e fe 	lea    -0x1d16e(%r12),%eax
   103fd:	ff 
   103fe:	83 f8 05             	cmp    $0x5,%eax
   10401:	45 19 d2             	sbb    %r10d,%r10d
   10404:	41 83 e2 fe          	and    $0xfffffffe,%r10d
   10408:	41 83 c2 04          	add    $0x4,%r10d
   1040c:	e9 d5 ed ff ff       	jmpq   f1e6 <pango_default_break+0x286>
   10411:	0f 1f 80 00 00 00 00 	nopl   0x0(%rax)
   10418:	8b 44 24 68          	mov    0x68(%rsp),%eax
   1041c:	2d 00 2f 00 00       	sub    $0x2f00,%eax
   10421:	3d ff 01 00 00       	cmp    $0x1ff,%eax
   10426:	76 14                	jbe    1043c <pango_default_break+0x14dc>
   10428:	41 8d 94 24 00 d1 ff 	lea    -0x2f00(%r12),%edx
   1042f:	ff 
   10430:	81 fa ff 01 00 00    	cmp    $0x1ff,%edx
   10436:	0f 87 f4 f7 ff ff    	ja     fc30 <pango_default_break+0xcd0>
   1043c:	8b 4c 24 68          	mov    0x68(%rsp),%ecx
   10440:	8d 91 c0 cf ff ff    	lea    -0x3040(%rcx),%edx
   10446:	83 fa 5f             	cmp    $0x5f,%edx
   10449:	77 0d                	ja     10458 <pango_default_break+0x14f8>
   1044b:	41 8d 94 24 c0 cf ff 	lea    -0x3040(%r12),%edx
   10452:	ff 
   10453:	83 fa 5f             	cmp    $0x5f,%edx
   10456:	77 51                	ja     104a9 <pango_default_break+0x1549>
   10458:	8b 54 24 68          	mov    0x68(%rsp),%edx
   1045c:	81 ea a0 30 00 00    	sub    $0x30a0,%edx
   10462:	83 fa 5f             	cmp    $0x5f,%edx
   10465:	77 10                	ja     10477 <pango_default_break+0x1517>
   10467:	41 8d 94 24 c0 cf ff 	lea    -0x3040(%r12),%edx
   1046e:	ff 
   1046f:	81 fa bf 00 00 00    	cmp    $0xbf,%edx
   10475:	77 32                	ja     104a9 <pango_default_break+0x1549>
   10477:	3d df 00 00 00       	cmp    $0xdf,%eax
   1047c:	0f 87 c7 00 00 00    	ja     10549 <pango_default_break+0x15e9>
   10482:	41 8d 84 24 00 d1 ff 	lea    -0x2f00(%r12),%eax
   10489:	ff 
   1048a:	3d df 00 00 00       	cmp    $0xdf,%eax
   1048f:	76 0d                	jbe    1049e <pango_default_break+0x153e>
   10491:	41 8d 94 24 c0 cf ff 	lea    -0x3040(%r12),%edx
   10498:	ff 
   10499:	83 fa 5f             	cmp    $0x5f,%edx
   1049c:	77 0b                	ja     104a9 <pango_default_break+0x1549>
   1049e:	3d ff 01 00 00       	cmp    $0x1ff,%eax
   104a3:	0f 86 87 f7 ff ff    	jbe    fc30 <pango_default_break+0xcd0>
   104a9:	41 80 4d 00 40       	orb    $0x40,0x0(%r13)
   104ae:	44 89 64 24 68       	mov    %r12d,0x68(%rsp)
   104b3:	e9 98 ef ff ff       	jmpq   f450 <pango_default_break+0x4f0>
   104b8:	4c 8d 05 01 cc 01 00 	lea    0x1cc01(%rip),%r8        # 2d0c0 <pango_tab_align_get_type+0x18a0>
   104bf:	48 8d 0d 3a cf 01 00 	lea    0x1cf3a(%rip),%rcx        # 2d400 <pango_tab_align_get_type+0x1be0>
   104c6:	48 8d 35 6b cb 01 00 	lea    0x1cb6b(%rip),%rsi        # 2d038 <pango_tab_align_get_type+0x1818>
   104cd:	48 8d 3d 82 ca 01 00 	lea    0x1ca82(%rip),%rdi        # 2cf56 <pango_tab_align_get_type+0x1736>
   104d4:	ba 2e 06 00 00       	mov    $0x62e,%edx
   104d9:	e8 d2 d1 ff ff       	callq  d6b0 <g_assertion_message_expr@plt>
   104de:	4c 8d 05 b7 ca 01 00 	lea    0x1cab7(%rip),%r8        # 2cf9c <pango_tab_align_get_type+0x177c>
   104e5:	48 8d 0d 14 cf 01 00 	lea    0x1cf14(%rip),%rcx        # 2d400 <pango_tab_align_get_type+0x1be0>
   104ec:	48 8d 35 45 cb 01 00 	lea    0x1cb45(%rip),%rsi        # 2d038 <pango_tab_align_get_type+0x1818>
   104f3:	48 8d 3d 5c ca 01 00 	lea    0x1ca5c(%rip),%rdi        # 2cf56 <pango_tab_align_get_type+0x1736>
   104fa:	ba 2d 06 00 00       	mov    $0x62d,%edx
   104ff:	e8 ac d1 ff ff       	callq  d6b0 <g_assertion_message_expr@plt>
   10504:	4c 8d 05 91 ca 01 00 	lea    0x1ca91(%rip),%r8        # 2cf9c <pango_tab_align_get_type+0x177c>
   1050b:	48 8d 0d ee ce 01 00 	lea    0x1ceee(%rip),%rcx        # 2d400 <pango_tab_align_get_type+0x1be0>
   10512:	48 8d 35 1f cb 01 00 	lea    0x1cb1f(%rip),%rsi        # 2d038 <pango_tab_align_get_type+0x1818>
   10519:	48 8d 3d 36 ca 01 00 	lea    0x1ca36(%rip),%rdi        # 2cf56 <pango_tab_align_get_type+0x1736>
   10520:	ba 0d 06 00 00       	mov    $0x60d,%edx
   10525:	e8 86 d1 ff ff       	callq  d6b0 <g_assertion_message_expr@plt>
   1052a:	41 bb 06 00 00 00    	mov    $0x6,%r11d
   10530:	e9 01 f2 ff ff       	jmpq   f736 <pango_default_break+0x7d6>
   10535:	41 83 fc 0a          	cmp    $0xa,%r12d
   10539:	41 ba 02 00 00 00    	mov    $0x2,%r10d
   1053f:	0f 94 44 24 53       	sete   0x53(%rsp)
   10544:	e9 b7 ec ff ff       	jmpq   f200 <pango_default_break+0x2a0>
   10549:	3d ff 01 00 00       	cmp    $0x1ff,%eax
   1054e:	41 8d 84 24 00 d1 ff 	lea    -0x2f00(%r12),%eax
   10555:	ff 
   10556:	0f 86 42 ff ff ff    	jbe    1049e <pango_default_break+0x153e>
   1055c:	3d ff 01 00 00       	cmp    $0x1ff,%eax
   10561:	44 89 64 24 68       	mov    %r12d,0x68(%rsp)
   10566:	0f 87 e4 ee ff ff    	ja     f450 <pango_default_break+0x4f0>
   1056c:	e9 38 ff ff ff       	jmpq   104a9 <pango_default_break+0x1549>
   10571:	8b 44 24 40          	mov    0x40(%rsp),%eax
   10575:	44 89 54 24 38       	mov    %r10d,0x38(%rsp)
   1057a:	c7 44 24 58 01 00 00 	movl   $0x1,0x58(%rsp)
   10581:	00 
   10582:	44 89 5c 24 1c       	mov    %r11d,0x1c(%rsp)
   10587:	89 44 24 5c          	mov    %eax,0x5c(%rsp)
   1058b:	b8 01 00 00 00       	mov    $0x1,%eax
   10590:	e9 0c ee ff ff       	jmpq   f3a1 <pango_default_break+0x441>
   10595:	be 01 00 00 00       	mov    $0x1,%esi
   1059a:	44 89 f1             	mov    %r14d,%ecx
   1059d:	48 d3 e6             	shl    %cl,%rsi
   105a0:	f7 c6 05 00 00 20    	test   $0x20000005,%esi
   105a6:	74 12                	je     105ba <pango_default_break+0x165a>
   105a8:	44 89 f2             	mov    %r14d,%edx
   105ab:	41 80 4d 00 03       	orb    $0x3,0x0(%r13)
   105b0:	44 8b 74 24 04       	mov    0x4(%rsp),%r14d
   105b5:	e9 27 f0 ff ff       	jmpq   f5e1 <pango_default_break+0x681>
   105ba:	44 89 f2             	mov    %r14d,%edx
   105bd:	e9 fe ef ff ff       	jmpq   f5c0 <pango_default_break+0x660>
   105c2:	66 66 66 66 66 2e 0f 	data32 data32 data32 data32 nopw %cs:0x0(%rax,%rax,1)
   105c9:	1f 84 00 00 00 00 00 

00000000000105d0 <pango_break>:
   105d0:	41 56                	push   %r14
   105d2:	41 55                	push   %r13
   105d4:	41 54                	push   %r12
   105d6:	55                   	push   %rbp
   105d7:	53                   	push   %rbx
   105d8:	48 89 d3             	mov    %rdx,%rbx
   105db:	48 8d 15 d5 c9 01 00 	lea    0x1c9d5(%rip),%rdx        # 2cfb7 <pango_tab_align_get_type+0x1797>
   105e2:	48 85 db             	test   %rbx,%rbx
   105e5:	74 40                	je     10627 <pango_break+0x57>
   105e7:	48 85 c9             	test   %rcx,%rcx
   105ea:	48 89 cd             	mov    %rcx,%rbp
   105ed:	74 31                	je     10620 <pango_break+0x50>
   105ef:	48 89 da             	mov    %rbx,%rdx
   105f2:	49 89 fc             	mov    %rdi,%r12
   105f5:	41 89 f5             	mov    %esi,%r13d
   105f8:	45 89 c6             	mov    %r8d,%r14d
   105fb:	e8 60 e9 ff ff       	callq  ef60 <pango_default_break>
   10600:	48 89 da             	mov    %rbx,%rdx
   10603:	48 89 e9             	mov    %rbp,%rcx
   10606:	4c 89 e7             	mov    %r12,%rdi
   10609:	5b                   	pop    %rbx
   1060a:	5d                   	pop    %rbp
   1060b:	41 5c                	pop    %r12
   1060d:	44 89 ee             	mov    %r13d,%esi
   10610:	45 89 f0             	mov    %r14d,%r8d
   10613:	41 5d                	pop    %r13
   10615:	41 5e                	pop    %r14
   10617:	e9 f4 e6 ff ff       	jmpq   ed10 <g_unichar_isspace@plt+0xed0>
   1061c:	0f 1f 40 00          	nopl   0x0(%rax)
   10620:	48 8d 15 d3 c9 01 00 	lea    0x1c9d3(%rip),%rdx        # 2cffa <pango_tab_align_get_type+0x17da>
   10627:	5b                   	pop    %rbx
   10628:	5d                   	pop    %rbp
   10629:	41 5c                	pop    %r12
   1062b:	41 5d                	pop    %r13
   1062d:	41 5e                	pop    %r14
   1062f:	48 8d 35 b8 cd 01 00 	lea    0x1cdb8(%rip),%rsi        # 2d3ee <pango_tab_align_get_type+0x1bce>
   10636:	48 8d 3d 19 c9 01 00 	lea    0x1c919(%rip),%rdi        # 2cf56 <pango_tab_align_get_type+0x1736>
   1063d:	e9 ae d0 ff ff       	jmpq   d6f0 <g_return_if_fail_warning@plt>
   10642:	66 66 66 66 66 2e 0f 	data32 data32 data32 data32 nopw %cs:0x0(%rax,%rax,1)
   10649:	1f 84 00 00 00 00 00 

0000000000010650 <pango_find_paragraph_boundary>:
   10650:	41 55                	push   %r13
   10652:	41 54                	push   %r12
   10654:	49 89 cc             	mov    %rcx,%r12
   10657:	55                   	push   %rbp
   10658:	48 89 fd             	mov    %rdi,%rbp
   1065b:	53                   	push   %rbx
   1065c:	48 83 ec 18          	sub    $0x18,%rsp
   10660:	85 f6                	test   %esi,%esi
   10662:	0f 88 f8 00 00 00    	js     10760 <pango_find_paragraph_boundary+0x110>
   10668:	48 85 d2             	test   %rdx,%rdx
   1066b:	74 02                	je     1066f <pango_find_paragraph_boundary+0x1f>
   1066d:	89 32                	mov    %esi,(%rdx)
   1066f:	4d 85 e4             	test   %r12,%r12
   10672:	74 04                	je     10678 <pango_find_paragraph_boundary+0x28>
   10674:	41 89 34 24          	mov    %esi,(%r12)
   10678:	85 f6                	test   %esi,%esi
   1067a:	0f 84 d0 00 00 00    	je     10750 <pango_find_paragraph_boundary+0x100>
   10680:	4c 63 de             	movslq %esi,%r11
   10683:	49 01 eb             	add    %rbp,%r11
   10686:	4c 39 dd             	cmp    %r11,%rbp
   10689:	0f 83 c1 00 00 00    	jae    10750 <pango_find_paragraph_boundary+0x100>
   1068f:	48 8b 05 4a b9 23 00 	mov    0x23b94a(%rip),%rax        # 24bfe0 <pango_tab_align_get_type+0x2207c0>
   10696:	49 89 e8             	mov    %rbp,%r8
   10699:	45 31 c9             	xor    %r9d,%r9d
   1069c:	41 bd 03 00 00 00    	mov    $0x3,%r13d
   106a2:	48 8b 18             	mov    (%rax),%rbx
   106a5:	31 c0                	xor    %eax,%eax
   106a7:	66 0f 1f 84 00 00 00 	nopw   0x0(%rax,%rax,1)
   106ae:	00 00 
   106b0:	3c 0d                	cmp    $0xd,%al
   106b2:	74 3c                	je     106f0 <pango_find_paragraph_boundary+0xa0>
   106b4:	41 0f b6 00          	movzbl (%r8),%eax
   106b8:	3c 0d                	cmp    $0xd,%al
   106ba:	41 0f 94 c2          	sete   %r10b
   106be:	3c 0a                	cmp    $0xa,%al
   106c0:	40 0f 94 c6          	sete   %sil
   106c4:	41 08 f2             	or     %sil,%r10b
   106c7:	75 36                	jne    106ff <pango_find_paragraph_boundary+0xaf>
   106c9:	48 8d 3d f8 c8 01 00 	lea    0x1c8f8(%rip),%rdi        # 2cfc8 <pango_tab_align_get_type+0x17a8>
   106d0:	4c 89 c6             	mov    %r8,%rsi
   106d3:	4c 89 e9             	mov    %r13,%rcx
   106d6:	f3 a6                	repz cmpsb %es:(%rdi),%ds:(%rsi)
   106d8:	74 25                	je     106ff <pango_find_paragraph_boundary+0xaf>
   106da:	41 0f b6 00          	movzbl (%r8),%eax
   106de:	48 0f be 04 03       	movsbq (%rbx,%rax,1),%rax
   106e3:	49 01 c0             	add    %rax,%r8
   106e6:	4d 39 c3             	cmp    %r8,%r11
   106e9:	77 c9                	ja     106b4 <pango_find_paragraph_boundary+0x64>
   106eb:	e9 93 00 00 00       	jmpq   10783 <pango_find_paragraph_boundary+0x133>
   106f0:	41 80 38 0a          	cmpb   $0xa,(%r8)
   106f4:	0f 85 b4 00 00 00    	jne    107ae <pango_find_paragraph_boundary+0x15e>
   106fa:	b8 0a 00 00 00       	mov    $0xa,%eax
   106ff:	41 0f b6 08          	movzbl (%r8),%ecx
   10703:	4d 85 c9             	test   %r9,%r9
   10706:	4d 0f 44 c8          	cmove  %r8,%r9
   1070a:	48 0f be 34 0b       	movsbq (%rbx,%rcx,1),%rsi
   1070f:	49 01 f0             	add    %rsi,%r8
   10712:	4d 39 c3             	cmp    %r8,%r11
   10715:	76 69                	jbe    10780 <pango_find_paragraph_boundary+0x130>
   10717:	3c 0a                	cmp    $0xa,%al
   10719:	74 04                	je     1071f <pango_find_paragraph_boundary+0xcf>
   1071b:	3c e2                	cmp    $0xe2,%al
   1071d:	75 91                	jne    106b0 <pango_find_paragraph_boundary+0x60>
   1071f:	4d 85 c9             	test   %r9,%r9
   10722:	74 64                	je     10788 <pango_find_paragraph_boundary+0x138>
   10724:	4d 85 c0             	test   %r8,%r8
   10727:	41 0f 95 c2          	setne  %r10b
   1072b:	4d 85 e4             	test   %r12,%r12
   1072e:	0f 95 c0             	setne  %al
   10731:	41 21 c2             	and    %eax,%r10d
   10734:	4d 85 c9             	test   %r9,%r9
   10737:	74 0b                	je     10744 <pango_find_paragraph_boundary+0xf4>
   10739:	48 85 d2             	test   %rdx,%rdx
   1073c:	74 06                	je     10744 <pango_find_paragraph_boundary+0xf4>
   1073e:	49 29 e9             	sub    %rbp,%r9
   10741:	44 89 0a             	mov    %r9d,(%rdx)
   10744:	45 84 d2             	test   %r10b,%r10b
   10747:	74 07                	je     10750 <pango_find_paragraph_boundary+0x100>
   10749:	49 29 e8             	sub    %rbp,%r8
   1074c:	45 89 04 24          	mov    %r8d,(%r12)
   10750:	48 83 c4 18          	add    $0x18,%rsp
   10754:	5b                   	pop    %rbx
   10755:	5d                   	pop    %rbp
   10756:	41 5c                	pop    %r12
   10758:	41 5d                	pop    %r13
   1075a:	c3                   	retq   
   1075b:	0f 1f 44 00 00       	nopl   0x0(%rax,%rax,1)
   10760:	48 89 54 24 08       	mov    %rdx,0x8(%rsp)
   10765:	e8 66 ce ff ff       	callq  d5d0 <strlen@plt>
   1076a:	48 8b 54 24 08       	mov    0x8(%rsp),%rdx
   1076f:	89 c6                	mov    %eax,%esi
   10771:	e9 f2 fe ff ff       	jmpq   10668 <pango_find_paragraph_boundary+0x18>
   10776:	66 2e 0f 1f 84 00 00 	nopw   %cs:0x0(%rax,%rax,1)
   1077d:	00 00 00 
   10780:	45 31 d2             	xor    %r10d,%r10d
   10783:	45 31 c0             	xor    %r8d,%r8d
   10786:	eb ac                	jmp    10734 <pango_find_paragraph_boundary+0xe4>
   10788:	4c 8d 05 3d c8 01 00 	lea    0x1c83d(%rip),%r8        # 2cfcc <pango_tab_align_get_type+0x17ac>
   1078f:	48 8d 0d 3a cc 01 00 	lea    0x1cc3a(%rip),%rcx        # 2d3d0 <pango_tab_align_get_type+0x1bb0>
   10796:	48 8d 35 9b c8 01 00 	lea    0x1c89b(%rip),%rsi        # 2d038 <pango_tab_align_get_type+0x1818>
   1079d:	48 8d 3d b2 c7 01 00 	lea    0x1c7b2(%rip),%rdi        # 2cf56 <pango_tab_align_get_type+0x1736>
   107a4:	ba db 06 00 00       	mov    $0x6db,%edx
   107a9:	e8 02 cf ff ff       	callq  d6b0 <g_assertion_message_expr@plt>
   107ae:	4d 85 c9             	test   %r9,%r9
   107b1:	74 0c                	je     107bf <pango_find_paragraph_boundary+0x16f>
   107b3:	4d 85 e4             	test   %r12,%r12
   107b6:	41 0f 95 c2          	setne  %r10b
   107ba:	e9 75 ff ff ff       	jmpq   10734 <pango_find_paragraph_boundary+0xe4>
   107bf:	4c 8d 05 06 c8 01 00 	lea    0x1c806(%rip),%r8        # 2cfcc <pango_tab_align_get_type+0x17ac>
   107c6:	48 8d 0d 03 cc 01 00 	lea    0x1cc03(%rip),%rcx        # 2d3d0 <pango_tab_align_get_type+0x1bb0>
   107cd:	48 8d 35 64 c8 01 00 	lea    0x1c864(%rip),%rsi        # 2d038 <pango_tab_align_get_type+0x1818>
   107d4:	48 8d 3d 7b c7 01 00 	lea    0x1c77b(%rip),%rdi        # 2cf56 <pango_tab_align_get_type+0x1736>
   107db:	ba e4 06 00 00       	mov    $0x6e4,%edx
   107e0:	e8 cb ce ff ff       	callq  d6b0 <g_assertion_message_expr@plt>
   107e5:	66 66 2e 0f 1f 84 00 	data32 nopw %cs:0x0(%rax,%rax,1)
   107ec:	00 00 00 00 

00000000000107f0 <pango_get_log_attrs>:
   107f0:	41 57                	push   %r15
   107f2:	31 c0                	xor    %eax,%eax
   107f4:	41 56                	push   %r14
   107f6:	41 55                	push   %r13
   107f8:	41 54                	push   %r12
   107fa:	55                   	push   %rbp
   107fb:	48 89 fd             	mov    %rdi,%rbp
   107fe:	53                   	push   %rbx
   107ff:	48 89 cb             	mov    %rcx,%rbx
   10802:	b9 06 00 00 00       	mov    $0x6,%ecx
   10807:	48 81 ec c8 04 00 00 	sub    $0x4c8,%rsp
   1080e:	85 f6                	test   %esi,%esi
   10810:	48 8d 7c 24 60       	lea    0x60(%rsp),%rdi
   10815:	89 74 24 20          	mov    %esi,0x20(%rsp)
   10819:	4c 89 44 24 10       	mov    %r8,0x10(%rsp)
   1081e:	44 89 4c 24 24       	mov    %r9d,0x24(%rsp)
   10823:	48 89 7c 24 18       	mov    %rdi,0x18(%rsp)
   10828:	f3 48 ab             	rep stos %rax,%es:(%rdi)
   1082b:	74 33                	je     10860 <pango_get_log_attrs+0x70>
   1082d:	48 85 ed             	test   %rbp,%rbp
   10830:	75 2e                	jne    10860 <pango_get_log_attrs+0x70>
   10832:	48 8d 15 2b c7 01 00 	lea    0x1c72b(%rip),%rdx        # 2cf64 <pango_tab_align_get_type+0x1744>
   10839:	48 8d 35 70 cb 01 00 	lea    0x1cb70(%rip),%rsi        # 2d3b0 <pango_tab_align_get_type+0x1b90>
   10840:	48 8d 3d 0f c7 01 00 	lea    0x1c70f(%rip),%rdi        # 2cf56 <pango_tab_align_get_type+0x1736>
   10847:	e8 a4 ce ff ff       	callq  d6f0 <g_return_if_fail_warning@plt>
   1084c:	48 81 c4 c8 04 00 00 	add    $0x4c8,%rsp
   10853:	5b                   	pop    %rbx
   10854:	5d                   	pop    %rbp
   10855:	41 5c                	pop    %r12
   10857:	41 5d                	pop    %r13
   10859:	41 5e                	pop    %r14
   1085b:	41 5f                	pop    %r15
   1085d:	c3                   	retq   
   1085e:	66 90                	xchg   %ax,%ax
   10860:	48 83 7c 24 10 00    	cmpq   $0x0,0x10(%rsp)
   10866:	0f 84 fb 00 00 00    	je     10967 <pango_get_log_attrs+0x177>
   1086c:	88 54 24 78          	mov    %dl,0x78(%rsp)
   10870:	44 8b 44 24 24       	mov    0x24(%rsp),%r8d
   10875:	48 89 ef             	mov    %rbp,%rdi
   10878:	48 8b 4c 24 10       	mov    0x10(%rsp),%rcx
   1087d:	48 8b 54 24 18       	mov    0x18(%rsp),%rdx
   10882:	8b 74 24 20          	mov    0x20(%rsp),%esi
   10886:	e8 d5 e6 ff ff       	callq  ef60 <pango_default_break>
   1088b:	8b 05 b7 c0 23 00    	mov    0x23c0b7(%rip),%eax        # 24c948 <pango_tab_align_get_type+0x221128>
   10891:	85 c0                	test   %eax,%eax
   10893:	0f 84 b7 00 00 00    	je     10950 <pango_get_log_attrs+0x160>
   10899:	8b 15 a5 c0 23 00    	mov    0x23c0a5(%rip),%edx        # 24c944 <pango_tab_align_get_type+0x221124>
   1089f:	85 d2                	test   %edx,%edx
   108a1:	0f 84 89 00 00 00    	je     10930 <pango_get_log_attrs+0x140>
   108a7:	8b 35 9b c0 23 00    	mov    0x23c09b(%rip),%esi        # 24c948 <pango_tab_align_get_type+0x221128>
   108ad:	48 89 df             	mov    %rbx,%rdi
   108b0:	48 8d 9c 24 90 00 00 	lea    0x90(%rsp),%rbx
   108b7:	00 
   108b8:	4c 8d 6c 24 3c       	lea    0x3c(%rsp),%r13
   108bd:	e8 ae 50 00 00       	callq  15970 <pango_find_map>
   108c2:	8b 54 24 20          	mov    0x20(%rsp),%edx
   108c6:	48 89 ee             	mov    %rbp,%rsi
   108c9:	48 89 df             	mov    %rbx,%rdi
   108cc:	49 89 c6             	mov    %rax,%r14
   108cf:	e8 8c 86 01 00       	callq  28f60 <pango_script_iter_next+0x220>
   108d4:	48 8d 54 24 48       	lea    0x48(%rsp),%rdx
   108d9:	48 8d 74 24 40       	lea    0x40(%rsp),%rsi
   108de:	4c 89 e9             	mov    %r13,%rcx
   108e1:	48 89 df             	mov    %rbx,%rdi
   108e4:	e8 27 84 01 00       	callq  28d10 <pango_script_iter_get_range>
   108e9:	8b 74 24 3c          	mov    0x3c(%rsp),%esi
   108ed:	4c 89 f7             	mov    %r14,%rdi
   108f0:	e8 5b 4e 00 00       	callq  15750 <pango_map_get_engine>
   108f5:	49 89 c4             	mov    %rax,%r12
   108f8:	48 8b 44 24 40       	mov    0x40(%rsp),%rax
   108fd:	48 39 e8             	cmp    %rbp,%rax
   10900:	48 89 44 24 28       	mov    %rax,0x28(%rsp)
   10905:	74 7f                	je     10986 <pango_get_log_attrs+0x196>
   10907:	4c 8d 05 fa c6 01 00 	lea    0x1c6fa(%rip),%r8        # 2d008 <pango_tab_align_get_type+0x17e8>
   1090e:	48 8d 0d 9b ca 01 00 	lea    0x1ca9b(%rip),%rcx        # 2d3b0 <pango_tab_align_get_type+0x1b90>
   10915:	48 8d 35 1c c7 01 00 	lea    0x1c71c(%rip),%rsi        # 2d038 <pango_tab_align_get_type+0x1818>
   1091c:	48 8d 3d 33 c6 01 00 	lea    0x1c633(%rip),%rdi        # 2cf56 <pango_tab_align_get_type+0x1736>
   10923:	ba 5a 07 00 00       	mov    $0x75a,%edx
   10928:	e8 83 cd ff ff       	callq  d6b0 <g_assertion_message_expr@plt>
   1092d:	0f 1f 00             	nopl   (%rax)
   10930:	48 8d 3d af c6 01 00 	lea    0x1c6af(%rip),%rdi        # 2cfe6 <pango_tab_align_get_type+0x17c6>
   10937:	e8 64 ce ff ff       	callq  d7a0 <g_quark_from_static_string@plt>
   1093c:	89 05 02 c0 23 00    	mov    %eax,0x23c002(%rip)        # 24c944 <pango_tab_align_get_type+0x221124>
   10942:	89 c2                	mov    %eax,%edx
   10944:	e9 5e ff ff ff       	jmpq   108a7 <pango_get_log_attrs+0xb7>
   10949:	0f 1f 80 00 00 00 00 	nopl   0x0(%rax)
   10950:	48 8d 3d 7f c6 01 00 	lea    0x1c67f(%rip),%rdi        # 2cfd6 <pango_tab_align_get_type+0x17b6>
   10957:	e8 44 ce ff ff       	callq  d7a0 <g_quark_from_static_string@plt>
   1095c:	89 05 e6 bf 23 00    	mov    %eax,0x23bfe6(%rip)        # 24c948 <pango_tab_align_get_type+0x221128>
   10962:	e9 32 ff ff ff       	jmpq   10899 <pango_get_log_attrs+0xa9>
   10967:	48 8d 15 88 c6 01 00 	lea    0x1c688(%rip),%rdx        # 2cff6 <pango_tab_align_get_type+0x17d6>
   1096e:	48 8d 35 3b ca 01 00 	lea    0x1ca3b(%rip),%rsi        # 2d3b0 <pango_tab_align_get_type+0x1b90>
   10975:	48 8d 3d da c5 01 00 	lea    0x1c5da(%rip),%rdi        # 2cf56 <pango_tab_align_get_type+0x1736>
   1097c:	e8 6f cd ff ff       	callq  d6f0 <g_return_if_fail_warning@plt>
   10981:	e9 c6 fe ff ff       	jmpq   1084c <pango_get_log_attrs+0x5c>
   10986:	48 8d 44 24 58       	lea    0x58(%rsp),%rax
   1098b:	48 89 df             	mov    %rbx,%rdi
   1098e:	31 ed                	xor    %ebp,%ebp
   10990:	48 89 04 24          	mov    %rax,(%rsp)
   10994:	48 8d 44 24 50       	lea    0x50(%rsp),%rax
   10999:	48 89 44 24 08       	mov    %rax,0x8(%rsp)
   1099e:	e8 9d 83 01 00       	callq  28d40 <pango_script_iter_next>
   109a3:	85 c0                	test   %eax,%eax
   109a5:	0f 84 a4 00 00 00    	je     10a4f <pango_get_log_attrs+0x25f>
   109ab:	0f 1f 44 00 00       	nopl   0x0(%rax,%rax,1)
   109b0:	48 8b 14 24          	mov    (%rsp),%rdx
   109b4:	48 8b 74 24 08       	mov    0x8(%rsp),%rsi
   109b9:	4c 89 e9             	mov    %r13,%rcx
   109bc:	48 89 df             	mov    %rbx,%rdi
   109bf:	e8 4c 83 01 00       	callq  28d10 <pango_script_iter_get_range>
   109c4:	8b 74 24 3c          	mov    0x3c(%rsp),%esi
   109c8:	4c 89 f7             	mov    %r14,%rdi
   109cb:	e8 80 4d 00 00       	callq  15750 <pango_map_get_engine>
   109d0:	48 8b 74 24 48       	mov    0x48(%rsp),%rsi
   109d5:	48 3b 74 24 50       	cmp    0x50(%rsp),%rsi
   109da:	49 89 c7             	mov    %rax,%r15
   109dd:	74 29                	je     10a08 <pango_get_log_attrs+0x218>
   109df:	4c 8d 05 36 c6 01 00 	lea    0x1c636(%rip),%r8        # 2d01c <pango_tab_align_get_type+0x17fc>
   109e6:	48 8d 0d c3 c9 01 00 	lea    0x1c9c3(%rip),%rcx        # 2d3b0 <pango_tab_align_get_type+0x1b90>
   109ed:	48 8d 35 44 c6 01 00 	lea    0x1c644(%rip),%rsi        # 2d038 <pango_tab_align_get_type+0x1818>
   109f4:	48 8d 3d 5b c5 01 00 	lea    0x1c55b(%rip),%rdi        # 2cf56 <pango_tab_align_get_type+0x1736>
   109fb:	ba 63 07 00 00       	mov    $0x763,%edx
   10a00:	e8 ab cc ff ff       	callq  d6b0 <g_assertion_message_expr@plt>
   10a05:	0f 1f 00             	nopl   (%rax)
   10a08:	49 39 c4             	cmp    %rax,%r12
   10a0b:	74 25                	je     10a32 <pango_get_log_attrs+0x242>
   10a0d:	4c 8b 4c 24 10       	mov    0x10(%rsp),%r9
   10a12:	4c 8b 44 24 18       	mov    0x18(%rsp),%r8
   10a17:	89 e9                	mov    %ebp,%ecx
   10a19:	48 8b 7c 24 40       	mov    0x40(%rsp),%rdi
   10a1e:	4c 89 e2             	mov    %r12,%rdx
   10a21:	e8 8a e3 ff ff       	callq  edb0 <g_unichar_isspace@plt+0xf70>
   10a26:	01 c5                	add    %eax,%ebp
   10a28:	48 8b 44 24 50       	mov    0x50(%rsp),%rax
   10a2d:	48 89 44 24 40       	mov    %rax,0x40(%rsp)
   10a32:	48 8b 44 24 58       	mov    0x58(%rsp),%rax
   10a37:	48 89 df             	mov    %rbx,%rdi
   10a3a:	4d 89 fc             	mov    %r15,%r12
   10a3d:	48 89 44 24 48       	mov    %rax,0x48(%rsp)
   10a42:	e8 f9 82 01 00       	callq  28d40 <pango_script_iter_next>
   10a47:	85 c0                	test   %eax,%eax
   10a49:	0f 85 61 ff ff ff    	jne    109b0 <pango_get_log_attrs+0x1c0>
   10a4f:	48 89 df             	mov    %rbx,%rdi
   10a52:	e8 89 82 01 00       	callq  28ce0 <pango_script_for_unichar+0x10>
   10a57:	8b 44 24 20          	mov    0x20(%rsp),%eax
   10a5b:	85 c0                	test   %eax,%eax
   10a5d:	78 39                	js     10a98 <pango_get_log_attrs+0x2a8>
   10a5f:	48 63 f0             	movslq %eax,%rsi
   10a62:	48 03 74 24 28       	add    0x28(%rsp),%rsi
   10a67:	48 3b 74 24 48       	cmp    0x48(%rsp),%rsi
   10a6c:	74 2f                	je     10a9d <pango_get_log_attrs+0x2ad>
   10a6e:	4c 8d 05 d3 c6 01 00 	lea    0x1c6d3(%rip),%r8        # 2d148 <pango_tab_align_get_type+0x1928>
   10a75:	48 8d 0d 34 c9 01 00 	lea    0x1c934(%rip),%rcx        # 2d3b0 <pango_tab_align_get_type+0x1b90>
   10a7c:	48 8d 35 b5 c5 01 00 	lea    0x1c5b5(%rip),%rsi        # 2d038 <pango_tab_align_get_type+0x1818>
   10a83:	48 8d 3d cc c4 01 00 	lea    0x1c4cc(%rip),%rdi        # 2cf56 <pango_tab_align_get_type+0x1736>
   10a8a:	ba 73 07 00 00       	mov    $0x773,%edx
   10a8f:	e8 1c cc ff ff       	callq  d6b0 <g_assertion_message_expr@plt>
   10a94:	0f 1f 40 00          	nopl   0x0(%rax)
   10a98:	48 8b 74 24 48       	mov    0x48(%rsp),%rsi
   10a9d:	4c 8b 4c 24 10       	mov    0x10(%rsp),%r9
   10aa2:	4c 8b 44 24 18       	mov    0x18(%rsp),%r8
   10aa7:	89 e9                	mov    %ebp,%ecx
   10aa9:	48 8b 7c 24 40       	mov    0x40(%rsp),%rdi
   10aae:	4c 89 e2             	mov    %r12,%rdx
   10ab1:	e8 fa e2 ff ff       	callq  edb0 <g_unichar_isspace@plt+0xf70>
   10ab6:	01 c5                	add    %eax,%ebp
   10ab8:	39 6c 24 24          	cmp    %ebp,0x24(%rsp)
   10abc:	0f 8f 8a fd ff ff    	jg     1084c <pango_get_log_attrs+0x5c>
   10ac2:	44 8b 44 24 24       	mov    0x24(%rsp),%r8d
   10ac7:	8d 4d 01             	lea    0x1(%rbp),%ecx
   10aca:	48 8d 15 0f c6 01 00 	lea    0x1c60f(%rip),%rdx        # 2d0e0 <pango_tab_align_get_type+0x18c0>
   10ad1:	48 8d 3d 7e c4 01 00 	lea    0x1c47e(%rip),%rdi        # 2cf56 <pango_tab_align_get_type+0x1736>
   10ad8:	be 10 00 00 00       	mov    $0x10,%esi
   10add:	31 c0                	xor    %eax,%eax
   10adf:	e8 8c cf ff ff       	callq  da70 <g_log@plt>
   10ae4:	e9 63 fd ff ff       	jmpq   1084c <pango_get_log_attrs+0x5c>
   10ae9:	0f 1f 80 00 00 00 00 	nopl   0x0(%rax)
   10af0:	48 8b 07             	mov    (%rdi),%rax
   10af3:	8b 77 1c             	mov    0x1c(%rdi),%esi
   10af6:	48 8b 50 08          	mov    0x8(%rax),%rdx
   10afa:	8b 47 10             	mov    0x10(%rdi),%eax
   10afd:	39 f0                	cmp    %esi,%eax
   10aff:	7c 3f                	jl     10b40 <pango_get_log_attrs+0x350>
   10b01:	7e 72                	jle    10b75 <pango_get_log_attrs+0x385>
   10b03:	48 8b 7a 08          	mov    0x8(%rdx),%rdi
   10b07:	48 63 d0             	movslq %eax,%rdx
   10b0a:	83 e8 01             	sub    $0x1,%eax
   10b0d:	48 8d 0c 92          	lea    (%rdx,%rdx,4),%rcx
   10b11:	29 f0                	sub    %esi,%eax
   10b13:	48 8d 04 80          	lea    (%rax,%rax,4),%rax
   10b17:	48 c1 e1 02          	shl    $0x2,%rcx
   10b1b:	48 8d 54 0f 04       	lea    0x4(%rdi,%rcx,1),%rdx
   10b20:	48 8d 4c 0f f0       	lea    -0x10(%rdi,%rcx,1),%rcx
   10b25:	48 c1 e0 02          	shl    $0x2,%rax
   10b29:	48 29 c1             	sub    %rax,%rcx
   10b2c:	31 c0                	xor    %eax,%eax
   10b2e:	66 90                	xchg   %ax,%ax
   10b30:	03 02                	add    (%rdx),%eax
   10b32:	48 83 ea 14          	sub    $0x14,%rdx
   10b36:	48 39 ca             	cmp    %rcx,%rdx
   10b39:	75 f5                	jne    10b30 <pango_get_log_attrs+0x340>
   10b3b:	f3 c3                	repz retq 
   10b3d:	0f 1f 00             	nopl   (%rax)
   10b40:	83 ee 01             	sub    $0x1,%esi
   10b43:	48 8b 7a 08          	mov    0x8(%rdx),%rdi
   10b47:	48 63 c8             	movslq %eax,%rcx
   10b4a:	29 c6                	sub    %eax,%esi
   10b4c:	48 8d 14 89          	lea    (%rcx,%rcx,4),%rdx
   10b50:	48 01 f1             	add    %rsi,%rcx
   10b53:	48 8d 04 89          	lea    (%rcx,%rcx,4),%rax
   10b57:	48 8d 54 97 04       	lea    0x4(%rdi,%rdx,4),%rdx
   10b5c:	48 8d 4c 87 18       	lea    0x18(%rdi,%rax,4),%rcx
   10b61:	31 c0                	xor    %eax,%eax
   10b63:	0f 1f 44 00 00       	nopl   0x0(%rax,%rax,1)
   10b68:	03 02                	add    (%rdx),%eax
   10b6a:	48 83 c2 14          	add    $0x14,%rdx
   10b6e:	48 39 ca             	cmp    %rcx,%rdx
   10b71:	75 f5                	jne    10b68 <pango_get_log_attrs+0x378>
   10b73:	f3 c3                	repz retq 
   10b75:	31 c0                	xor    %eax,%eax
   10b77:	c3                   	retq   
   10b78:	0f 1f 84 00 00 00 00 	nopl   0x0(%rax,%rax,1)
   10b7f:	00 
   10b80:	55                   	push   %rbp
   10b81:	48 89 fd             	mov    %rdi,%rbp
   10b84:	48 89 f7             	mov    %rsi,%rdi
   10b87:	53                   	push   %rbx
   10b88:	48 89 f3             	mov    %rsi,%rbx
   10b8b:	48 83 ec 08          	sub    $0x8,%rsp
   10b8f:	e8 ec c2 00 00       	callq  1ce80 <pango_glyph_item_iter_next_cluster>
   10b94:	85 c0                	test   %eax,%eax
   10b96:	ba 01 00 00 00       	mov    $0x1,%edx
   10b9b:	75 37                	jne    10bd4 <pango_get_log_attrs+0x3e4>
   10b9d:	8b 4d 18             	mov    0x18(%rbp),%ecx
   10ba0:	8b 43 28             	mov    0x28(%rbx),%eax
   10ba3:	30 d2                	xor    %dl,%dl
   10ba5:	83 e9 01             	sub    $0x1,%ecx
   10ba8:	39 c8                	cmp    %ecx,%eax
   10baa:	74 28                	je     10bd4 <pango_get_log_attrs+0x3e4>
   10bac:	83 c0 01             	add    $0x1,%eax
   10baf:	48 8b 55 00          	mov    0x0(%rbp),%rdx
   10bb3:	48 89 df             	mov    %rbx,%rdi
   10bb6:	89 43 28             	mov    %eax,0x28(%rbx)
   10bb9:	48 98                	cltq   
   10bbb:	48 c1 e0 04          	shl    $0x4,%rax
   10bbf:	48 03 45 10          	add    0x10(%rbp),%rax
   10bc3:	48 8b 52 38          	mov    0x38(%rdx),%rdx
   10bc7:	48 8b 30             	mov    (%rax),%rsi
   10bca:	e8 91 c4 00 00       	callq  1d060 <pango_glyph_item_iter_init_start>
   10bcf:	ba 01 00 00 00       	mov    $0x1,%edx
   10bd4:	48 83 c4 08          	add    $0x8,%rsp
   10bd8:	89 d0                	mov    %edx,%eax
   10bda:	5b                   	pop    %rbx
   10bdb:	5d                   	pop    %rbp
   10bdc:	c3                   	retq   
   10bdd:	0f 1f 00             	nopl   (%rax)
   10be0:	41 55                	push   %r13
   10be2:	41 89 f5             	mov    %esi,%r13d
   10be5:	41 54                	push   %r12
   10be7:	55                   	push   %rbp
   10be8:	53                   	push   %rbx
   10be9:	48 89 fb             	mov    %rdi,%rbx
   10bec:	48 83 ec 18          	sub    $0x18,%rsp
   10bf0:	4c 8d 64 24 0c       	lea    0xc(%rsp),%r12
   10bf5:	48 8d 6c 24 08       	lea    0x8(%rsp),%rbp
   10bfa:	eb 10                	jmp    10c0c <pango_get_log_attrs+0x41c>
   10bfc:	0f 1f 40 00          	nopl   0x0(%rax)
   10c00:	48 89 df             	mov    %rbx,%rdi
   10c03:	e8 b8 67 00 00       	callq  173c0 <pango_attr_iterator_next>
   10c08:	85 c0                	test   %eax,%eax
   10c0a:	74 15                	je     10c21 <pango_get_log_attrs+0x431>
   10c0c:	4c 89 e2             	mov    %r12,%rdx
   10c0f:	48 89 ee             	mov    %rbp,%rsi
   10c12:	48 89 df             	mov    %rbx,%rdi
   10c15:	e8 46 67 00 00       	callq  17360 <pango_attr_iterator_range>
   10c1a:	44 39 6c 24 0c       	cmp    %r13d,0xc(%rsp)
   10c1f:	7e df                	jle    10c00 <pango_get_log_attrs+0x410>
   10c21:	48 83 c4 18          	add    $0x18,%rsp
   10c25:	5b                   	pop    %rbx
   10c26:	5d                   	pop    %rbp
   10c27:	41 5c                	pop    %r12
   10c29:	41 5d                	pop    %r13
   10c2b:	c3                   	retq   
   10c2c:	0f 1f 40 00          	nopl   0x0(%rax)
   10c30:	48 63 c2             	movslq %edx,%rax
   10c33:	48 c1 e0 04          	shl    $0x4,%rax
   10c37:	48 03 47 10          	add    0x10(%rdi),%rax
   10c3b:	48 8b 08             	mov    (%rax),%rcx
   10c3e:	48 8b 09             	mov    (%rcx),%rcx
   10c41:	39 71 08             	cmp    %esi,0x8(%rcx)
   10c44:	74 22                	je     10c68 <pango_get_log_attrs+0x478>
   10c46:	48 8b 17             	mov    (%rdi),%rdx
   10c49:	03 70 08             	add    0x8(%rax),%esi
   10c4c:	48 8b 82 98 00 00 00 	mov    0x98(%rdx),%rax
   10c53:	48 63 f6             	movslq %esi,%rsi
   10c56:	0f b6 44 b0 04       	movzbl 0x4(%rax,%rsi,4),%eax
   10c5b:	c0 e8 04             	shr    $0x4,%al
   10c5e:	83 e0 01             	and    $0x1,%eax
   10c61:	c3                   	retq   
   10c62:	66 0f 1f 44 00 00    	nopw   0x0(%rax,%rax,1)
   10c68:	8b 4f 18             	mov    0x18(%rdi),%ecx
   10c6b:	83 e9 01             	sub    $0x1,%ecx
   10c6e:	39 d1                	cmp    %edx,%ecx
   10c70:	75 d4                	jne    10c46 <pango_get_log_attrs+0x456>
   10c72:	b8 01 00 00 00       	mov    $0x1,%eax
   10c77:	c3                   	retq   
   10c78:	0f 1f 84 00 00 00 00 	nopl   0x0(%rax,%rax,1)
   10c7f:	00 
   10c80:	48 85 ff             	test   %rdi,%rdi
   10c83:	75 05                	jne    10c8a <pango_get_log_attrs+0x49a>
   10c85:	48 85 f6             	test   %rsi,%rsi
   10c88:	75 56                	jne    10ce0 <pango_get_log_attrs+0x4f0>
   10c8a:	48 85 f6             	test   %rsi,%rsi
   10c8d:	7e 79                	jle    10d08 <pango_get_log_attrs+0x518>
   10c8f:	48 8b 05 4a b3 23 00 	mov    0x23b34a(%rip),%rax        # 24bfe0 <pango_tab_align_get_type+0x2207c0>
   10c96:	4c 8b 00             	mov    (%rax),%r8
   10c99:	0f b6 07             	movzbl (%rdi),%eax
   10c9c:	49 0f be 14 00       	movsbq (%r8,%rax,1),%rdx
   10ca1:	31 c0                	xor    %eax,%eax
   10ca3:	48 01 fa             	add    %rdi,%rdx
   10ca6:	48 89 d1             	mov    %rdx,%rcx
   10ca9:	48 29 f9             	sub    %rdi,%rcx
   10cac:	48 39 ce             	cmp    %rcx,%rsi
   10caf:	7e 21                	jle    10cd2 <pango_get_log_attrs+0x4e2>
   10cb1:	0f 1f 80 00 00 00 00 	nopl   0x0(%rax)
   10cb8:	0f b6 0a             	movzbl (%rdx),%ecx
   10cbb:	48 83 c0 01          	add    $0x1,%rax
   10cbf:	49 0f be 0c 08       	movsbq (%r8,%rcx,1),%rcx
   10cc4:	48 01 ca             	add    %rcx,%rdx
   10cc7:	48 89 d1             	mov    %rdx,%rcx
   10cca:	48 29 f9             	sub    %rdi,%rcx
   10ccd:	48 39 ce             	cmp    %rcx,%rsi
   10cd0:	7f e6                	jg     10cb8 <pango_get_log_attrs+0x4c8>
   10cd2:	31 d2                	xor    %edx,%edx
   10cd4:	48 39 f1             	cmp    %rsi,%rcx
   10cd7:	0f 9e c2             	setle  %dl
   10cda:	48 01 d0             	add    %rdx,%rax
   10cdd:	c3                   	retq   
   10cde:	66 90                	xchg   %ax,%ax
   10ce0:	48 8d 15 59 c2 01 00 	lea    0x1c259(%rip),%rdx        # 2cf40 <pango_tab_align_get_type+0x1720>
   10ce7:	48 8d 35 c2 d0 01 00 	lea    0x1d0c2(%rip),%rsi        # 2ddb0 <pango_tab_align_get_type+0x2590>
   10cee:	48 8d 3d 61 c2 01 00 	lea    0x1c261(%rip),%rdi        # 2cf56 <pango_tab_align_get_type+0x1736>
   10cf5:	48 83 ec 08          	sub    $0x8,%rsp
   10cf9:	e8 f2 c9 ff ff       	callq  d6f0 <g_return_if_fail_warning@plt>
   10cfe:	31 c0                	xor    %eax,%eax
   10d00:	48 83 c4 08          	add    $0x8,%rsp
   10d04:	c3                   	retq   
   10d05:	0f 1f 00             	nopl   (%rax)
   10d08:	e9 c3 c9 ff ff       	jmpq   d6d0 <g_utf8_strlen@plt>
   10d0d:	0f 1f 00             	nopl   (%rax)
   10d10:	41 54                	push   %r12
   10d12:	49 89 fc             	mov    %rdi,%r12
   10d15:	48 89 d7             	mov    %rdx,%rdi
   10d18:	55                   	push   %rbp
   10d19:	48 89 f5             	mov    %rsi,%rbp
   10d1c:	53                   	push   %rbx
   10d1d:	48 89 d3             	mov    %rdx,%rbx
   10d20:	e8 3b c2 00 00       	callq  1cf60 <pango_glyph_item_iter_prev_cluster>
   10d25:	85 c0                	test   %eax,%eax
   10d27:	ba 01 00 00 00       	mov    $0x1,%edx
   10d2c:	75 09                	jne    10d37 <pango_get_log_attrs+0x547>
   10d2e:	8b 43 28             	mov    0x28(%rbx),%eax
   10d31:	30 d2                	xor    %dl,%dl
   10d33:	85 c0                	test   %eax,%eax
   10d35:	75 09                	jne    10d40 <pango_get_log_attrs+0x550>
   10d37:	5b                   	pop    %rbx
   10d38:	5d                   	pop    %rbp
   10d39:	89 d0                	mov    %edx,%eax
   10d3b:	41 5c                	pop    %r12
   10d3d:	c3                   	retq   
   10d3e:	66 90                	xchg   %ax,%ax
   10d40:	83 e8 01             	sub    $0x1,%eax
   10d43:	49 8b 14 24          	mov    (%r12),%rdx
   10d47:	48 89 df             	mov    %rbx,%rdi
   10d4a:	89 43 28             	mov    %eax,0x28(%rbx)
   10d4d:	48 98                	cltq   
   10d4f:	48 c1 e0 04          	shl    $0x4,%rax
   10d53:	48 03 45 00          	add    0x0(%rbp),%rax
   10d57:	48 8b 52 38          	mov    0x38(%rdx),%rdx
   10d5b:	48 8b 30             	mov    (%rax),%rsi
   10d5e:	e8 4d c3 00 00       	callq  1d0b0 <pango_glyph_item_iter_init_end>
   10d63:	5b                   	pop    %rbx
   10d64:	ba 01 00 00 00       	mov    $0x1,%edx
   10d69:	5d                   	pop    %rbp
   10d6a:	89 d0                	mov    %edx,%eax
   10d6c:	41 5c                	pop    %r12
   10d6e:	c3                   	retq   
   10d6f:	90                   	nop
   10d70:	41 54                	push   %r12
   10d72:	49 89 fc             	mov    %rdi,%r12
   10d75:	48 89 f7             	mov    %rsi,%rdi
   10d78:	55                   	push   %rbp
   10d79:	48 89 d5             	mov    %rdx,%rbp
   10d7c:	53                   	push   %rbx
   10d7d:	48 89 f3             	mov    %rsi,%rbx
   10d80:	e8 4b c8 ff ff       	callq  d5d0 <strlen@plt>
   10d85:	49 8b 7c 24 18       	mov    0x18(%r12),%rdi
   10d8a:	45 31 c9             	xor    %r9d,%r9d
   10d8d:	31 d2                	xor    %edx,%edx
   10d8f:	48 89 de             	mov    %rbx,%rsi
   10d92:	49 89 e8             	mov    %rbp,%r8
   10d95:	89 c1                	mov    %eax,%ecx
   10d97:	e8 34 95 00 00       	callq  1a2d0 <pango_itemize>
   10d9c:	48 89 c7             	mov    %rax,%rdi
   10d9f:	48 89 c3             	mov    %rax,%rbx
   10da2:	e8 79 c8 ff ff       	callq  d620 <g_list_length@plt>
   10da7:	83 f8 01             	cmp    $0x1,%eax
   10daa:	74 2c                	je     10dd8 <pango_get_log_attrs+0x5e8>
   10dac:	4c 8d 05 21 cf 01 00 	lea    0x1cf21(%rip),%r8        # 2dcd4 <pango_tab_align_get_type+0x24b4>
   10db3:	48 8d 0d c6 cf 01 00 	lea    0x1cfc6(%rip),%rcx        # 2dd80 <pango_tab_align_get_type+0x2560>
   10dba:	48 8d 35 3f cf 01 00 	lea    0x1cf3f(%rip),%rsi        # 2dd00 <pango_tab_align_get_type+0x24e0>
   10dc1:	48 8d 3d 8e c1 01 00 	lea    0x1c18e(%rip),%rdi        # 2cf56 <pango_tab_align_get_type+0x1736>
   10dc8:	ba 17 01 00 00       	mov    $0x117,%edx
   10dcd:	e8 de c8 ff ff       	callq  d6b0 <g_assertion_message_expr@plt>
   10dd2:	66 0f 1f 44 00 00    	nopw   0x0(%rax,%rax,1)
   10dd8:	48 8b 2b             	mov    (%rbx),%rbp
   10ddb:	48 89 df             	mov    %rbx,%rdi
   10dde:	e8 3d cd ff ff       	callq  db20 <g_list_free@plt>
   10de3:	5b                   	pop    %rbx
   10de4:	48 89 e8             	mov    %rbp,%rax
   10de7:	5d                   	pop    %rbp
   10de8:	41 5c                	pop    %r12
   10dea:	c3                   	retq   
   10deb:	0f 1f 44 00 00       	nopl   0x0(%rax,%rax,1)
   10df0:	41 57                	push   %r15
   10df2:	41 56                	push   %r14
   10df4:	41 55                	push   %r13
   10df6:	41 54                	push   %r12
   10df8:	55                   	push   %rbp
   10df9:	48 89 fd             	mov    %rdi,%rbp
   10dfc:	53                   	push   %rbx
   10dfd:	48 83 ec 18          	sub    $0x18,%rsp
   10e01:	48 83 7f 38 00       	cmpq   $0x0,0x38(%rdi)
   10e06:	0f 84 44 02 00 00    	je     11050 <pango_get_log_attrs+0x860>
   10e0c:	48 8b 7d 78          	mov    0x78(%rbp),%rdi
   10e10:	48 85 ff             	test   %rdi,%rdi
   10e13:	74 54                	je     10e69 <pango_get_log_attrs+0x679>
   10e15:	48 8d 54 24 0c       	lea    0xc(%rsp),%rdx
   10e1a:	48 8d 74 24 08       	lea    0x8(%rsp),%rsi
   10e1f:	e8 3c 65 00 00       	callq  17360 <pango_attr_iterator_range>
   10e24:	8b 45 54             	mov    0x54(%rbp),%eax
   10e27:	3b 44 24 08          	cmp    0x8(%rsp),%eax
   10e2b:	7c 2b                	jl     10e58 <pango_get_log_attrs+0x668>
   10e2d:	48 83 7d 78 00       	cmpq   $0x0,0x78(%rbp)
   10e32:	74 35                	je     10e69 <pango_get_log_attrs+0x679>
   10e34:	48 8b 55 00          	mov    0x0(%rbp),%rdx
   10e38:	48 63 f8             	movslq %eax,%rdi
   10e3b:	48 03 7a 38          	add    0x38(%rdx),%rdi
   10e3f:	e8 4c c9 ff ff       	callq  d790 <g_utf8_get_char@plt>
   10e44:	89 c7                	mov    %eax,%edi
   10e46:	e8 a5 ce ff ff       	callq  dcf0 <g_unichar_iswide@plt>
   10e4b:	39 45 34             	cmp    %eax,0x34(%rbp)
   10e4e:	75 5f                	jne    10eaf <pango_get_log_attrs+0x6bf>
   10e50:	e9 ad 01 00 00       	jmpq   11002 <pango_get_log_attrs+0x812>
   10e55:	0f 1f 00             	nopl   (%rax)
   10e58:	48 8b 7d 78          	mov    0x78(%rbp),%rdi
   10e5c:	e8 9f 67 00 00       	callq  17600 <pango_attr_iterator_destroy>
   10e61:	48 c7 45 78 00 00 00 	movq   $0x0,0x78(%rbp)
   10e68:	00 
   10e69:	48 8b 7d 38          	mov    0x38(%rbp),%rdi
   10e6d:	e8 1e 67 00 00       	callq  17590 <pango_attr_iterator_copy>
   10e72:	48 63 55 68          	movslq 0x68(%rbp),%rdx
   10e76:	48 89 c7             	mov    %rax,%rdi
   10e79:	48 89 45 78          	mov    %rax,0x78(%rbp)
   10e7d:	48 c1 e2 04          	shl    $0x4,%rdx
   10e81:	48 03 55 10          	add    0x10(%rbp),%rdx
   10e85:	48 8b 12             	mov    (%rdx),%rdx
   10e88:	48 8b 12             	mov    (%rdx),%rdx
   10e8b:	8b 32                	mov    (%rdx),%esi
   10e8d:	e8 4e fd ff ff       	callq  10be0 <pango_get_log_attrs+0x3f0>
   10e92:	48 8b 45 00          	mov    0x0(%rbp),%rax
   10e96:	48 63 7d 54          	movslq 0x54(%rbp),%rdi
   10e9a:	48 03 78 38          	add    0x38(%rax),%rdi
   10e9e:	e8 ed c8 ff ff       	callq  d790 <g_utf8_get_char@plt>
   10ea3:	89 c7                	mov    %eax,%edi
   10ea5:	e8 46 ce ff ff       	callq  dcf0 <g_unichar_iswide@plt>
   10eaa:	39 45 34             	cmp    %eax,0x34(%rbp)
   10ead:	74 03                	je     10eb2 <pango_get_log_attrs+0x6c2>
   10eaf:	89 45 34             	mov    %eax,0x34(%rbp)
   10eb2:	e8 99 5e 00 00       	callq  16d50 <pango_attr_list_new>
   10eb7:	49 89 c4             	mov    %rax,%r12
   10eba:	48 8b 45 28          	mov    0x28(%rbp),%rax
   10ebe:	48 85 c0             	test   %rax,%rax
   10ec1:	0f 84 af 01 00 00    	je     11076 <pango_get_log_attrs+0x886>
   10ec7:	48 8b 38             	mov    (%rax),%rdi
   10eca:	48 85 ff             	test   %rdi,%rdi
   10ecd:	74 10                	je     10edf <pango_get_log_attrs+0x6ef>
   10ecf:	e8 fc c8 00 00       	callq  1d7d0 <pango_item_free>
   10ed4:	48 8b 45 28          	mov    0x28(%rbp),%rax
   10ed8:	48 c7 00 00 00 00 00 	movq   $0x0,(%rax)
   10edf:	48 8b 7d 78          	mov    0x78(%rbp),%rdi
   10ee3:	e8 28 6c 00 00       	callq  17b10 <pango_attr_iterator_get_attrs>
   10ee8:	48 85 c0             	test   %rax,%rax
   10eeb:	49 89 c5             	mov    %rax,%r13
   10eee:	48 89 c3             	mov    %rax,%rbx
   10ef1:	74 27                	je     10f1a <pango_get_log_attrs+0x72a>
   10ef3:	0f 1f 44 00 00       	nopl   0x0(%rax,%rax,1)
   10ef8:	48 8b 33             	mov    (%rbx),%rsi
   10efb:	4c 89 e7             	mov    %r12,%rdi
   10efe:	c7 46 08 00 00 00 00 	movl   $0x0,0x8(%rsi)
   10f05:	c7 46 0c ff ff ff 7f 	movl   $0x7fffffff,0xc(%rsi)
   10f0c:	e8 df 5e 00 00       	callq  16df0 <pango_attr_list_insert>
   10f11:	48 8b 5b 08          	mov    0x8(%rbx),%rbx
   10f15:	48 85 db             	test   %rbx,%rbx
   10f18:	75 de                	jne    10ef8 <pango_get_log_attrs+0x708>
   10f1a:	4c 89 ef             	mov    %r13,%rdi
   10f1d:	4c 8d 2d cf cd 01 00 	lea    0x1cdcf(%rip),%r13        # 2dcf3 <pango_tab_align_get_type+0x24d3>
   10f24:	e8 b7 c5 ff ff       	callq  d4e0 <g_slist_free@plt>
   10f29:	31 ff                	xor    %edi,%edi
   10f2b:	e8 d0 5a 00 00       	callq  16a00 <pango_attr_fallback_new>
   10f30:	4c 89 e7             	mov    %r12,%rdi
   10f33:	48 89 c6             	mov    %rax,%rsi
   10f36:	c7 40 08 00 00 00 00 	movl   $0x0,0x8(%rax)
   10f3d:	c7 40 0c ff ff ff 7f 	movl   $0x7fffffff,0xc(%rax)
   10f44:	49 89 c6             	mov    %rax,%r14
   10f47:	e8 a4 5e 00 00       	callq  16df0 <pango_attr_list_insert>
   10f4c:	8b 45 34             	mov    0x34(%rbp),%eax
   10f4f:	48 8b 7d 00          	mov    0x0(%rbp),%rdi
   10f53:	4c 89 e2             	mov    %r12,%rdx
   10f56:	85 c0                	test   %eax,%eax
   10f58:	48 8d 05 90 cd 01 00 	lea    0x1cd90(%rip),%rax        # 2dcef <pango_tab_align_get_type+0x24cf>
   10f5f:	4c 0f 45 e8          	cmovne %rax,%r13
   10f63:	4c 89 ee             	mov    %r13,%rsi
   10f66:	e8 05 fe ff ff       	callq  10d70 <pango_get_log_attrs+0x580>
   10f6b:	4c 8b 78 20          	mov    0x20(%rax),%r15
   10f6f:	48 89 c3             	mov    %rax,%rbx
   10f72:	4d 85 ff             	test   %r15,%r15
   10f75:	0f 84 9d 00 00 00    	je     11018 <pango_get_log_attrs+0x828>
   10f7b:	4c 89 ef             	mov    %r13,%rdi
   10f7e:	e8 0d c8 ff ff       	callq  d790 <g_utf8_get_char@plt>
   10f83:	48 8b 53 30          	mov    0x30(%rbx),%rdx
   10f87:	48 8b 7b 10          	mov    0x10(%rbx),%rdi
   10f8b:	89 c1                	mov    %eax,%ecx
   10f8d:	4c 89 fe             	mov    %r15,%rsi
   10f90:	e8 9b a7 00 00       	callq  1b730 <pango_engine_shape_get_type+0xc0>
   10f95:	85 c0                	test   %eax,%eax
   10f97:	74 7f                	je     11018 <pango_get_log_attrs+0x828>
   10f99:	4c 89 e7             	mov    %r12,%rdi
   10f9c:	e8 6f 50 00 00       	callq  16010 <pango_attr_list_unref>
   10fa1:	48 8b 45 28          	mov    0x28(%rbp),%rax
   10fa5:	48 8d 53 10          	lea    0x10(%rbx),%rdx
   10fa9:	be 03 00 00 00       	mov    $0x3,%esi
   10fae:	4c 89 ef             	mov    %r13,%rdi
   10fb1:	4c 8b 60 08          	mov    0x8(%rax),%r12
   10fb5:	48 89 18             	mov    %rbx,(%rax)
   10fb8:	4c 89 e1             	mov    %r12,%rcx
   10fbb:	e8 e0 a0 01 00       	callq  2b0a0 <pango_shape>
   10fc0:	41 8b 14 24          	mov    (%r12),%edx
   10fc4:	c7 45 30 00 00 00 00 	movl   $0x0,0x30(%rbp)
   10fcb:	85 d2                	test   %edx,%edx
   10fcd:	7e 33                	jle    11002 <pango_get_log_attrs+0x812>
   10fcf:	49 8b 4c 24 08       	mov    0x8(%r12),%rcx
   10fd4:	83 ea 01             	sub    $0x1,%edx
   10fd7:	48 8d 14 92          	lea    (%rdx,%rdx,4),%rdx
   10fdb:	48 8d 41 14          	lea    0x14(%rcx),%rax
   10fdf:	48 8d 34 90          	lea    (%rax,%rdx,4),%rsi
   10fe3:	31 d2                	xor    %edx,%edx
   10fe5:	eb 0d                	jmp    10ff4 <pango_get_log_attrs+0x804>
   10fe7:	66 0f 1f 84 00 00 00 	nopw   0x0(%rax,%rax,1)
   10fee:	00 00 
   10ff0:	48 83 c0 14          	add    $0x14,%rax
   10ff4:	03 51 04             	add    0x4(%rcx),%edx
   10ff7:	48 39 f0             	cmp    %rsi,%rax
   10ffa:	48 89 c1             	mov    %rax,%rcx
   10ffd:	75 f1                	jne    10ff0 <pango_get_log_attrs+0x800>
   10fff:	89 55 30             	mov    %edx,0x30(%rbp)
   11002:	48 83 c4 18          	add    $0x18,%rsp
   11006:	5b                   	pop    %rbx
   11007:	5d                   	pop    %rbp
   11008:	41 5c                	pop    %r12
   1100a:	41 5d                	pop    %r13
   1100c:	41 5e                	pop    %r14
   1100e:	41 5f                	pop    %r15
   11010:	c3                   	retq   
   11011:	0f 1f 80 00 00 00 00 	nopl   0x0(%rax)
   11018:	48 89 df             	mov    %rbx,%rdi
   1101b:	4c 8d 2d d5 cc 01 00 	lea    0x1ccd5(%rip),%r13        # 2dcf7 <pango_tab_align_get_type+0x24d7>
   11022:	e8 a9 c7 00 00       	callq  1d7d0 <pango_item_free>
   11027:	48 8b 7d 00          	mov    0x0(%rbp),%rdi
   1102b:	48 8d 35 c5 cc 01 00 	lea    0x1ccc5(%rip),%rsi        # 2dcf7 <pango_tab_align_get_type+0x24d7>
   11032:	41 c7 46 10 01 00 00 	movl   $0x1,0x10(%r14)
   11039:	00 
   1103a:	4c 89 e2             	mov    %r12,%rdx
   1103d:	e8 2e fd ff ff       	callq  10d70 <pango_get_log_attrs+0x580>
   11042:	48 89 c3             	mov    %rax,%rbx
   11045:	e9 4f ff ff ff       	jmpq   10f99 <pango_get_log_attrs+0x7a9>
   1104a:	66 0f 1f 44 00 00    	nopw   0x0(%rax,%rax,1)
   11050:	48 8b 7f 08          	mov    0x8(%rdi),%rdi
   11054:	e8 a7 64 00 00       	callq  17500 <pango_attr_list_get_iterator>
   11059:	48 8b 55 10          	mov    0x10(%rbp),%rdx
   1105d:	48 89 45 38          	mov    %rax,0x38(%rbp)
   11061:	48 89 c7             	mov    %rax,%rdi
   11064:	48 8b 12             	mov    (%rdx),%rdx
   11067:	48 8b 12             	mov    (%rdx),%rdx
   1106a:	8b 32                	mov    (%rdx),%esi
   1106c:	e8 6f fb ff ff       	callq  10be0 <pango_get_log_attrs+0x3f0>
   11071:	e9 96 fd ff ff       	jmpq   10e0c <pango_get_log_attrs+0x61c>
   11076:	bf 10 00 00 00       	mov    $0x10,%edi
   1107b:	e8 40 cd ff ff       	callq  ddc0 <g_slice_alloc@plt>
   11080:	48 89 c3             	mov    %rax,%rbx
   11083:	48 89 45 28          	mov    %rax,0x28(%rbp)
   11087:	e8 14 32 00 00       	callq  142a0 <pango_glyph_string_new>
   1108c:	48 89 43 08          	mov    %rax,0x8(%rbx)
   11090:	48 8b 45 28          	mov    0x28(%rbp),%rax
   11094:	48 c7 00 00 00 00 00 	movq   $0x0,(%rax)
   1109b:	e9 3f fe ff ff       	jmpq   10edf <pango_get_log_attrs+0x6ef>
   110a0:	41 57                	push   %r15
   110a2:	41 56                	push   %r14
   110a4:	41 55                	push   %r13
   110a6:	41 54                	push   %r12
   110a8:	55                   	push   %rbp
   110a9:	53                   	push   %rbx
   110aa:	48 81 ec 48 01 00 00 	sub    $0x148,%rsp
   110b1:	48 8b 07             	mov    (%rdi),%rax
   110b4:	48 89 7c 24 18       	mov    %rdi,0x18(%rsp)
   110b9:	89 54 24 14          	mov    %edx,0x14(%rsp)
   110bd:	f6 40 65 03          	testb  $0x3,0x65(%rax)
   110c1:	0f 84 19 01 00 00    	je     111e0 <pango_get_log_attrs+0x9f0>
   110c7:	85 d2                	test   %edx,%edx
   110c9:	0f 88 11 01 00 00    	js     111e0 <pango_get_log_attrs+0x9f0>
   110cf:	48 8b 5c 24 18       	mov    0x18(%rsp),%rbx
   110d4:	48 89 b4 24 88 00 00 	mov    %rsi,0x88(%rsp)
   110db:	00 
   110dc:	48 89 84 24 80 00 00 	mov    %rax,0x80(%rsp)
   110e3:	00 
   110e4:	48 8b 7b 10          	mov    0x10(%rbx),%rdi
   110e8:	e8 e3 c2 ff ff       	callq  d3d0 <g_slist_length@plt>
   110ed:	be 10 00 00 00       	mov    $0x10,%esi
   110f2:	48 63 f8             	movslq %eax,%rdi
   110f5:	89 84 24 98 00 00 00 	mov    %eax,0x98(%rsp)
   110fc:	e8 af c8 ff ff       	callq  d9b0 <g_malloc_n@plt>
   11101:	48 89 84 24 90 00 00 	mov    %rax,0x90(%rsp)
   11108:	00 
   11109:	48 8b 03             	mov    (%rbx),%rax
   1110c:	48 63 73 08          	movslq 0x8(%rbx),%rsi
   11110:	48 8b 78 38          	mov    0x38(%rax),%rdi
   11114:	e8 67 fb ff ff       	callq  10c80 <pango_get_log_attrs+0x490>
   11119:	48 8b 5b 10          	mov    0x10(%rbx),%rbx
   1111d:	41 89 c4             	mov    %eax,%r12d
   11120:	c7 84 24 9c 00 00 00 	movl   $0x0,0x9c(%rsp)
   11127:	00 00 00 00 
   1112b:	48 85 db             	test   %rbx,%rbx
   1112e:	0f 84 d4 08 00 00    	je     11a08 <pango_get_log_attrs+0x1218>
   11134:	45 31 ed             	xor    %r13d,%r13d
   11137:	66 0f 1f 84 00 00 00 	nopw   0x0(%rax,%rax,1)
   1113e:	00 00 
   11140:	48 8b 2b             	mov    (%rbx),%rbp
   11143:	48 8b 7d 08          	mov    0x8(%rbp),%rdi
   11147:	e8 44 35 00 00       	callq  14690 <pango_glyph_string_get_width>
   1114c:	48 8b 8c 24 90 00 00 	mov    0x90(%rsp),%rcx
   11153:	00 
   11154:	48 8b 5b 08          	mov    0x8(%rbx),%rbx
   11158:	4a 8d 14 29          	lea    (%rcx,%r13,1),%rdx
   1115c:	49 83 c5 10          	add    $0x10,%r13
   11160:	89 42 0c             	mov    %eax,0xc(%rdx)
   11163:	44 89 62 08          	mov    %r12d,0x8(%rdx)
   11167:	48 89 2a             	mov    %rbp,(%rdx)
   1116a:	03 84 24 9c 00 00 00 	add    0x9c(%rsp),%eax
   11171:	48 8b 55 00          	mov    0x0(%rbp),%rdx
   11175:	44 03 62 08          	add    0x8(%rdx),%r12d
   11179:	48 85 db             	test   %rbx,%rbx
   1117c:	89 84 24 9c 00 00 00 	mov    %eax,0x9c(%rsp)
   11183:	75 bb                	jne    11140 <pango_get_log_attrs+0x950>
   11185:	39 44 24 14          	cmp    %eax,0x14(%rsp)
   11189:	48 c7 84 24 a8 00 00 	movq   $0x0,0xa8(%rsp)
   11190:	00 00 00 00 00 
   11195:	c7 84 24 b4 00 00 00 	movl   $0x0,0xb4(%rsp)
   1119c:	00 00 00 00 
   111a0:	48 c7 84 24 b8 00 00 	movq   $0x0,0xb8(%rsp)
   111a7:	00 00 00 00 00 
   111ac:	48 c7 84 24 f8 00 00 	movq   $0x0,0xf8(%rsp)
   111b3:	00 00 00 00 00 
   111b8:	7c 56                	jl     11210 <pango_get_log_attrs+0xa20>
   111ba:	31 db                	xor    %ebx,%ebx
   111bc:	48 8b bc 24 f8 00 00 	mov    0xf8(%rsp),%rdi
   111c3:	00 
   111c4:	48 85 ff             	test   %rdi,%rdi
   111c7:	74 05                	je     111ce <pango_get_log_attrs+0x9de>
   111c9:	e8 32 64 00 00       	callq  17600 <pango_attr_iterator_destroy>
   111ce:	48 8b bc 24 90 00 00 	mov    0x90(%rsp),%rdi
   111d5:	00 
   111d6:	e8 45 c2 ff ff       	callq  d420 <g_free@plt>
   111db:	eb 1f                	jmp    111fc <pango_get_log_attrs+0xa0c>
   111dd:	0f 1f 00             	nopl   (%rax)
   111e0:	48 8d 15 51 cb 01 00 	lea    0x1cb51(%rip),%rdx        # 2dd38 <pango_tab_align_get_type+0x2518>
   111e7:	48 8d 35 e2 cb 01 00 	lea    0x1cbe2(%rip),%rsi        # 2ddd0 <pango_tab_align_get_type+0x25b0>
   111ee:	48 8d 3d 61 bd 01 00 	lea    0x1bd61(%rip),%rdi        # 2cf56 <pango_tab_align_get_type+0x1736>
   111f5:	31 db                	xor    %ebx,%ebx
   111f7:	e8 f4 c4 ff ff       	callq  d6f0 <g_return_if_fail_warning@plt>
   111fc:	48 81 c4 48 01 00 00 	add    $0x148,%rsp
   11203:	89 d8                	mov    %ebx,%eax
   11205:	5b                   	pop    %rbx
   11206:	5d                   	pop    %rbp
   11207:	41 5c                	pop    %r12
   11209:	41 5d                	pop    %r13
   1120b:	41 5e                	pop    %r14
   1120d:	41 5f                	pop    %r15
   1120f:	c3                   	retq   
   11210:	4c 8b 94 24 80 00 00 	mov    0x80(%rsp),%r10
   11217:	00 
   11218:	41 0f b6 52 65       	movzbl 0x65(%r10),%edx
   1121d:	83 e2 03             	and    $0x3,%edx
   11220:	83 fa 02             	cmp    $0x2,%edx
   11223:	0f 84 96 07 00 00    	je     119bf <pango_get_log_attrs+0x11cf>
   11229:	83 fa 03             	cmp    $0x3,%edx
   1122c:	74 2b                	je     11259 <pango_get_log_attrs+0xa69>
   1122e:	83 fa 01             	cmp    $0x1,%edx
   11231:	0f 84 78 07 00 00    	je     119af <pango_get_log_attrs+0x11bf>
   11237:	48 8d 0d 52 cb 01 00 	lea    0x1cb52(%rip),%rcx        # 2dd90 <pango_tab_align_get_type+0x2570>
   1123e:	48 8d 35 bb ca 01 00 	lea    0x1cabb(%rip),%rsi        # 2dd00 <pango_tab_align_get_type+0x24e0>
   11245:	48 8d 3d 0a bd 01 00 	lea    0x1bd0a(%rip),%rdi        # 2cf56 <pango_tab_align_get_type+0x1736>
   1124c:	45 31 c0             	xor    %r8d,%r8d
   1124f:	ba e1 01 00 00       	mov    $0x1e1,%edx
   11254:	e8 57 c4 ff ff       	callq  d6b0 <g_assertion_message_expr@plt>
   11259:	89 84 24 a0 00 00 00 	mov    %eax,0xa0(%rsp)
   11260:	8b bc 24 98 00 00 00 	mov    0x98(%rsp),%edi
   11267:	83 ff 00             	cmp    $0x0,%edi
   1126a:	0f 8e df 07 00 00    	jle    11a4f <pango_get_log_attrs+0x125f>
   11270:	8b 69 0c             	mov    0xc(%rcx),%ebp
   11273:	44 8b 8c 24 a0 00 00 	mov    0xa0(%rsp),%r9d
   1127a:	00 
   1127b:	41 39 e9             	cmp    %ebp,%r9d
   1127e:	0f 8c bf 07 00 00    	jl     11a43 <pango_get_log_attrs+0x1253>
   11284:	48 8d 41 10          	lea    0x10(%rcx),%rax
   11288:	31 d2                	xor    %edx,%edx
   1128a:	eb 17                	jmp    112a3 <pango_get_log_attrs+0xab3>
   1128c:	0f 1f 40 00          	nopl   0x0(%rax)
   11290:	8b 70 0c             	mov    0xc(%rax),%esi
   11293:	49 89 c0             	mov    %rax,%r8
   11296:	48 83 c0 10          	add    $0x10,%rax
   1129a:	01 ee                	add    %ebp,%esi
   1129c:	44 39 ce             	cmp    %r9d,%esi
   1129f:	7f 1a                	jg     112bb <pango_get_log_attrs+0xacb>
   112a1:	89 f5                	mov    %esi,%ebp
   112a3:	83 c2 01             	add    $0x1,%edx
   112a6:	39 fa                	cmp    %edi,%edx
   112a8:	75 e6                	jne    11290 <pango_get_log_attrs+0xaa0>
   112aa:	83 ea 01             	sub    $0x1,%edx
   112ad:	4c 63 c2             	movslq %edx,%r8
   112b0:	49 c1 e0 04          	shl    $0x4,%r8
   112b4:	49 01 c8             	add    %rcx,%r8
   112b7:	41 2b 68 0c          	sub    0xc(%r8),%ebp
   112bb:	48 8d 9c 24 80 00 00 	lea    0x80(%rsp),%rbx
   112c2:	00 
   112c3:	89 94 24 e8 00 00 00 	mov    %edx,0xe8(%rsp)
   112ca:	49 8b 30             	mov    (%r8),%rsi
   112cd:	49 8b 52 38          	mov    0x38(%r10),%rdx
   112d1:	4c 8d 6b 40          	lea    0x40(%rbx),%r13
   112d5:	4c 89 ef             	mov    %r13,%rdi
   112d8:	e8 83 bd 00 00       	callq  1d060 <pango_glyph_item_iter_init_start>
   112dd:	85 c0                	test   %eax,%eax
   112df:	75 22                	jne    11303 <pango_get_log_attrs+0xb13>
   112e1:	e9 b0 06 00 00       	jmpq   11996 <pango_get_log_attrs+0x11a6>
   112e6:	66 2e 0f 1f 84 00 00 	nopw   %cs:0x0(%rax,%rax,1)
   112ed:	00 00 00 
   112f0:	4c 89 ef             	mov    %r13,%rdi
   112f3:	e8 88 bb 00 00       	callq  1ce80 <pango_glyph_item_iter_next_cluster>
   112f8:	85 c0                	test   %eax,%eax
   112fa:	0f 84 9c 06 00 00    	je     1199c <pango_get_log_attrs+0x11ac>
   11300:	44 89 e5             	mov    %r12d,%ebp
   11303:	4c 89 ef             	mov    %r13,%rdi
   11306:	e8 e5 f7 ff ff       	callq  10af0 <pango_get_log_attrs+0x300>
   1130b:	44 8d 24 28          	lea    (%rax,%rbp,1),%r12d
   1130f:	44 3b a4 24 a0 00 00 	cmp    0xa0(%rsp),%r12d
   11316:	00 
   11317:	41 89 c6             	mov    %eax,%r14d
   1131a:	7e d4                	jle    112f0 <pango_get_log_attrs+0xb00>
   1131c:	48 8b 84 24 c0 00 00 	mov    0xc0(%rsp),%rax
   11323:	00 
   11324:	89 ac 24 f0 00 00 00 	mov    %ebp,0xf0(%rsp)
   1132b:	48 8d 6b 40          	lea    0x40(%rbx),%rbp
   1132f:	44 89 a4 24 30 01 00 	mov    %r12d,0x130(%rsp)
   11336:	00 
   11337:	4c 8d 63 10          	lea    0x10(%rbx),%r12
   1133b:	48 89 84 24 00 01 00 	mov    %rax,0x100(%rsp)
   11342:	00 
   11343:	48 8b 84 24 c8 00 00 	mov    0xc8(%rsp),%rax
   1134a:	00 
   1134b:	48 89 84 24 08 01 00 	mov    %rax,0x108(%rsp)
   11352:	00 
   11353:	48 8b 84 24 d0 00 00 	mov    0xd0(%rsp),%rax
   1135a:	00 
   1135b:	48 89 84 24 10 01 00 	mov    %rax,0x110(%rsp)
   11362:	00 
   11363:	48 8b 84 24 d8 00 00 	mov    0xd8(%rsp),%rax
   1136a:	00 
   1136b:	48 89 84 24 18 01 00 	mov    %rax,0x118(%rsp)
   11372:	00 
   11373:	48 8b 84 24 e0 00 00 	mov    0xe0(%rsp),%rax
   1137a:	00 
   1137b:	48 89 84 24 20 01 00 	mov    %rax,0x120(%rsp)
   11382:	00 
   11383:	48 8b 84 24 e8 00 00 	mov    0xe8(%rsp),%rax
   1138a:	00 
   1138b:	48 89 84 24 28 01 00 	mov    %rax,0x128(%rsp)
   11392:	00 
   11393:	eb 3f                	jmp    113d4 <pango_get_log_attrs+0xbe4>
   11395:	0f 1f 00             	nopl   (%rax)
   11398:	03 50 08             	add    0x8(%rax),%edx
   1139b:	48 8b 86 98 00 00 00 	mov    0x98(%rsi),%rax
   113a2:	48 63 d2             	movslq %edx,%rdx
   113a5:	f6 04 90 10          	testb  $0x10,(%rax,%rdx,4)
   113a9:	75 56                	jne    11401 <pango_get_log_attrs+0xc11>
   113ab:	48 89 ea             	mov    %rbp,%rdx
   113ae:	4c 89 e6             	mov    %r12,%rsi
   113b1:	48 89 df             	mov    %rbx,%rdi
   113b4:	e8 57 f9 ff ff       	callq  10d10 <pango_get_log_attrs+0x520>
   113b9:	44 8b ac 24 f0 00 00 	mov    0xf0(%rsp),%r13d
   113c0:	00 
   113c1:	48 89 ef             	mov    %rbp,%rdi
   113c4:	e8 27 f7 ff ff       	callq  10af0 <pango_get_log_attrs+0x300>
   113c9:	41 29 c5             	sub    %eax,%r13d
   113cc:	44 89 ac 24 f0 00 00 	mov    %r13d,0xf0(%rsp)
   113d3:	00 
   113d4:	8b 8c 24 e8 00 00 00 	mov    0xe8(%rsp),%ecx
   113db:	8b 94 24 d8 00 00 00 	mov    0xd8(%rsp),%edx
   113e2:	48 8b b4 24 80 00 00 	mov    0x80(%rsp),%rsi
   113e9:	00 
   113ea:	48 63 c1             	movslq %ecx,%rax
   113ed:	48 c1 e0 04          	shl    $0x4,%rax
   113f1:	48 03 84 24 90 00 00 	add    0x90(%rsp),%rax
   113f8:	00 
   113f9:	85 d2                	test   %edx,%edx
   113fb:	75 9b                	jne    11398 <pango_get_log_attrs+0xba8>
   113fd:	85 c9                	test   %ecx,%ecx
   113ff:	75 97                	jne    11398 <pango_get_log_attrs+0xba8>
   11401:	48 8d ab 80 00 00 00 	lea    0x80(%rbx),%rbp
   11408:	eb 2c                	jmp    11436 <pango_get_log_attrs+0xc46>
   1140a:	66 0f 1f 44 00 00    	nopw   0x0(%rax,%rax,1)
   11410:	48 89 ee             	mov    %rbp,%rsi
   11413:	48 89 df             	mov    %rbx,%rdi
   11416:	e8 65 f7 ff ff       	callq  10b80 <pango_get_log_attrs+0x390>
   1141b:	44 8b a4 24 30 01 00 	mov    0x130(%rsp),%r12d
