
test/_tar/tar-1.28/src/tar:     file format elf64-x86-64


Disassembly of section .init:

0000000000403388 <_init>:
  403388:	48 83 ec 08          	sub    $0x8,%rsp
  40338c:	48 8b 05 65 2c 25 00 	mov    0x252c65(%rip),%rax        # 655ff8 <_DYNAMIC+0x1d0>
  403393:	48 85 c0             	test   %rax,%rax
  403396:	74 05                	je     40339d <_init+0x15>
  403398:	e8 c3 06 00 00       	callq  403a60 <__gmon_start__@plt>
  40339d:	48 83 c4 08          	add    $0x8,%rsp
  4033a1:	c3                   	retq   

Disassembly of section .plt:

00000000004033b0 <__ctype_toupper_loc@plt-0x10>:
  4033b0:	ff 35 52 2c 25 00    	pushq  0x252c52(%rip)        # 656008 <_GLOBAL_OFFSET_TABLE_+0x8>
  4033b6:	ff 25 54 2c 25 00    	jmpq   *0x252c54(%rip)        # 656010 <_GLOBAL_OFFSET_TABLE_+0x10>
  4033bc:	0f 1f 40 00          	nopl   0x0(%rax)

00000000004033c0 <__ctype_toupper_loc@plt>:
  4033c0:	ff 25 52 2c 25 00    	jmpq   *0x252c52(%rip)        # 656018 <_GLOBAL_OFFSET_TABLE_+0x18>
  4033c6:	68 00 00 00 00       	pushq  $0x0
  4033cb:	e9 e0 ff ff ff       	jmpq   4033b0 <_init+0x28>

00000000004033d0 <__strcat_chk@plt>:
  4033d0:	ff 25 4a 2c 25 00    	jmpq   *0x252c4a(%rip)        # 656020 <_GLOBAL_OFFSET_TABLE_+0x20>
  4033d6:	68 01 00 00 00       	pushq  $0x1
  4033db:	e9 d0 ff ff ff       	jmpq   4033b0 <_init+0x28>

00000000004033e0 <__uflow@plt>:
  4033e0:	ff 25 42 2c 25 00    	jmpq   *0x252c42(%rip)        # 656028 <_GLOBAL_OFFSET_TABLE_+0x28>
  4033e6:	68 02 00 00 00       	pushq  $0x2
  4033eb:	e9 c0 ff ff ff       	jmpq   4033b0 <_init+0x28>

00000000004033f0 <getenv@plt>:
  4033f0:	ff 25 3a 2c 25 00    	jmpq   *0x252c3a(%rip)        # 656030 <_GLOBAL_OFFSET_TABLE_+0x30>
  4033f6:	68 03 00 00 00       	pushq  $0x3
  4033fb:	e9 b0 ff ff ff       	jmpq   4033b0 <_init+0x28>

0000000000403400 <__snprintf_chk@plt>:
  403400:	ff 25 32 2c 25 00    	jmpq   *0x252c32(%rip)        # 656038 <_GLOBAL_OFFSET_TABLE_+0x38>
  403406:	68 04 00 00 00       	pushq  $0x4
  40340b:	e9 a0 ff ff ff       	jmpq   4033b0 <_init+0x28>

0000000000403410 <raise@plt>:
  403410:	ff 25 2a 2c 25 00    	jmpq   *0x252c2a(%rip)        # 656040 <_GLOBAL_OFFSET_TABLE_+0x40>
  403416:	68 05 00 00 00       	pushq  $0x5
  40341b:	e9 90 ff ff ff       	jmpq   4033b0 <_init+0x28>

0000000000403420 <mkfifoat@plt>:
  403420:	ff 25 22 2c 25 00    	jmpq   *0x252c22(%rip)        # 656048 <_GLOBAL_OFFSET_TABLE_+0x48>
  403426:	68 06 00 00 00       	pushq  $0x6
  40342b:	e9 80 ff ff ff       	jmpq   4033b0 <_init+0x28>

0000000000403430 <free@plt>:
  403430:	ff 25 1a 2c 25 00    	jmpq   *0x252c1a(%rip)        # 656050 <_GLOBAL_OFFSET_TABLE_+0x50>
  403436:	68 07 00 00 00       	pushq  $0x7
  40343b:	e9 70 ff ff ff       	jmpq   4033b0 <_init+0x28>

0000000000403440 <utimensat@plt>:
  403440:	ff 25 12 2c 25 00    	jmpq   *0x252c12(%rip)        # 656058 <_GLOBAL_OFFSET_TABLE_+0x58>
  403446:	68 08 00 00 00       	pushq  $0x8
  40344b:	e9 60 ff ff ff       	jmpq   4033b0 <_init+0x28>

0000000000403450 <putchar@plt>:
  403450:	ff 25 0a 2c 25 00    	jmpq   *0x252c0a(%rip)        # 656060 <_GLOBAL_OFFSET_TABLE_+0x60>
  403456:	68 09 00 00 00       	pushq  $0x9
  40345b:	e9 50 ff ff ff       	jmpq   4033b0 <_init+0x28>

0000000000403460 <funlockfile@plt>:
  403460:	ff 25 02 2c 25 00    	jmpq   *0x252c02(%rip)        # 656068 <_GLOBAL_OFFSET_TABLE_+0x68>
  403466:	68 0a 00 00 00       	pushq  $0xa
  40346b:	e9 40 ff ff ff       	jmpq   4033b0 <_init+0x28>

0000000000403470 <strcasecmp@plt>:
  403470:	ff 25 fa 2b 25 00    	jmpq   *0x252bfa(%rip)        # 656070 <_GLOBAL_OFFSET_TABLE_+0x70>
  403476:	68 0b 00 00 00       	pushq  $0xb
  40347b:	e9 30 ff ff ff       	jmpq   4033b0 <_init+0x28>

0000000000403480 <localtime@plt>:
  403480:	ff 25 f2 2b 25 00    	jmpq   *0x252bf2(%rip)        # 656078 <_GLOBAL_OFFSET_TABLE_+0x78>
  403486:	68 0c 00 00 00       	pushq  $0xc
  40348b:	e9 20 ff ff ff       	jmpq   4033b0 <_init+0x28>

0000000000403490 <__vfprintf_chk@plt>:
  403490:	ff 25 ea 2b 25 00    	jmpq   *0x252bea(%rip)        # 656080 <_GLOBAL_OFFSET_TABLE_+0x80>
  403496:	68 0d 00 00 00       	pushq  $0xd
  40349b:	e9 10 ff ff ff       	jmpq   4033b0 <_init+0x28>

00000000004034a0 <abort@plt>:
  4034a0:	ff 25 e2 2b 25 00    	jmpq   *0x252be2(%rip)        # 656088 <_GLOBAL_OFFSET_TABLE_+0x88>
  4034a6:	68 0e 00 00 00       	pushq  $0xe
  4034ab:	e9 00 ff ff ff       	jmpq   4033b0 <_init+0x28>

00000000004034b0 <__errno_location@plt>:
  4034b0:	ff 25 da 2b 25 00    	jmpq   *0x252bda(%rip)        # 656090 <_GLOBAL_OFFSET_TABLE_+0x90>
  4034b6:	68 0f 00 00 00       	pushq  $0xf
  4034bb:	e9 f0 fe ff ff       	jmpq   4033b0 <_init+0x28>

00000000004034c0 <strncpy@plt>:
  4034c0:	ff 25 d2 2b 25 00    	jmpq   *0x252bd2(%rip)        # 656098 <_GLOBAL_OFFSET_TABLE_+0x98>
  4034c6:	68 10 00 00 00       	pushq  $0x10
  4034cb:	e9 e0 fe ff ff       	jmpq   4033b0 <_init+0x28>

00000000004034d0 <strncmp@plt>:
  4034d0:	ff 25 ca 2b 25 00    	jmpq   *0x252bca(%rip)        # 6560a0 <_GLOBAL_OFFSET_TABLE_+0xa0>
  4034d6:	68 11 00 00 00       	pushq  $0x11
  4034db:	e9 d0 fe ff ff       	jmpq   4033b0 <_init+0x28>

00000000004034e0 <_exit@plt>:
  4034e0:	ff 25 c2 2b 25 00    	jmpq   *0x252bc2(%rip)        # 6560a8 <_GLOBAL_OFFSET_TABLE_+0xa8>
  4034e6:	68 12 00 00 00       	pushq  $0x12
  4034eb:	e9 c0 fe ff ff       	jmpq   4033b0 <_init+0x28>

00000000004034f0 <strcpy@plt>:
  4034f0:	ff 25 ba 2b 25 00    	jmpq   *0x252bba(%rip)        # 6560b0 <_GLOBAL_OFFSET_TABLE_+0xb0>
  4034f6:	68 13 00 00 00       	pushq  $0x13
  4034fb:	e9 b0 fe ff ff       	jmpq   4033b0 <_init+0x28>

0000000000403500 <ftello@plt>:
  403500:	ff 25 b2 2b 25 00    	jmpq   *0x252bb2(%rip)        # 6560b8 <_GLOBAL_OFFSET_TABLE_+0xb8>
  403506:	68 14 00 00 00       	pushq  $0x14
  40350b:	e9 a0 fe ff ff       	jmpq   4033b0 <_init+0x28>

0000000000403510 <__fpending@plt>:
  403510:	ff 25 aa 2b 25 00    	jmpq   *0x252baa(%rip)        # 6560c0 <_GLOBAL_OFFSET_TABLE_+0xc0>
  403516:	68 15 00 00 00       	pushq  $0x15
  40351b:	e9 90 fe ff ff       	jmpq   4033b0 <_init+0x28>

0000000000403520 <flistxattr@plt>:
  403520:	ff 25 a2 2b 25 00    	jmpq   *0x252ba2(%rip)        # 6560c8 <_GLOBAL_OFFSET_TABLE_+0xc8>
  403526:	68 16 00 00 00       	pushq  $0x16
  40352b:	e9 80 fe ff ff       	jmpq   4033b0 <_init+0x28>

0000000000403530 <unlinkat@plt>:
  403530:	ff 25 9a 2b 25 00    	jmpq   *0x252b9a(%rip)        # 6560d0 <_GLOBAL_OFFSET_TABLE_+0xd0>
  403536:	68 17 00 00 00       	pushq  $0x17
  40353b:	e9 70 fe ff ff       	jmpq   4033b0 <_init+0x28>

0000000000403540 <iconv@plt>:
  403540:	ff 25 92 2b 25 00    	jmpq   *0x252b92(%rip)        # 6560d8 <_GLOBAL_OFFSET_TABLE_+0xd8>
  403546:	68 18 00 00 00       	pushq  $0x18
  40354b:	e9 60 fe ff ff       	jmpq   4033b0 <_init+0x28>

0000000000403550 <puts@plt>:
  403550:	ff 25 8a 2b 25 00    	jmpq   *0x252b8a(%rip)        # 6560e0 <_GLOBAL_OFFSET_TABLE_+0xe0>
  403556:	68 19 00 00 00       	pushq  $0x19
  40355b:	e9 50 fe ff ff       	jmpq   4033b0 <_init+0x28>

0000000000403560 <qsort@plt>:
  403560:	ff 25 82 2b 25 00    	jmpq   *0x252b82(%rip)        # 6560e8 <_GLOBAL_OFFSET_TABLE_+0xe8>
  403566:	68 1a 00 00 00       	pushq  $0x1a
  40356b:	e9 40 fe ff ff       	jmpq   4033b0 <_init+0x28>

0000000000403570 <isatty@plt>:
  403570:	ff 25 7a 2b 25 00    	jmpq   *0x252b7a(%rip)        # 6560f0 <_GLOBAL_OFFSET_TABLE_+0xf0>
  403576:	68 1b 00 00 00       	pushq  $0x1b
  40357b:	e9 30 fe ff ff       	jmpq   4033b0 <_init+0x28>

0000000000403580 <iswcntrl@plt>:
  403580:	ff 25 72 2b 25 00    	jmpq   *0x252b72(%rip)        # 6560f8 <_GLOBAL_OFFSET_TABLE_+0xf8>
  403586:	68 1c 00 00 00       	pushq  $0x1c
  40358b:	e9 20 fe ff ff       	jmpq   4033b0 <_init+0x28>

0000000000403590 <strchrnul@plt>:
  403590:	ff 25 6a 2b 25 00    	jmpq   *0x252b6a(%rip)        # 656100 <_GLOBAL_OFFSET_TABLE_+0x100>
  403596:	68 1d 00 00 00       	pushq  $0x1d
  40359b:	e9 10 fe ff ff       	jmpq   4033b0 <_init+0x28>

00000000004035a0 <localeconv@plt>:
  4035a0:	ff 25 62 2b 25 00    	jmpq   *0x252b62(%rip)        # 656108 <_GLOBAL_OFFSET_TABLE_+0x108>
  4035a6:	68 1e 00 00 00       	pushq  $0x1e
  4035ab:	e9 00 fe ff ff       	jmpq   4033b0 <_init+0x28>

00000000004035b0 <llistxattr@plt>:
  4035b0:	ff 25 5a 2b 25 00    	jmpq   *0x252b5a(%rip)        # 656110 <_GLOBAL_OFFSET_TABLE_+0x110>
  4035b6:	68 1f 00 00 00       	pushq  $0x1f
  4035bb:	e9 f0 fd ff ff       	jmpq   4033b0 <_init+0x28>

00000000004035c0 <faccessat@plt>:
  4035c0:	ff 25 52 2b 25 00    	jmpq   *0x252b52(%rip)        # 656118 <_GLOBAL_OFFSET_TABLE_+0x118>
  4035c6:	68 20 00 00 00       	pushq  $0x20
  4035cb:	e9 e0 fd ff ff       	jmpq   4033b0 <_init+0x28>

00000000004035d0 <fcntl@plt>:
  4035d0:	ff 25 4a 2b 25 00    	jmpq   *0x252b4a(%rip)        # 656120 <_GLOBAL_OFFSET_TABLE_+0x120>
  4035d6:	68 21 00 00 00       	pushq  $0x21
  4035db:	e9 d0 fd ff ff       	jmpq   4033b0 <_init+0x28>

00000000004035e0 <clock_gettime@plt>:
  4035e0:	ff 25 42 2b 25 00    	jmpq   *0x252b42(%rip)        # 656128 <_GLOBAL_OFFSET_TABLE_+0x128>
  4035e6:	68 22 00 00 00       	pushq  $0x22
  4035eb:	e9 c0 fd ff ff       	jmpq   4033b0 <_init+0x28>

00000000004035f0 <setenv@plt>:
  4035f0:	ff 25 3a 2b 25 00    	jmpq   *0x252b3a(%rip)        # 656130 <_GLOBAL_OFFSET_TABLE_+0x130>
  4035f6:	68 23 00 00 00       	pushq  $0x23
  4035fb:	e9 b0 fd ff ff       	jmpq   4033b0 <_init+0x28>

0000000000403600 <write@plt>:
  403600:	ff 25 32 2b 25 00    	jmpq   *0x252b32(%rip)        # 656138 <_GLOBAL_OFFSET_TABLE_+0x138>
  403606:	68 24 00 00 00       	pushq  $0x24
  40360b:	e9 a0 fd ff ff       	jmpq   4033b0 <_init+0x28>

0000000000403610 <getpid@plt>:
  403610:	ff 25 2a 2b 25 00    	jmpq   *0x252b2a(%rip)        # 656140 <_GLOBAL_OFFSET_TABLE_+0x140>
  403616:	68 25 00 00 00       	pushq  $0x25
  40361b:	e9 90 fd ff ff       	jmpq   4033b0 <_init+0x28>

0000000000403620 <textdomain@plt>:
  403620:	ff 25 22 2b 25 00    	jmpq   *0x252b22(%rip)        # 656148 <_GLOBAL_OFFSET_TABLE_+0x148>
  403626:	68 26 00 00 00       	pushq  $0x26
  40362b:	e9 80 fd ff ff       	jmpq   4033b0 <_init+0x28>

0000000000403630 <__strtol_internal@plt>:
  403630:	ff 25 1a 2b 25 00    	jmpq   *0x252b1a(%rip)        # 656150 <_GLOBAL_OFFSET_TABLE_+0x150>
  403636:	68 27 00 00 00       	pushq  $0x27
  40363b:	e9 70 fd ff ff       	jmpq   4033b0 <_init+0x28>

0000000000403640 <pathconf@plt>:
  403640:	ff 25 12 2b 25 00    	jmpq   *0x252b12(%rip)        # 656158 <_GLOBAL_OFFSET_TABLE_+0x158>
  403646:	68 28 00 00 00       	pushq  $0x28
  40364b:	e9 60 fd ff ff       	jmpq   4033b0 <_init+0x28>

0000000000403650 <__open_2@plt>:
  403650:	ff 25 0a 2b 25 00    	jmpq   *0x252b0a(%rip)        # 656160 <_GLOBAL_OFFSET_TABLE_+0x160>
  403656:	68 29 00 00 00       	pushq  $0x29
  40365b:	e9 50 fd ff ff       	jmpq   4033b0 <_init+0x28>

0000000000403660 <fclose@plt>:
  403660:	ff 25 02 2b 25 00    	jmpq   *0x252b02(%rip)        # 656168 <_GLOBAL_OFFSET_TABLE_+0x168>
  403666:	68 2a 00 00 00       	pushq  $0x2a
  40366b:	e9 40 fd ff ff       	jmpq   4033b0 <_init+0x28>

0000000000403670 <lgetxattr@plt>:
  403670:	ff 25 fa 2a 25 00    	jmpq   *0x252afa(%rip)        # 656170 <_GLOBAL_OFFSET_TABLE_+0x170>
  403676:	68 2b 00 00 00       	pushq  $0x2b
  40367b:	e9 30 fd ff ff       	jmpq   4033b0 <_init+0x28>

0000000000403680 <opendir@plt>:
  403680:	ff 25 f2 2a 25 00    	jmpq   *0x252af2(%rip)        # 656178 <_GLOBAL_OFFSET_TABLE_+0x178>
  403686:	68 2c 00 00 00       	pushq  $0x2c
  40368b:	e9 20 fd ff ff       	jmpq   4033b0 <_init+0x28>

0000000000403690 <getpwuid@plt>:
  403690:	ff 25 ea 2a 25 00    	jmpq   *0x252aea(%rip)        # 656180 <_GLOBAL_OFFSET_TABLE_+0x180>
  403696:	68 2d 00 00 00       	pushq  $0x2d
  40369b:	e9 10 fd ff ff       	jmpq   4033b0 <_init+0x28>

00000000004036a0 <bindtextdomain@plt>:
  4036a0:	ff 25 e2 2a 25 00    	jmpq   *0x252ae2(%rip)        # 656188 <_GLOBAL_OFFSET_TABLE_+0x188>
  4036a6:	68 2e 00 00 00       	pushq  $0x2e
  4036ab:	e9 00 fd ff ff       	jmpq   4033b0 <_init+0x28>

00000000004036b0 <stpcpy@plt>:
  4036b0:	ff 25 da 2a 25 00    	jmpq   *0x252ada(%rip)        # 656190 <_GLOBAL_OFFSET_TABLE_+0x190>
  4036b6:	68 2f 00 00 00       	pushq  $0x2f
  4036bb:	e9 f0 fc ff ff       	jmpq   4033b0 <_init+0x28>

00000000004036c0 <listxattr@plt>:
  4036c0:	ff 25 d2 2a 25 00    	jmpq   *0x252ad2(%rip)        # 656198 <_GLOBAL_OFFSET_TABLE_+0x198>
  4036c6:	68 30 00 00 00       	pushq  $0x30
  4036cb:	e9 e0 fc ff ff       	jmpq   4033b0 <_init+0x28>

00000000004036d0 <dcgettext@plt>:
  4036d0:	ff 25 ca 2a 25 00    	jmpq   *0x252aca(%rip)        # 6561a0 <_GLOBAL_OFFSET_TABLE_+0x1a0>
  4036d6:	68 31 00 00 00       	pushq  $0x31
  4036db:	e9 d0 fc ff ff       	jmpq   4033b0 <_init+0x28>

00000000004036e0 <regfree@plt>:
  4036e0:	ff 25 c2 2a 25 00    	jmpq   *0x252ac2(%rip)        # 6561a8 <_GLOBAL_OFFSET_TABLE_+0x1a8>
  4036e6:	68 32 00 00 00       	pushq  $0x32
  4036eb:	e9 c0 fc ff ff       	jmpq   4033b0 <_init+0x28>

00000000004036f0 <__ctype_get_mb_cur_max@plt>:
  4036f0:	ff 25 ba 2a 25 00    	jmpq   *0x252aba(%rip)        # 6561b0 <_GLOBAL_OFFSET_TABLE_+0x1b0>
  4036f6:	68 33 00 00 00       	pushq  $0x33
  4036fb:	e9 b0 fc ff ff       	jmpq   4033b0 <_init+0x28>

0000000000403700 <strlen@plt>:
  403700:	ff 25 b2 2a 25 00    	jmpq   *0x252ab2(%rip)        # 6561b8 <_GLOBAL_OFFSET_TABLE_+0x1b8>
  403706:	68 34 00 00 00       	pushq  $0x34
  40370b:	e9 a0 fc ff ff       	jmpq   4033b0 <_init+0x28>

0000000000403710 <__lxstat@plt>:
  403710:	ff 25 aa 2a 25 00    	jmpq   *0x252aaa(%rip)        # 6561c0 <_GLOBAL_OFFSET_TABLE_+0x1c0>
  403716:	68 35 00 00 00       	pushq  $0x35
  40371b:	e9 90 fc ff ff       	jmpq   4033b0 <_init+0x28>

0000000000403720 <openat@plt>:
  403720:	ff 25 a2 2a 25 00    	jmpq   *0x252aa2(%rip)        # 6561c8 <_GLOBAL_OFFSET_TABLE_+0x1c8>
  403726:	68 36 00 00 00       	pushq  $0x36
  40372b:	e9 80 fc ff ff       	jmpq   4033b0 <_init+0x28>

0000000000403730 <chdir@plt>:
  403730:	ff 25 9a 2a 25 00    	jmpq   *0x252a9a(%rip)        # 6561d0 <_GLOBAL_OFFSET_TABLE_+0x1d0>
  403736:	68 37 00 00 00       	pushq  $0x37
  40373b:	e9 70 fc ff ff       	jmpq   4033b0 <_init+0x28>

0000000000403740 <__stack_chk_fail@plt>:
  403740:	ff 25 92 2a 25 00    	jmpq   *0x252a92(%rip)        # 6561d8 <_GLOBAL_OFFSET_TABLE_+0x1d8>
  403746:	68 38 00 00 00       	pushq  $0x38
  40374b:	e9 60 fc ff ff       	jmpq   4033b0 <_init+0x28>

0000000000403750 <getuid@plt>:
  403750:	ff 25 8a 2a 25 00    	jmpq   *0x252a8a(%rip)        # 6561e0 <_GLOBAL_OFFSET_TABLE_+0x1e0>
  403756:	68 39 00 00 00       	pushq  $0x39
  40375b:	e9 50 fc ff ff       	jmpq   4033b0 <_init+0x28>

0000000000403760 <mbrtowc@plt>:
  403760:	ff 25 82 2a 25 00    	jmpq   *0x252a82(%rip)        # 6561e8 <_GLOBAL_OFFSET_TABLE_+0x1e8>
  403766:	68 3a 00 00 00       	pushq  $0x3a
  40376b:	e9 40 fc ff ff       	jmpq   4033b0 <_init+0x28>

0000000000403770 <dup2@plt>:
  403770:	ff 25 7a 2a 25 00    	jmpq   *0x252a7a(%rip)        # 6561f0 <_GLOBAL_OFFSET_TABLE_+0x1f0>
  403776:	68 3b 00 00 00       	pushq  $0x3b
  40377b:	e9 30 fc ff ff       	jmpq   4033b0 <_init+0x28>

0000000000403780 <strchr@plt>:
  403780:	ff 25 72 2a 25 00    	jmpq   *0x252a72(%rip)        # 6561f8 <_GLOBAL_OFFSET_TABLE_+0x1f8>
  403786:	68 3c 00 00 00       	pushq  $0x3c
  40378b:	e9 20 fc ff ff       	jmpq   4033b0 <_init+0x28>

0000000000403790 <getgrgid@plt>:
  403790:	ff 25 6a 2a 25 00    	jmpq   *0x252a6a(%rip)        # 656200 <_GLOBAL_OFFSET_TABLE_+0x200>
  403796:	68 3d 00 00 00       	pushq  $0x3d
  40379b:	e9 10 fc ff ff       	jmpq   4033b0 <_init+0x28>

00000000004037a0 <_obstack_begin@plt>:
  4037a0:	ff 25 62 2a 25 00    	jmpq   *0x252a62(%rip)        # 656208 <_GLOBAL_OFFSET_TABLE_+0x208>
  4037a6:	68 3e 00 00 00       	pushq  $0x3e
  4037ab:	e9 00 fc ff ff       	jmpq   4033b0 <_init+0x28>

00000000004037b0 <__fxstatat@plt>:
  4037b0:	ff 25 5a 2a 25 00    	jmpq   *0x252a5a(%rip)        # 656210 <_GLOBAL_OFFSET_TABLE_+0x210>
  4037b6:	68 3f 00 00 00       	pushq  $0x3f
  4037bb:	e9 f0 fb ff ff       	jmpq   4033b0 <_init+0x28>

00000000004037c0 <__overflow@plt>:
  4037c0:	ff 25 52 2a 25 00    	jmpq   *0x252a52(%rip)        # 656218 <_GLOBAL_OFFSET_TABLE_+0x218>
  4037c6:	68 40 00 00 00       	pushq  $0x40
  4037cb:	e9 e0 fb ff ff       	jmpq   4033b0 <_init+0x28>

00000000004037d0 <strrchr@plt>:
  4037d0:	ff 25 4a 2a 25 00    	jmpq   *0x252a4a(%rip)        # 656220 <_GLOBAL_OFFSET_TABLE_+0x220>
  4037d6:	68 41 00 00 00       	pushq  $0x41
  4037db:	e9 d0 fb ff ff       	jmpq   4033b0 <_init+0x28>

00000000004037e0 <ftruncate@plt>:
  4037e0:	ff 25 42 2a 25 00    	jmpq   *0x252a42(%rip)        # 656228 <_GLOBAL_OFFSET_TABLE_+0x228>
  4037e6:	68 42 00 00 00       	pushq  $0x42
  4037eb:	e9 c0 fb ff ff       	jmpq   4033b0 <_init+0x28>

00000000004037f0 <dup@plt>:
  4037f0:	ff 25 3a 2a 25 00    	jmpq   *0x252a3a(%rip)        # 656230 <_GLOBAL_OFFSET_TABLE_+0x230>
  4037f6:	68 43 00 00 00       	pushq  $0x43
  4037fb:	e9 b0 fb ff ff       	jmpq   4033b0 <_init+0x28>

0000000000403800 <lseek@plt>:
  403800:	ff 25 32 2a 25 00    	jmpq   *0x252a32(%rip)        # 656238 <_GLOBAL_OFFSET_TABLE_+0x238>
  403806:	68 44 00 00 00       	pushq  $0x44
  40380b:	e9 a0 fb ff ff       	jmpq   4033b0 <_init+0x28>

0000000000403810 <gettimeofday@plt>:
  403810:	ff 25 2a 2a 25 00    	jmpq   *0x252a2a(%rip)        # 656240 <_GLOBAL_OFFSET_TABLE_+0x240>
  403816:	68 45 00 00 00       	pushq  $0x45
  40381b:	e9 90 fb ff ff       	jmpq   4033b0 <_init+0x28>

0000000000403820 <__assert_fail@plt>:
  403820:	ff 25 22 2a 25 00    	jmpq   *0x252a22(%rip)        # 656248 <_GLOBAL_OFFSET_TABLE_+0x248>
  403826:	68 46 00 00 00       	pushq  $0x46
  40382b:	e9 80 fb ff ff       	jmpq   4033b0 <_init+0x28>

0000000000403830 <fputs@plt>:
  403830:	ff 25 1a 2a 25 00    	jmpq   *0x252a1a(%rip)        # 656250 <_GLOBAL_OFFSET_TABLE_+0x250>
  403836:	68 47 00 00 00       	pushq  $0x47
  40383b:	e9 70 fb ff ff       	jmpq   4033b0 <_init+0x28>

0000000000403840 <__strtoul_internal@plt>:
  403840:	ff 25 12 2a 25 00    	jmpq   *0x252a12(%rip)        # 656258 <_GLOBAL_OFFSET_TABLE_+0x258>
  403846:	68 48 00 00 00       	pushq  $0x48
  40384b:	e9 60 fb ff ff       	jmpq   4033b0 <_init+0x28>

0000000000403850 <fnmatch@plt>:
  403850:	ff 25 0a 2a 25 00    	jmpq   *0x252a0a(%rip)        # 656260 <_GLOBAL_OFFSET_TABLE_+0x260>
  403856:	68 49 00 00 00       	pushq  $0x49
  40385b:	e9 50 fb ff ff       	jmpq   4033b0 <_init+0x28>

0000000000403860 <memset@plt>:
  403860:	ff 25 02 2a 25 00    	jmpq   *0x252a02(%rip)        # 656268 <_GLOBAL_OFFSET_TABLE_+0x268>
  403866:	68 4a 00 00 00       	pushq  $0x4a
  40386b:	e9 40 fb ff ff       	jmpq   4033b0 <_init+0x28>

0000000000403870 <geteuid@plt>:
  403870:	ff 25 fa 29 25 00    	jmpq   *0x2529fa(%rip)        # 656270 <_GLOBAL_OFFSET_TABLE_+0x270>
  403876:	68 4b 00 00 00       	pushq  $0x4b
  40387b:	e9 30 fb ff ff       	jmpq   4033b0 <_init+0x28>

0000000000403880 <fscanf@plt>:
  403880:	ff 25 f2 29 25 00    	jmpq   *0x2529f2(%rip)        # 656278 <_GLOBAL_OFFSET_TABLE_+0x278>
  403886:	68 4c 00 00 00       	pushq  $0x4c
  40388b:	e9 20 fb ff ff       	jmpq   4033b0 <_init+0x28>

0000000000403890 <ioctl@plt>:
  403890:	ff 25 ea 29 25 00    	jmpq   *0x2529ea(%rip)        # 656280 <_GLOBAL_OFFSET_TABLE_+0x280>
  403896:	68 4d 00 00 00       	pushq  $0x4d
  40389b:	e9 10 fb ff ff       	jmpq   4033b0 <_init+0x28>

00000000004038a0 <getcwd@plt>:
  4038a0:	ff 25 e2 29 25 00    	jmpq   *0x2529e2(%rip)        # 656288 <_GLOBAL_OFFSET_TABLE_+0x288>
  4038a6:	68 4e 00 00 00       	pushq  $0x4e
  4038ab:	e9 00 fb ff ff       	jmpq   4033b0 <_init+0x28>

00000000004038b0 <close@plt>:
  4038b0:	ff 25 da 29 25 00    	jmpq   *0x2529da(%rip)        # 656290 <_GLOBAL_OFFSET_TABLE_+0x290>
  4038b6:	68 4f 00 00 00       	pushq  $0x4f
  4038bb:	e9 f0 fa ff ff       	jmpq   4033b0 <_init+0x28>

00000000004038c0 <pipe@plt>:
  4038c0:	ff 25 d2 29 25 00    	jmpq   *0x2529d2(%rip)        # 656298 <_GLOBAL_OFFSET_TABLE_+0x298>
  4038c6:	68 50 00 00 00       	pushq  $0x50
  4038cb:	e9 e0 fa ff ff       	jmpq   4033b0 <_init+0x28>

00000000004038d0 <flockfile@plt>:
  4038d0:	ff 25 ca 29 25 00    	jmpq   *0x2529ca(%rip)        # 6562a0 <_GLOBAL_OFFSET_TABLE_+0x2a0>
  4038d6:	68 51 00 00 00       	pushq  $0x51
  4038db:	e9 d0 fa ff ff       	jmpq   4033b0 <_init+0x28>

00000000004038e0 <__openat_2@plt>:
  4038e0:	ff 25 c2 29 25 00    	jmpq   *0x2529c2(%rip)        # 6562a8 <_GLOBAL_OFFSET_TABLE_+0x2a8>
  4038e6:	68 52 00 00 00       	pushq  $0x52
  4038eb:	e9 c0 fa ff ff       	jmpq   4033b0 <_init+0x28>

00000000004038f0 <closedir@plt>:
  4038f0:	ff 25 ba 29 25 00    	jmpq   *0x2529ba(%rip)        # 6562b0 <_GLOBAL_OFFSET_TABLE_+0x2b0>
  4038f6:	68 53 00 00 00       	pushq  $0x53
  4038fb:	e9 b0 fa ff ff       	jmpq   4033b0 <_init+0x28>

0000000000403900 <regcomp@plt>:
  403900:	ff 25 b2 29 25 00    	jmpq   *0x2529b2(%rip)        # 6562b8 <_GLOBAL_OFFSET_TABLE_+0x2b8>
  403906:	68 54 00 00 00       	pushq  $0x54
  40390b:	e9 a0 fa ff ff       	jmpq   4033b0 <_init+0x28>

0000000000403910 <fputc@plt>:
  403910:	ff 25 aa 29 25 00    	jmpq   *0x2529aa(%rip)        # 6562c0 <_GLOBAL_OFFSET_TABLE_+0x2c0>
  403916:	68 55 00 00 00       	pushq  $0x55
  40391b:	e9 90 fa ff ff       	jmpq   4033b0 <_init+0x28>

0000000000403920 <__strdup@plt>:
  403920:	ff 25 a2 29 25 00    	jmpq   *0x2529a2(%rip)        # 6562c8 <_GLOBAL_OFFSET_TABLE_+0x2c8>
  403926:	68 56 00 00 00       	pushq  $0x56
  40392b:	e9 80 fa ff ff       	jmpq   4033b0 <_init+0x28>

0000000000403930 <memchr@plt>:
  403930:	ff 25 9a 29 25 00    	jmpq   *0x25299a(%rip)        # 6562d0 <_GLOBAL_OFFSET_TABLE_+0x2d0>
  403936:	68 57 00 00 00       	pushq  $0x57
  40393b:	e9 70 fa ff ff       	jmpq   4033b0 <_init+0x28>

0000000000403940 <read@plt>:
  403940:	ff 25 92 29 25 00    	jmpq   *0x252992(%rip)        # 6562d8 <_GLOBAL_OFFSET_TABLE_+0x2d8>
  403946:	68 58 00 00 00       	pushq  $0x58
  40394b:	e9 60 fa ff ff       	jmpq   4033b0 <_init+0x28>

0000000000403950 <strndup@plt>:
  403950:	ff 25 8a 29 25 00    	jmpq   *0x25298a(%rip)        # 6562e0 <_GLOBAL_OFFSET_TABLE_+0x2e0>
  403956:	68 59 00 00 00       	pushq  $0x59
  40395b:	e9 50 fa ff ff       	jmpq   4033b0 <_init+0x28>

0000000000403960 <__libc_start_main@plt>:
  403960:	ff 25 82 29 25 00    	jmpq   *0x252982(%rip)        # 6562e8 <_GLOBAL_OFFSET_TABLE_+0x2e8>
  403966:	68 5a 00 00 00       	pushq  $0x5a
  40396b:	e9 40 fa ff ff       	jmpq   4033b0 <_init+0x28>

0000000000403970 <memcmp@plt>:
  403970:	ff 25 7a 29 25 00    	jmpq   *0x25297a(%rip)        # 6562f0 <_GLOBAL_OFFSET_TABLE_+0x2f0>
  403976:	68 5b 00 00 00       	pushq  $0x5b
  40397b:	e9 30 fa ff ff       	jmpq   4033b0 <_init+0x28>

0000000000403980 <fputs_unlocked@plt>:
  403980:	ff 25 72 29 25 00    	jmpq   *0x252972(%rip)        # 6562f8 <_GLOBAL_OFFSET_TABLE_+0x2f8>
  403986:	68 5c 00 00 00       	pushq  $0x5c
  40398b:	e9 20 fa ff ff       	jmpq   4033b0 <_init+0x28>

0000000000403990 <utimes@plt>:
  403990:	ff 25 6a 29 25 00    	jmpq   *0x25296a(%rip)        # 656300 <_GLOBAL_OFFSET_TABLE_+0x300>
  403996:	68 5d 00 00 00       	pushq  $0x5d
  40399b:	e9 10 fa ff ff       	jmpq   4033b0 <_init+0x28>

00000000004039a0 <calloc@plt>:
  4039a0:	ff 25 62 29 25 00    	jmpq   *0x252962(%rip)        # 656308 <_GLOBAL_OFFSET_TABLE_+0x308>
  4039a6:	68 5e 00 00 00       	pushq  $0x5e
  4039ab:	e9 00 fa ff ff       	jmpq   4033b0 <_init+0x28>

00000000004039b0 <__getdelim@plt>:
  4039b0:	ff 25 5a 29 25 00    	jmpq   *0x25295a(%rip)        # 656310 <_GLOBAL_OFFSET_TABLE_+0x310>
  4039b6:	68 5f 00 00 00       	pushq  $0x5f
  4039bb:	e9 f0 f9 ff ff       	jmpq   4033b0 <_init+0x28>

00000000004039c0 <strcmp@plt>:
  4039c0:	ff 25 52 29 25 00    	jmpq   *0x252952(%rip)        # 656318 <_GLOBAL_OFFSET_TABLE_+0x318>
  4039c6:	68 60 00 00 00       	pushq  $0x60
  4039cb:	e9 e0 f9 ff ff       	jmpq   4033b0 <_init+0x28>

00000000004039d0 <signal@plt>:
  4039d0:	ff 25 4a 29 25 00    	jmpq   *0x25294a(%rip)        # 656320 <_GLOBAL_OFFSET_TABLE_+0x320>
  4039d6:	68 61 00 00 00       	pushq  $0x61
  4039db:	e9 d0 f9 ff ff       	jmpq   4033b0 <_init+0x28>

00000000004039e0 <readlinkat@plt>:
  4039e0:	ff 25 42 29 25 00    	jmpq   *0x252942(%rip)        # 656328 <_GLOBAL_OFFSET_TABLE_+0x328>
  4039e6:	68 62 00 00 00       	pushq  $0x62
  4039eb:	e9 c0 f9 ff ff       	jmpq   4033b0 <_init+0x28>

00000000004039f0 <dirfd@plt>:
  4039f0:	ff 25 3a 29 25 00    	jmpq   *0x25293a(%rip)        # 656330 <_GLOBAL_OFFSET_TABLE_+0x330>
  4039f6:	68 63 00 00 00       	pushq  $0x63
  4039fb:	e9 b0 f9 ff ff       	jmpq   4033b0 <_init+0x28>

0000000000403a00 <getpwnam@plt>:
  403a00:	ff 25 32 29 25 00    	jmpq   *0x252932(%rip)        # 656338 <_GLOBAL_OFFSET_TABLE_+0x338>
  403a06:	68 64 00 00 00       	pushq  $0x64
  403a0b:	e9 a0 f9 ff ff       	jmpq   4033b0 <_init+0x28>

0000000000403a10 <gethostbyname@plt>:
  403a10:	ff 25 2a 29 25 00    	jmpq   *0x25292a(%rip)        # 656340 <_GLOBAL_OFFSET_TABLE_+0x340>
  403a16:	68 65 00 00 00       	pushq  $0x65
  403a1b:	e9 90 f9 ff ff       	jmpq   4033b0 <_init+0x28>

0000000000403a20 <__strndup@plt>:
  403a20:	ff 25 22 29 25 00    	jmpq   *0x252922(%rip)        # 656348 <_GLOBAL_OFFSET_TABLE_+0x348>
  403a26:	68 66 00 00 00       	pushq  $0x66
  403a2b:	e9 80 f9 ff ff       	jmpq   4033b0 <_init+0x28>

0000000000403a30 <__memcpy_chk@plt>:
  403a30:	ff 25 1a 29 25 00    	jmpq   *0x25291a(%rip)        # 656350 <_GLOBAL_OFFSET_TABLE_+0x350>
  403a36:	68 67 00 00 00       	pushq  $0x67
  403a3b:	e9 70 f9 ff ff       	jmpq   4033b0 <_init+0x28>

0000000000403a40 <rpmatch@plt>:
  403a40:	ff 25 12 29 25 00    	jmpq   *0x252912(%rip)        # 656358 <_GLOBAL_OFFSET_TABLE_+0x358>
  403a46:	68 68 00 00 00       	pushq  $0x68
  403a4b:	e9 60 f9 ff ff       	jmpq   4033b0 <_init+0x28>

0000000000403a50 <mkdirat@plt>:
  403a50:	ff 25 0a 29 25 00    	jmpq   *0x25290a(%rip)        # 656360 <_GLOBAL_OFFSET_TABLE_+0x360>
  403a56:	68 69 00 00 00       	pushq  $0x69
  403a5b:	e9 50 f9 ff ff       	jmpq   4033b0 <_init+0x28>

0000000000403a60 <__gmon_start__@plt>:
  403a60:	ff 25 02 29 25 00    	jmpq   *0x252902(%rip)        # 656368 <_GLOBAL_OFFSET_TABLE_+0x368>
  403a66:	68 6a 00 00 00       	pushq  $0x6a
  403a6b:	e9 40 f9 ff ff       	jmpq   4033b0 <_init+0x28>

0000000000403a70 <umask@plt>:
  403a70:	ff 25 fa 28 25 00    	jmpq   *0x2528fa(%rip)        # 656370 <_GLOBAL_OFFSET_TABLE_+0x370>
  403a76:	68 6b 00 00 00       	pushq  $0x6b
  403a7b:	e9 30 f9 ff ff       	jmpq   4033b0 <_init+0x28>

0000000000403a80 <obstack_free@plt>:
  403a80:	ff 25 f2 28 25 00    	jmpq   *0x2528f2(%rip)        # 656378 <_GLOBAL_OFFSET_TABLE_+0x378>
  403a86:	68 6c 00 00 00       	pushq  $0x6c
  403a8b:	e9 20 f9 ff ff       	jmpq   4033b0 <_init+0x28>

0000000000403a90 <strtol@plt>:
  403a90:	ff 25 ea 28 25 00    	jmpq   *0x2528ea(%rip)        # 656380 <_GLOBAL_OFFSET_TABLE_+0x380>
  403a96:	68 6d 00 00 00       	pushq  $0x6d
  403a9b:	e9 10 f9 ff ff       	jmpq   4033b0 <_init+0x28>

0000000000403aa0 <memcpy@plt>:
  403aa0:	ff 25 e2 28 25 00    	jmpq   *0x2528e2(%rip)        # 656388 <_GLOBAL_OFFSET_TABLE_+0x388>
  403aa6:	68 6e 00 00 00       	pushq  $0x6e
  403aab:	e9 00 f9 ff ff       	jmpq   4033b0 <_init+0x28>

0000000000403ab0 <regerror@plt>:
  403ab0:	ff 25 da 28 25 00    	jmpq   *0x2528da(%rip)        # 656390 <_GLOBAL_OFFSET_TABLE_+0x390>
  403ab6:	68 6f 00 00 00       	pushq  $0x6f
  403abb:	e9 f0 f8 ff ff       	jmpq   4033b0 <_init+0x28>

0000000000403ac0 <getgrnam@plt>:
  403ac0:	ff 25 d2 28 25 00    	jmpq   *0x2528d2(%rip)        # 656398 <_GLOBAL_OFFSET_TABLE_+0x398>
  403ac6:	68 70 00 00 00       	pushq  $0x70
  403acb:	e9 e0 f8 ff ff       	jmpq   4033b0 <_init+0x28>

0000000000403ad0 <fileno@plt>:
  403ad0:	ff 25 ca 28 25 00    	jmpq   *0x2528ca(%rip)        # 6563a0 <_GLOBAL_OFFSET_TABLE_+0x3a0>
  403ad6:	68 71 00 00 00       	pushq  $0x71
  403adb:	e9 d0 f8 ff ff       	jmpq   4033b0 <_init+0x28>

0000000000403ae0 <__stpcpy_chk@plt>:
  403ae0:	ff 25 c2 28 25 00    	jmpq   *0x2528c2(%rip)        # 6563a8 <_GLOBAL_OFFSET_TABLE_+0x3a8>
  403ae6:	68 72 00 00 00       	pushq  $0x72
  403aeb:	e9 c0 f8 ff ff       	jmpq   4033b0 <_init+0x28>

0000000000403af0 <getgid@plt>:
  403af0:	ff 25 ba 28 25 00    	jmpq   *0x2528ba(%rip)        # 6563b0 <_GLOBAL_OFFSET_TABLE_+0x3b0>
  403af6:	68 73 00 00 00       	pushq  $0x73
  403afb:	e9 b0 f8 ff ff       	jmpq   4033b0 <_init+0x28>

0000000000403b00 <__xstat@plt>:
  403b00:	ff 25 b2 28 25 00    	jmpq   *0x2528b2(%rip)        # 6563b8 <_GLOBAL_OFFSET_TABLE_+0x3b8>
  403b06:	68 74 00 00 00       	pushq  $0x74
  403b0b:	e9 a0 f8 ff ff       	jmpq   4033b0 <_init+0x28>

0000000000403b10 <readdir@plt>:
  403b10:	ff 25 aa 28 25 00    	jmpq   *0x2528aa(%rip)        # 6563c0 <_GLOBAL_OFFSET_TABLE_+0x3c0>
  403b16:	68 75 00 00 00       	pushq  $0x75
  403b1b:	e9 90 f8 ff ff       	jmpq   4033b0 <_init+0x28>

0000000000403b20 <strerror_r@plt>:
  403b20:	ff 25 a2 28 25 00    	jmpq   *0x2528a2(%rip)        # 6563c8 <_GLOBAL_OFFSET_TABLE_+0x3c8>
  403b26:	68 76 00 00 00       	pushq  $0x76
  403b2b:	e9 80 f8 ff ff       	jmpq   4033b0 <_init+0x28>

0000000000403b30 <wcwidth@plt>:
  403b30:	ff 25 9a 28 25 00    	jmpq   *0x25289a(%rip)        # 6563d0 <_GLOBAL_OFFSET_TABLE_+0x3d0>
  403b36:	68 77 00 00 00       	pushq  $0x77
  403b3b:	e9 70 f8 ff ff       	jmpq   4033b0 <_init+0x28>

0000000000403b40 <malloc@plt>:
  403b40:	ff 25 92 28 25 00    	jmpq   *0x252892(%rip)        # 6563d8 <_GLOBAL_OFFSET_TABLE_+0x3d8>
  403b46:	68 78 00 00 00       	pushq  $0x78
  403b4b:	e9 60 f8 ff ff       	jmpq   4033b0 <_init+0x28>

0000000000403b50 <fchmodat@plt>:
  403b50:	ff 25 8a 28 25 00    	jmpq   *0x25288a(%rip)        # 6563e0 <_GLOBAL_OFFSET_TABLE_+0x3e0>
  403b56:	68 79 00 00 00       	pushq  $0x79
  403b5b:	e9 50 f8 ff ff       	jmpq   4033b0 <_init+0x28>

0000000000403b60 <nl_langinfo@plt>:
  403b60:	ff 25 82 28 25 00    	jmpq   *0x252882(%rip)        # 6563e8 <_GLOBAL_OFFSET_TABLE_+0x3e8>
  403b66:	68 7a 00 00 00       	pushq  $0x7a
  403b6b:	e9 40 f8 ff ff       	jmpq   4033b0 <_init+0x28>

0000000000403b70 <__vasprintf_chk@plt>:
  403b70:	ff 25 7a 28 25 00    	jmpq   *0x25287a(%rip)        # 6563f0 <_GLOBAL_OFFSET_TABLE_+0x3f0>
  403b76:	68 7b 00 00 00       	pushq  $0x7b
  403b7b:	e9 30 f8 ff ff       	jmpq   4033b0 <_init+0x28>

0000000000403b80 <ungetc@plt>:
  403b80:	ff 25 72 28 25 00    	jmpq   *0x252872(%rip)        # 6563f8 <_GLOBAL_OFFSET_TABLE_+0x3f8>
  403b86:	68 7c 00 00 00       	pushq  $0x7c
  403b8b:	e9 20 f8 ff ff       	jmpq   4033b0 <_init+0x28>

0000000000403b90 <__fxstat@plt>:
  403b90:	ff 25 6a 28 25 00    	jmpq   *0x25286a(%rip)        # 656400 <_GLOBAL_OFFSET_TABLE_+0x400>
  403b96:	68 7d 00 00 00       	pushq  $0x7d
  403b9b:	e9 10 f8 ff ff       	jmpq   4033b0 <_init+0x28>

0000000000403ba0 <lsetxattr@plt>:
  403ba0:	ff 25 62 28 25 00    	jmpq   *0x252862(%rip)        # 656408 <_GLOBAL_OFFSET_TABLE_+0x408>
  403ba6:	68 7e 00 00 00       	pushq  $0x7e
  403bab:	e9 00 f8 ff ff       	jmpq   4033b0 <_init+0x28>

0000000000403bb0 <regexec@plt>:
  403bb0:	ff 25 5a 28 25 00    	jmpq   *0x25285a(%rip)        # 656410 <_GLOBAL_OFFSET_TABLE_+0x410>
  403bb6:	68 7f 00 00 00       	pushq  $0x7f
  403bbb:	e9 f0 f7 ff ff       	jmpq   4033b0 <_init+0x28>

0000000000403bc0 <mktime@plt>:
  403bc0:	ff 25 52 28 25 00    	jmpq   *0x252852(%rip)        # 656418 <_GLOBAL_OFFSET_TABLE_+0x418>
  403bc6:	68 80 00 00 00       	pushq  $0x80
  403bcb:	e9 e0 f7 ff ff       	jmpq   4033b0 <_init+0x28>

0000000000403bd0 <fgetxattr@plt>:
  403bd0:	ff 25 4a 28 25 00    	jmpq   *0x25284a(%rip)        # 656420 <_GLOBAL_OFFSET_TABLE_+0x420>
  403bd6:	68 81 00 00 00       	pushq  $0x81
  403bdb:	e9 d0 f7 ff ff       	jmpq   4033b0 <_init+0x28>

0000000000403be0 <fchdir@plt>:
  403be0:	ff 25 42 28 25 00    	jmpq   *0x252842(%rip)        # 656428 <_GLOBAL_OFFSET_TABLE_+0x428>
  403be6:	68 82 00 00 00       	pushq  $0x82
  403beb:	e9 c0 f7 ff ff       	jmpq   4033b0 <_init+0x28>

0000000000403bf0 <fwrite_unlocked@plt>:
  403bf0:	ff 25 3a 28 25 00    	jmpq   *0x25283a(%rip)        # 656430 <_GLOBAL_OFFSET_TABLE_+0x430>
  403bf6:	68 83 00 00 00       	pushq  $0x83
  403bfb:	e9 b0 f7 ff ff       	jmpq   4033b0 <_init+0x28>

0000000000403c00 <__vsnprintf_chk@plt>:
  403c00:	ff 25 32 28 25 00    	jmpq   *0x252832(%rip)        # 656438 <_GLOBAL_OFFSET_TABLE_+0x438>
  403c06:	68 84 00 00 00       	pushq  $0x84
  403c0b:	e9 a0 f7 ff ff       	jmpq   4033b0 <_init+0x28>

0000000000403c10 <realloc@plt>:
  403c10:	ff 25 2a 28 25 00    	jmpq   *0x25282a(%rip)        # 656440 <_GLOBAL_OFFSET_TABLE_+0x440>
  403c16:	68 85 00 00 00       	pushq  $0x85
  403c1b:	e9 90 f7 ff ff       	jmpq   4033b0 <_init+0x28>

0000000000403c20 <__strcpy_chk@plt>:
  403c20:	ff 25 22 28 25 00    	jmpq   *0x252822(%rip)        # 656448 <_GLOBAL_OFFSET_TABLE_+0x448>
  403c26:	68 86 00 00 00       	pushq  $0x86
  403c2b:	e9 80 f7 ff ff       	jmpq   4033b0 <_init+0x28>

0000000000403c30 <fdopen@plt>:
  403c30:	ff 25 1a 28 25 00    	jmpq   *0x25281a(%rip)        # 656450 <_GLOBAL_OFFSET_TABLE_+0x450>
  403c36:	68 87 00 00 00       	pushq  $0x87
  403c3b:	e9 70 f7 ff ff       	jmpq   4033b0 <_init+0x28>

0000000000403c40 <__xmknodat@plt>:
  403c40:	ff 25 12 28 25 00    	jmpq   *0x252812(%rip)        # 656458 <_GLOBAL_OFFSET_TABLE_+0x458>
  403c46:	68 88 00 00 00       	pushq  $0x88
  403c4b:	e9 60 f7 ff ff       	jmpq   4033b0 <_init+0x28>

0000000000403c50 <linkat@plt>:
  403c50:	ff 25 0a 28 25 00    	jmpq   *0x25280a(%rip)        # 656460 <_GLOBAL_OFFSET_TABLE_+0x460>
  403c56:	68 89 00 00 00       	pushq  $0x89
  403c5b:	e9 50 f7 ff ff       	jmpq   4033b0 <_init+0x28>

0000000000403c60 <mkdtemp@plt>:
  403c60:	ff 25 02 28 25 00    	jmpq   *0x252802(%rip)        # 656468 <_GLOBAL_OFFSET_TABLE_+0x468>
  403c66:	68 8a 00 00 00       	pushq  $0x8a
  403c6b:	e9 40 f7 ff ff       	jmpq   4033b0 <_init+0x28>

0000000000403c70 <setlocale@plt>:
  403c70:	ff 25 fa 27 25 00    	jmpq   *0x2527fa(%rip)        # 656470 <_GLOBAL_OFFSET_TABLE_+0x470>
  403c76:	68 8b 00 00 00       	pushq  $0x8b
  403c7b:	e9 30 f7 ff ff       	jmpq   4033b0 <_init+0x28>

0000000000403c80 <_obstack_newchunk@plt>:
  403c80:	ff 25 f2 27 25 00    	jmpq   *0x2527f2(%rip)        # 656478 <_GLOBAL_OFFSET_TABLE_+0x478>
  403c86:	68 8c 00 00 00       	pushq  $0x8c
  403c8b:	e9 20 f7 ff ff       	jmpq   4033b0 <_init+0x28>

0000000000403c90 <__printf_chk@plt>:
  403c90:	ff 25 ea 27 25 00    	jmpq   *0x2527ea(%rip)        # 656480 <_GLOBAL_OFFSET_TABLE_+0x480>
  403c96:	68 8d 00 00 00       	pushq  $0x8d
  403c9b:	e9 10 f7 ff ff       	jmpq   4033b0 <_init+0x28>

0000000000403ca0 <fchmod@plt>:
  403ca0:	ff 25 e2 27 25 00    	jmpq   *0x2527e2(%rip)        # 656488 <_GLOBAL_OFFSET_TABLE_+0x488>
  403ca6:	68 8e 00 00 00       	pushq  $0x8e
  403cab:	e9 00 f7 ff ff       	jmpq   4033b0 <_init+0x28>

0000000000403cb0 <strftime@plt>:
  403cb0:	ff 25 da 27 25 00    	jmpq   *0x2527da(%rip)        # 656490 <_GLOBAL_OFFSET_TABLE_+0x490>
  403cb6:	68 8f 00 00 00       	pushq  $0x8f
  403cbb:	e9 f0 f6 ff ff       	jmpq   4033b0 <_init+0x28>

0000000000403cc0 <mempcpy@plt>:
  403cc0:	ff 25 d2 27 25 00    	jmpq   *0x2527d2(%rip)        # 656498 <_GLOBAL_OFFSET_TABLE_+0x498>
  403cc6:	68 90 00 00 00       	pushq  $0x90
  403ccb:	e9 e0 f6 ff ff       	jmpq   4033b0 <_init+0x28>

0000000000403cd0 <memmove@plt>:
  403cd0:	ff 25 ca 27 25 00    	jmpq   *0x2527ca(%rip)        # 6564a0 <_GLOBAL_OFFSET_TABLE_+0x4a0>
  403cd6:	68 91 00 00 00       	pushq  $0x91
  403cdb:	e9 d0 f6 ff ff       	jmpq   4033b0 <_init+0x28>

0000000000403ce0 <error@plt>:
  403ce0:	ff 25 c2 27 25 00    	jmpq   *0x2527c2(%rip)        # 6564a8 <_GLOBAL_OFFSET_TABLE_+0x4a8>
  403ce6:	68 92 00 00 00       	pushq  $0x92
  403ceb:	e9 c0 f6 ff ff       	jmpq   4033b0 <_init+0x28>

0000000000403cf0 <fsync@plt>:
  403cf0:	ff 25 ba 27 25 00    	jmpq   *0x2527ba(%rip)        # 6564b0 <_GLOBAL_OFFSET_TABLE_+0x4b0>
  403cf6:	68 93 00 00 00       	pushq  $0x93
  403cfb:	e9 b0 f6 ff ff       	jmpq   4033b0 <_init+0x28>

0000000000403d00 <setgid@plt>:
  403d00:	ff 25 b2 27 25 00    	jmpq   *0x2527b2(%rip)        # 6564b8 <_GLOBAL_OFFSET_TABLE_+0x4b8>
  403d06:	68 94 00 00 00       	pushq  $0x94
  403d0b:	e9 a0 f6 ff ff       	jmpq   4033b0 <_init+0x28>

0000000000403d10 <memrchr@plt>:
  403d10:	ff 25 aa 27 25 00    	jmpq   *0x2527aa(%rip)        # 6564c0 <_GLOBAL_OFFSET_TABLE_+0x4c0>
  403d16:	68 95 00 00 00       	pushq  $0x95
  403d1b:	e9 90 f6 ff ff       	jmpq   4033b0 <_init+0x28>

0000000000403d20 <waitpid@plt>:
  403d20:	ff 25 a2 27 25 00    	jmpq   *0x2527a2(%rip)        # 6564c8 <_GLOBAL_OFFSET_TABLE_+0x4c8>
  403d26:	68 96 00 00 00       	pushq  $0x96
  403d2b:	e9 80 f6 ff ff       	jmpq   4033b0 <_init+0x28>

0000000000403d30 <open@plt>:
  403d30:	ff 25 9a 27 25 00    	jmpq   *0x25279a(%rip)        # 6564d0 <_GLOBAL_OFFSET_TABLE_+0x4d0>
  403d36:	68 97 00 00 00       	pushq  $0x97
  403d3b:	e9 70 f6 ff ff       	jmpq   4033b0 <_init+0x28>

0000000000403d40 <access@plt>:
  403d40:	ff 25 92 27 25 00    	jmpq   *0x252792(%rip)        # 6564d8 <_GLOBAL_OFFSET_TABLE_+0x4d8>
  403d46:	68 98 00 00 00       	pushq  $0x98
  403d4b:	e9 60 f6 ff ff       	jmpq   4033b0 <_init+0x28>

0000000000403d50 <fseeko@plt>:
  403d50:	ff 25 8a 27 25 00    	jmpq   *0x25278a(%rip)        # 6564e0 <_GLOBAL_OFFSET_TABLE_+0x4e0>
  403d56:	68 99 00 00 00       	pushq  $0x99
  403d5b:	e9 50 f6 ff ff       	jmpq   4033b0 <_init+0x28>

0000000000403d60 <fchown@plt>:
  403d60:	ff 25 82 27 25 00    	jmpq   *0x252782(%rip)        # 6564e8 <_GLOBAL_OFFSET_TABLE_+0x4e8>
  403d66:	68 9a 00 00 00       	pushq  $0x9a
  403d6b:	e9 40 f6 ff ff       	jmpq   4033b0 <_init+0x28>

0000000000403d70 <fopen@plt>:
  403d70:	ff 25 7a 27 25 00    	jmpq   *0x25277a(%rip)        # 6564f0 <_GLOBAL_OFFSET_TABLE_+0x4f0>
  403d76:	68 9b 00 00 00       	pushq  $0x9b
  403d7b:	e9 30 f6 ff ff       	jmpq   4033b0 <_init+0x28>

0000000000403d80 <dcngettext@plt>:
  403d80:	ff 25 72 27 25 00    	jmpq   *0x252772(%rip)        # 6564f8 <_GLOBAL_OFFSET_TABLE_+0x4f8>
  403d86:	68 9c 00 00 00       	pushq  $0x9c
  403d8b:	e9 20 f6 ff ff       	jmpq   4033b0 <_init+0x28>

0000000000403d90 <strtok@plt>:
  403d90:	ff 25 6a 27 25 00    	jmpq   *0x25276a(%rip)        # 656500 <_GLOBAL_OFFSET_TABLE_+0x500>
  403d96:	68 9d 00 00 00       	pushq  $0x9d
  403d9b:	e9 10 f6 ff ff       	jmpq   4033b0 <_init+0x28>

0000000000403da0 <towlower@plt>:
  403da0:	ff 25 62 27 25 00    	jmpq   *0x252762(%rip)        # 656508 <_GLOBAL_OFFSET_TABLE_+0x508>
  403da6:	68 9e 00 00 00       	pushq  $0x9e
  403dab:	e9 00 f6 ff ff       	jmpq   4033b0 <_init+0x28>

0000000000403db0 <gmtime@plt>:
  403db0:	ff 25 5a 27 25 00    	jmpq   *0x25275a(%rip)        # 656510 <_GLOBAL_OFFSET_TABLE_+0x510>
  403db6:	68 9f 00 00 00       	pushq  $0x9f
  403dbb:	e9 f0 f5 ff ff       	jmpq   4033b0 <_init+0x28>

0000000000403dc0 <fdopendir@plt>:
  403dc0:	ff 25 52 27 25 00    	jmpq   *0x252752(%rip)        # 656518 <_GLOBAL_OFFSET_TABLE_+0x518>
  403dc6:	68 a0 00 00 00       	pushq  $0xa0
  403dcb:	e9 e0 f5 ff ff       	jmpq   4033b0 <_init+0x28>

0000000000403dd0 <unsetenv@plt>:
  403dd0:	ff 25 4a 27 25 00    	jmpq   *0x25274a(%rip)        # 656520 <_GLOBAL_OFFSET_TABLE_+0x520>
  403dd6:	68 a1 00 00 00       	pushq  $0xa1
  403ddb:	e9 d0 f5 ff ff       	jmpq   4033b0 <_init+0x28>

0000000000403de0 <futimens@plt>:
  403de0:	ff 25 42 27 25 00    	jmpq   *0x252742(%rip)        # 656528 <_GLOBAL_OFFSET_TABLE_+0x528>
  403de6:	68 a2 00 00 00       	pushq  $0xa2
  403deb:	e9 c0 f5 ff ff       	jmpq   4033b0 <_init+0x28>

0000000000403df0 <strtoul@plt>:
  403df0:	ff 25 3a 27 25 00    	jmpq   *0x25273a(%rip)        # 656530 <_GLOBAL_OFFSET_TABLE_+0x530>
  403df6:	68 a3 00 00 00       	pushq  $0xa3
  403dfb:	e9 b0 f5 ff ff       	jmpq   4033b0 <_init+0x28>

0000000000403e00 <execvp@plt>:
  403e00:	ff 25 32 27 25 00    	jmpq   *0x252732(%rip)        # 656538 <_GLOBAL_OFFSET_TABLE_+0x538>
  403e06:	68 a4 00 00 00       	pushq  $0xa4
  403e0b:	e9 a0 f5 ff ff       	jmpq   4033b0 <_init+0x28>

0000000000403e10 <fchownat@plt>:
  403e10:	ff 25 2a 27 25 00    	jmpq   *0x25272a(%rip)        # 656540 <_GLOBAL_OFFSET_TABLE_+0x540>
  403e16:	68 a5 00 00 00       	pushq  $0xa5
  403e1b:	e9 90 f5 ff ff       	jmpq   4033b0 <_init+0x28>

0000000000403e20 <getxattr@plt>:
  403e20:	ff 25 22 27 25 00    	jmpq   *0x252722(%rip)        # 656548 <_GLOBAL_OFFSET_TABLE_+0x548>
  403e26:	68 a6 00 00 00       	pushq  $0xa6
  403e2b:	e9 80 f5 ff ff       	jmpq   4033b0 <_init+0x28>

0000000000403e30 <renameat@plt>:
  403e30:	ff 25 1a 27 25 00    	jmpq   *0x25271a(%rip)        # 656550 <_GLOBAL_OFFSET_TABLE_+0x550>
  403e36:	68 a7 00 00 00       	pushq  $0xa7
  403e3b:	e9 70 f5 ff ff       	jmpq   4033b0 <_init+0x28>

0000000000403e40 <creat@plt>:
  403e40:	ff 25 12 27 25 00    	jmpq   *0x252712(%rip)        # 656558 <_GLOBAL_OFFSET_TABLE_+0x558>
  403e46:	68 a8 00 00 00       	pushq  $0xa8
  403e4b:	e9 60 f5 ff ff       	jmpq   4033b0 <_init+0x28>

0000000000403e50 <getpagesize@plt>:
  403e50:	ff 25 0a 27 25 00    	jmpq   *0x25270a(%rip)        # 656560 <_GLOBAL_OFFSET_TABLE_+0x560>
  403e56:	68 a9 00 00 00       	pushq  $0xa9
  403e5b:	e9 50 f5 ff ff       	jmpq   4033b0 <_init+0x28>

0000000000403e60 <exit@plt>:
  403e60:	ff 25 02 27 25 00    	jmpq   *0x252702(%rip)        # 656568 <_GLOBAL_OFFSET_TABLE_+0x568>
  403e66:	68 aa 00 00 00       	pushq  $0xaa
  403e6b:	e9 40 f5 ff ff       	jmpq   4033b0 <_init+0x28>

0000000000403e70 <fwrite@plt>:
  403e70:	ff 25 fa 26 25 00    	jmpq   *0x2526fa(%rip)        # 656570 <_GLOBAL_OFFSET_TABLE_+0x570>
  403e76:	68 ab 00 00 00       	pushq  $0xab
  403e7b:	e9 30 f5 ff ff       	jmpq   4033b0 <_init+0x28>

0000000000403e80 <__fprintf_chk@plt>:
  403e80:	ff 25 f2 26 25 00    	jmpq   *0x2526f2(%rip)        # 656578 <_GLOBAL_OFFSET_TABLE_+0x578>
  403e86:	68 ac 00 00 00       	pushq  $0xac
  403e8b:	e9 20 f5 ff ff       	jmpq   4033b0 <_init+0x28>

0000000000403e90 <setxattr@plt>:
  403e90:	ff 25 ea 26 25 00    	jmpq   *0x2526ea(%rip)        # 656580 <_GLOBAL_OFFSET_TABLE_+0x580>
  403e96:	68 ad 00 00 00       	pushq  $0xad
  403e9b:	e9 10 f5 ff ff       	jmpq   4033b0 <_init+0x28>

0000000000403ea0 <setuid@plt>:
  403ea0:	ff 25 e2 26 25 00    	jmpq   *0x2526e2(%rip)        # 656588 <_GLOBAL_OFFSET_TABLE_+0x588>
  403ea6:	68 ae 00 00 00       	pushq  $0xae
  403eab:	e9 00 f5 ff ff       	jmpq   4033b0 <_init+0x28>

0000000000403eb0 <fflush_unlocked@plt>:
  403eb0:	ff 25 da 26 25 00    	jmpq   *0x2526da(%rip)        # 656590 <_GLOBAL_OFFSET_TABLE_+0x590>
  403eb6:	68 af 00 00 00       	pushq  $0xaf
  403ebb:	e9 f0 f4 ff ff       	jmpq   4033b0 <_init+0x28>

0000000000403ec0 <mbsinit@plt>:
  403ec0:	ff 25 d2 26 25 00    	jmpq   *0x2526d2(%rip)        # 656598 <_GLOBAL_OFFSET_TABLE_+0x598>
  403ec6:	68 b0 00 00 00       	pushq  $0xb0
  403ecb:	e9 e0 f4 ff ff       	jmpq   4033b0 <_init+0x28>

0000000000403ed0 <symlinkat@plt>:
  403ed0:	ff 25 ca 26 25 00    	jmpq   *0x2526ca(%rip)        # 6565a0 <_GLOBAL_OFFSET_TABLE_+0x5a0>
  403ed6:	68 b1 00 00 00       	pushq  $0xb1
  403edb:	e9 d0 f4 ff ff       	jmpq   4033b0 <_init+0x28>

0000000000403ee0 <execlp@plt>:
  403ee0:	ff 25 c2 26 25 00    	jmpq   *0x2526c2(%rip)        # 6565a8 <_GLOBAL_OFFSET_TABLE_+0x5a8>
  403ee6:	68 b2 00 00 00       	pushq  $0xb2
  403eeb:	e9 c0 f4 ff ff       	jmpq   4033b0 <_init+0x28>

0000000000403ef0 <strerror@plt>:
  403ef0:	ff 25 ba 26 25 00    	jmpq   *0x2526ba(%rip)        # 6565b0 <_GLOBAL_OFFSET_TABLE_+0x5b0>
  403ef6:	68 b3 00 00 00       	pushq  $0xb3
  403efb:	e9 b0 f4 ff ff       	jmpq   4033b0 <_init+0x28>

0000000000403f00 <execl@plt>:
  403f00:	ff 25 b2 26 25 00    	jmpq   *0x2526b2(%rip)        # 6565b8 <_GLOBAL_OFFSET_TABLE_+0x5b8>
  403f06:	68 b4 00 00 00       	pushq  $0xb4
  403f0b:	e9 a0 f4 ff ff       	jmpq   4033b0 <_init+0x28>

0000000000403f10 <iswprint@plt>:
  403f10:	ff 25 aa 26 25 00    	jmpq   *0x2526aa(%rip)        # 6565c0 <_GLOBAL_OFFSET_TABLE_+0x5c0>
  403f16:	68 b5 00 00 00       	pushq  $0xb5
  403f1b:	e9 90 f4 ff ff       	jmpq   4033b0 <_init+0x28>

0000000000403f20 <sleep@plt>:
  403f20:	ff 25 a2 26 25 00    	jmpq   *0x2526a2(%rip)        # 6565c8 <_GLOBAL_OFFSET_TABLE_+0x5c8>
  403f26:	68 b6 00 00 00       	pushq  $0xb6
  403f2b:	e9 80 f4 ff ff       	jmpq   4033b0 <_init+0x28>

0000000000403f30 <fork@plt>:
  403f30:	ff 25 9a 26 25 00    	jmpq   *0x25269a(%rip)        # 6565d0 <_GLOBAL_OFFSET_TABLE_+0x5d0>
  403f36:	68 b7 00 00 00       	pushq  $0xb7
  403f3b:	e9 70 f4 ff ff       	jmpq   4033b0 <_init+0x28>

0000000000403f40 <futimesat@plt>:
  403f40:	ff 25 92 26 25 00    	jmpq   *0x252692(%rip)        # 6565d8 <_GLOBAL_OFFSET_TABLE_+0x5d8>
  403f46:	68 b8 00 00 00       	pushq  $0xb8
  403f4b:	e9 60 f4 ff ff       	jmpq   4033b0 <_init+0x28>

0000000000403f50 <__ctype_tolower_loc@plt>:
  403f50:	ff 25 8a 26 25 00    	jmpq   *0x25268a(%rip)        # 6565e0 <_GLOBAL_OFFSET_TABLE_+0x5e0>
  403f56:	68 b9 00 00 00       	pushq  $0xb9
  403f5b:	e9 50 f4 ff ff       	jmpq   4033b0 <_init+0x28>

0000000000403f60 <__ctype_b_loc@plt>:
  403f60:	ff 25 82 26 25 00    	jmpq   *0x252682(%rip)        # 6565e8 <_GLOBAL_OFFSET_TABLE_+0x5e8>
  403f66:	68 ba 00 00 00       	pushq  $0xba
  403f6b:	e9 40 f4 ff ff       	jmpq   4033b0 <_init+0x28>

0000000000403f70 <iconv_open@plt>:
  403f70:	ff 25 7a 26 25 00    	jmpq   *0x25267a(%rip)        # 6565f0 <_GLOBAL_OFFSET_TABLE_+0x5f0>
  403f76:	68 bb 00 00 00       	pushq  $0xbb
  403f7b:	e9 30 f4 ff ff       	jmpq   4033b0 <_init+0x28>

0000000000403f80 <__sprintf_chk@plt>:
  403f80:	ff 25 72 26 25 00    	jmpq   *0x252672(%rip)        # 6565f8 <_GLOBAL_OFFSET_TABLE_+0x5f8>
  403f86:	68 bc 00 00 00       	pushq  $0xbc
  403f8b:	e9 20 f4 ff ff       	jmpq   4033b0 <_init+0x28>

Disassembly of section .text:

0000000000403f90 <str_to_env>:
  403f90:	48 85 f6             	test   %rsi,%rsi
  403f93:	74 14                	je     403fa9 <str_to_env+0x19>
  403f95:	52                   	push   %rdx
  403f96:	ba 01 00 00 00       	mov    $0x1,%edx
  403f9b:	e8 50 f6 ff ff       	callq  4035f0 <setenv@plt>
  403fa0:	85 c0                	test   %eax,%eax
  403fa2:	74 0a                	je     403fae <str_to_env+0x1e>
  403fa4:	e8 e7 ab 00 00       	callq  40eb90 <xalloc_die>
  403fa9:	e9 22 fe ff ff       	jmpq   403dd0 <unsetenv@plt>
  403fae:	58                   	pop    %rax
  403faf:	c3                   	retq   

0000000000403fb0 <time_to_env>:
  403fb0:	53                   	push   %rbx
  403fb1:	48 89 d0             	mov    %rdx,%rax
  403fb4:	48 89 fb             	mov    %rdi,%rbx
  403fb7:	48 89 f7             	mov    %rsi,%rdi
  403fba:	48 89 c6             	mov    %rax,%rsi
  403fbd:	48 83 ec 30          	sub    $0x30,%rsp
  403fc1:	48 89 e2             	mov    %rsp,%rdx
  403fc4:	64 48 8b 0c 25 28 00 	mov    %fs:0x28,%rcx
  403fcb:	00 00 
  403fcd:	48 89 4c 24 28       	mov    %rcx,0x28(%rsp)
  403fd2:	31 c9                	xor    %ecx,%ecx
  403fd4:	e8 b7 70 01 00       	callq  41b090 <code_timespec>
  403fd9:	ba 01 00 00 00       	mov    $0x1,%edx
  403fde:	48 89 c6             	mov    %rax,%rsi
  403fe1:	48 89 df             	mov    %rbx,%rdi
  403fe4:	e8 07 f6 ff ff       	callq  4035f0 <setenv@plt>
  403fe9:	85 c0                	test   %eax,%eax
  403feb:	74 05                	je     403ff2 <time_to_env+0x42>
  403fed:	e8 9e ab 00 00       	callq  40eb90 <xalloc_die>
  403ff2:	48 8b 44 24 28       	mov    0x28(%rsp),%rax
  403ff7:	64 48 33 04 25 28 00 	xor    %fs:0x28,%rax
  403ffe:	00 00 
  404000:	74 05                	je     404007 <time_to_env+0x57>
  404002:	e8 39 f7 ff ff       	callq  403740 <__stack_chk_fail@plt>
  404007:	48 83 c4 30          	add    $0x30,%rsp
  40400b:	5b                   	pop    %rbx
  40400c:	c3                   	retq   

000000000040400d <dec_to_env>:
  40400d:	53                   	push   %rbx
  40400e:	48 89 fb             	mov    %rdi,%rbx
  404011:	48 89 f7             	mov    %rsi,%rdi
  404014:	48 83 ec 20          	sub    $0x20,%rsp
  404018:	48 89 e6             	mov    %rsp,%rsi
  40401b:	64 48 8b 04 25 28 00 	mov    %fs:0x28,%rax
  404022:	00 00 
  404024:	48 89 44 24 18       	mov    %rax,0x18(%rsp)
  404029:	31 c0                	xor    %eax,%eax
  40402b:	e8 e0 12 03 00       	callq  435310 <umaxtostr>
  404030:	ba 01 00 00 00       	mov    $0x1,%edx
  404035:	48 89 c6             	mov    %rax,%rsi
  404038:	48 89 df             	mov    %rbx,%rdi
  40403b:	e8 b0 f5 ff ff       	callq  4035f0 <setenv@plt>
  404040:	85 c0                	test   %eax,%eax
  404042:	74 05                	je     404049 <dec_to_env+0x3c>
  404044:	e8 47 ab 00 00       	callq  40eb90 <xalloc_die>
  404049:	48 8b 44 24 18       	mov    0x18(%rsp),%rax
  40404e:	64 48 33 04 25 28 00 	xor    %fs:0x28,%rax
  404055:	00 00 
  404057:	74 05                	je     40405e <dec_to_env+0x51>
  404059:	e8 e2 f6 ff ff       	callq  403740 <__stack_chk_fail@plt>
  40405e:	48 83 c4 20          	add    $0x20,%rsp
  404062:	5b                   	pop    %rbx
  404063:	c3                   	retq   

0000000000404064 <request_stdin.part.2>:
  404064:	55                   	push   %rbp
  404065:	53                   	push   %rbx
  404066:	48 89 fb             	mov    %rdi,%rbx
  404069:	50                   	push   %rax
  40406a:	48 8b 05 17 63 25 00 	mov    0x256317(%rip),%rax        # 65a388 <error_hook>
  404071:	48 85 c0             	test   %rax,%rax
  404074:	74 02                	je     404078 <request_stdin.part.2+0x14>
  404076:	ff d0                	callq  *%rax
  404078:	48 8b 2d d9 5a 25 00 	mov    0x255ad9(%rip),%rbp        # 659b58 <stdin_used_by>
  40407f:	ba 05 00 00 00       	mov    $0x5,%edx
  404084:	be 20 2b 44 00       	mov    $0x442b20,%esi
  404089:	31 ff                	xor    %edi,%edi
  40408b:	e8 40 f6 ff ff       	callq  4036d0 <dcgettext@plt>
  404090:	31 ff                	xor    %edi,%edi
  404092:	48 89 c2             	mov    %rax,%rdx
  404095:	49 89 d8             	mov    %rbx,%r8
  404098:	48 89 e9             	mov    %rbp,%rcx
  40409b:	31 f6                	xor    %esi,%esi
  40409d:	31 c0                	xor    %eax,%eax
  40409f:	e8 3c fc ff ff       	callq  403ce0 <error@plt>
  4040a4:	bf 02 00 00 00       	mov    $0x2,%edi
  4040a9:	e8 02 df 01 00       	callq  421fb0 <usage>

00000000004040ae <set_subcommand_option.part.4>:
  4040ae:	50                   	push   %rax
  4040af:	48 8b 05 d2 62 25 00 	mov    0x2562d2(%rip),%rax        # 65a388 <error_hook>
  4040b6:	48 85 c0             	test   %rax,%rax
  4040b9:	74 02                	je     4040bd <set_subcommand_option.part.4+0xf>
  4040bb:	ff d0                	callq  *%rax
  4040bd:	ba 05 00 00 00       	mov    $0x5,%edx
  4040c2:	be 80 2b 44 00       	mov    $0x442b80,%esi
  4040c7:	31 ff                	xor    %edi,%edi
  4040c9:	e8 02 f6 ff ff       	callq  4036d0 <dcgettext@plt>
  4040ce:	31 ff                	xor    %edi,%edi
  4040d0:	48 89 c2             	mov    %rax,%rdx
  4040d3:	31 f6                	xor    %esi,%esi
  4040d5:	31 c0                	xor    %eax,%eax
  4040d7:	e8 04 fc ff ff       	callq  403ce0 <error@plt>
  4040dc:	bf 02 00 00 00       	mov    $0x2,%edi
  4040e1:	e8 ca de 01 00       	callq  421fb0 <usage>

00000000004040e6 <option_conflict_error>:
  4040e6:	55                   	push   %rbp
  4040e7:	48 89 f5             	mov    %rsi,%rbp
  4040ea:	53                   	push   %rbx
  4040eb:	48 89 fb             	mov    %rdi,%rbx
  4040ee:	50                   	push   %rax
  4040ef:	48 8b 05 92 62 25 00 	mov    0x256292(%rip),%rax        # 65a388 <error_hook>
  4040f6:	48 85 c0             	test   %rax,%rax
  4040f9:	74 02                	je     4040fd <option_conflict_error+0x17>
  4040fb:	ff d0                	callq  *%rax
  4040fd:	ba 05 00 00 00       	mov    $0x5,%edx
  404102:	be 77 1f 44 00       	mov    $0x441f77,%esi
  404107:	31 ff                	xor    %edi,%edi
  404109:	e8 c2 f5 ff ff       	callq  4036d0 <dcgettext@plt>
  40410e:	31 ff                	xor    %edi,%edi
  404110:	48 89 c2             	mov    %rax,%rdx
  404113:	49 89 e8             	mov    %rbp,%r8
  404116:	48 89 d9             	mov    %rbx,%rcx
  404119:	31 f6                	xor    %esi,%esi
  40411b:	31 c0                	xor    %eax,%eax
  40411d:	e8 be fb ff ff       	callq  403ce0 <error@plt>
  404122:	bf 02 00 00 00       	mov    $0x2,%edi
  404127:	e8 84 de 01 00       	callq  421fb0 <usage>
  40412c:	0f 1f 40 00          	nopl   0x0(%rax)

0000000000404130 <main>:
  404130:	41 57                	push   %r15
  404132:	41 56                	push   %r14
  404134:	41 55                	push   %r13
  404136:	41 54                	push   %r12
  404138:	55                   	push   %rbp
  404139:	89 fd                	mov    %edi,%ebp
  40413b:	53                   	push   %rbx
  40413c:	48 89 f3             	mov    %rsi,%rbx
  40413f:	48 83 ec 38          	sub    $0x38,%rsp
  404143:	e8 08 18 00 00       	callq  405950 <set_start_time>
  404148:	48 8b 3b             	mov    (%rbx),%rdi
  40414b:	e8 30 47 03 00       	callq  438880 <set_program_name>
  404150:	be e2 68 44 00       	mov    $0x4468e2,%esi
  404155:	bf 06 00 00 00       	mov    $0x6,%edi
  40415a:	e8 11 fb ff ff       	callq  403c70 <setlocale@plt>
  40415f:	be 98 1f 44 00       	mov    $0x441f98,%esi
  404164:	bf 1c 06 44 00       	mov    $0x44061c,%edi
  404169:	e8 32 f5 ff ff       	callq  4036a0 <bindtextdomain@plt>
  40416e:	bf 1c 06 44 00       	mov    $0x44061c,%edi
  404173:	e8 a8 f4 ff ff       	callq  403620 <textdomain@plt>
  404178:	be 05 00 00 00       	mov    $0x5,%esi
  40417d:	31 ff                	xor    %edi,%edi
  40417f:	c7 05 a7 4f 25 00 02 	movl   $0x2,0x254fa7(%rip)        # 659130 <exit_failure>
  404186:	00 00 00 
  404189:	c7 05 fd 5a 25 00 00 	movl   $0x0,0x255afd(%rip)        # 659c90 <exit_status>
  404190:	00 00 00 
  404193:	48 c7 05 ea 61 25 00 	movq   $0x4094c0,0x2561ea(%rip)        # 65a388 <error_hook>
  40419a:	c0 94 40 00 
  40419e:	c6 05 ab 59 25 00 0a 	movb   $0xa,0x2559ab(%rip)        # 659b50 <filename_terminator>
  4041a5:	e8 96 56 03 00       	callq  439840 <set_quoting_style>
  4041aa:	e8 d1 3d 02 00       	callq  427f80 <stdopen>
  4041af:	bf 50 00 00 00       	mov    $0x50,%edi
  4041b4:	48 c7 05 a1 59 25 00 	movq   $0xa,0x2559a1(%rip)        # 659b60 <allocated_archive_names>
  4041bb:	0a 00 00 00 
  4041bf:	e8 4c 68 03 00       	callq  43aa10 <xmalloc>
  4041c4:	31 f6                	xor    %esi,%esi
  4041c6:	bf 11 00 00 00       	mov    $0x11,%edi
  4041cb:	48 89 05 5e 60 25 00 	mov    %rax,0x25605e(%rip)        # 65a230 <archive_name_array>
  4041d2:	48 c7 05 fb 60 25 00 	movq   $0x0,0x2560fb(%rip)        # 65a2d8 <archive_names>
  4041d9:	00 00 00 00 
  4041dd:	e8 ee f7 ff ff       	callq  4039d0 <signal@plt>
  4041e2:	be 00 6a 65 00       	mov    $0x656a00,%esi
  4041e7:	bf 1c 06 44 00       	mov    $0x44061c,%edi
  4041ec:	89 6c 24 1c          	mov    %ebp,0x1c(%rsp)
  4041f0:	48 89 5c 24 28       	mov    %rbx,0x28(%rsp)
  4041f5:	e8 46 c1 02 00       	callq  430340 <argp_version_setup>
  4041fa:	bf b0 1f 44 00       	mov    $0x441fb0,%edi
  4041ff:	48 c7 05 16 59 25 00 	movq   $0x0,0x255916(%rip)        # 659b20 <args>
  404206:	00 00 00 00 
  40420a:	c7 05 14 59 25 00 00 	movl   $0x0,0x255914(%rip)        # 659b28 <args+0x8>
  404211:	00 00 00 
  404214:	c7 05 0e 59 25 00 00 	movl   $0x0,0x25590e(%rip)        # 659b2c <args+0xc>
  40421b:	00 00 00 
  40421e:	c7 05 08 59 25 00 00 	movl   $0x40000000,0x255908(%rip)        # 659b30 <args+0x10>
  404225:	00 00 40 
  404228:	c6 05 05 59 25 00 00 	movb   $0x0,0x255905(%rip)        # 659b34 <args+0x14>
  40422f:	c6 05 ff 58 25 00 00 	movb   $0x0,0x2558ff(%rip)        # 659b35 <args+0x15>
  404236:	e8 b5 f1 ff ff       	callq  4033f0 <getenv@plt>
  40423b:	48 c7 05 fa 58 25 00 	movq   $0x0,0x2558fa(%rip)        # 659b40 <args+0x20>
  404242:	00 00 00 00 
  404246:	48 89 05 eb 58 25 00 	mov    %rax,0x2558eb(%rip)        # 659b38 <args+0x18>
  40424d:	c6 05 f4 58 25 00 00 	movb   $0x0,0x2558f4(%rip)        # 659b48 <args+0x28>
  404254:	c7 05 ee 58 25 00 00 	movl   $0x0,0x2558ee(%rip)        # 659b4c <args+0x2c>
  40425b:	00 00 00 
  40425e:	c7 05 7c 60 25 00 00 	movl   $0x0,0x25607c(%rip)        # 65a2e4 <subcommand_option>
  404265:	00 00 00 
  404268:	c7 05 46 60 25 00 00 	movl   $0x0,0x256046(%rip)        # 65a2b8 <archive_format>
  40426f:	00 00 00 
  404272:	c7 05 f8 5f 25 00 14 	movl   $0x14,0x255ff8(%rip)        # 65a274 <blocking_factor>
  404279:	00 00 00 
  40427c:	48 c7 05 a1 60 25 00 	movq   $0x2800,0x2560a1(%rip)        # 65a328 <record_size>
  404283:	00 28 00 00 
  404287:	e8 54 cd 02 00       	callq  430fe0 <new_exclude>
  40428c:	8b 54 24 1c          	mov    0x1c(%rsp),%edx
  404290:	48 c7 c1 ff ff ff ff 	mov    $0xffffffffffffffff,%rcx
  404297:	48 89 05 0a 5d 25 00 	mov    %rax,0x255d0a(%rip)        # 659fa8 <excluded>
  40429e:	48 b8 00 00 00 00 00 	movabs $0x8000000000000000,%rax
  4042a5:	00 00 80 
  4042a8:	48 89 0d e9 5c 25 00 	mov    %rcx,0x255ce9(%rip)        # 659f98 <newer_mtime_option+0x8>
  4042af:	c7 05 6b 5f 25 00 08 	movl   $0x8,0x255f6b(%rip)        # 65a224 <recursion_option>
  4042b6:	00 00 00 
  4042b9:	48 89 05 d0 5c 25 00 	mov    %rax,0x255cd0(%rip)        # 659f90 <newer_mtime_option>
  4042c0:	c6 05 b5 5f 25 00 01 	movb   $0x1,0x255fb5(%rip)        # 65a27c <unquote_option>
  4042c7:	83 fa 01             	cmp    $0x1,%edx
  4042ca:	c7 05 0c 5f 25 00 01 	movl   $0x1,0x255f0c(%rip)        # 65a1e0 <tar_sparse_major>
  4042d1:	00 00 00 
  4042d4:	c7 05 e2 5c 25 00 00 	movl   $0x0,0x255ce2(%rip)        # 659fc0 <tar_sparse_minor>
  4042db:	00 00 00 
  4042de:	c7 05 a0 5e 25 00 00 	movl   $0x0,0x255ea0(%rip)        # 65a188 <savedir_sort_order>
  4042e5:	00 00 00 
  4042e8:	89 0d aa 5f 25 00    	mov    %ecx,0x255faa(%rip)        # 65a298 <owner_option>
  4042ee:	48 c7 05 cf 5e 25 00 	movq   $0x0,0x255ecf(%rip)        # 65a1c8 <owner_name_option>
  4042f5:	00 00 00 00 
  4042f9:	89 0d 41 5f 25 00    	mov    %ecx,0x255f41(%rip)        # 65a240 <group_option>
  4042ff:	48 c7 05 86 5e 25 00 	movq   $0x0,0x255e86(%rip)        # 65a190 <group_name_option>
  404306:	00 00 00 00 
  40430a:	c6 05 6f 5c 25 00 01 	movb   $0x1,0x255c6f(%rip)        # 659f80 <check_device_option>
  404311:	89 0d 7d 5f 25 00    	mov    %ecx,0x255f7d(%rip)        # 65a294 <incremental_level>
  404317:	89 0d 93 5c 25 00    	mov    %ecx,0x255c93(%rip)        # 659fb0 <seek_option>
  40431d:	0f 8e 2b 01 00 00    	jle    40444e <main+0x31e>
  404323:	48 8b 44 24 28       	mov    0x28(%rsp),%rax
  404328:	48 8b 78 08          	mov    0x8(%rax),%rdi
  40432c:	80 3f 2d             	cmpb   $0x2d,(%rdi)
  40432f:	0f 84 19 01 00 00    	je     40444e <main+0x31e>
  404335:	31 c0                	xor    %eax,%eax
  404337:	c6 44 24 20 2d       	movb   $0x2d,0x20(%rsp)
  40433c:	c6 44 24 22 00       	movb   $0x0,0x22(%rsp)
  404341:	f2 ae                	repnz scas %es:(%rdi),%al
  404343:	48 8d 5c 24 20       	lea    0x20(%rsp),%rbx
  404348:	48 f7 d1             	not    %rcx
  40434b:	8d 44 0a fe          	lea    -0x2(%rdx,%rcx,1),%eax
  40434f:	8d 78 01             	lea    0x1(%rax),%edi
  404352:	89 44 24 0c          	mov    %eax,0xc(%rsp)
  404356:	48 63 ff             	movslq %edi,%rdi
  404359:	48 c1 e7 03          	shl    $0x3,%rdi
  40435d:	e8 ae 66 03 00       	callq  43aa10 <xmalloc>
  404362:	48 8b 54 24 28       	mov    0x28(%rsp),%rdx
  404367:	49 89 c4             	mov    %rax,%r12
  40436a:	4c 8d 70 08          	lea    0x8(%rax),%r14
  40436e:	48 8b 02             	mov    (%rdx),%rax
  404371:	4c 8d 6a 10          	lea    0x10(%rdx),%r13
  404375:	49 89 04 24          	mov    %rax,(%r12)
  404379:	4c 8b 7a 08          	mov    0x8(%rdx),%r15
  40437d:	41 0f b6 07          	movzbl (%r15),%eax
  404381:	84 c0                	test   %al,%al
  404383:	74 74                	je     4043f9 <main+0x2c9>
  404385:	0f 1f 00             	nopl   (%rax)
  404388:	48 89 df             	mov    %rbx,%rdi
  40438b:	88 44 24 21          	mov    %al,0x21(%rsp)
  40438f:	49 8d 6e 08          	lea    0x8(%r14),%rbp
  404393:	e8 68 68 03 00       	callq  43ac00 <xstrdup>
  404398:	ba 80 6a 65 00       	mov    $0x656a80,%edx
  40439d:	49 89 06             	mov    %rax,(%r14)
  4043a0:	41 0f be 07          	movsbl (%r15),%eax
  4043a4:	eb 16                	jmp    4043bc <main+0x28c>
  4043a6:	66 2e 0f 1f 84 00 00 	nopw   %cs:0x0(%rax,%rax,1)
  4043ad:	00 00 00 
  4043b0:	39 c8                	cmp    %ecx,%eax
  4043b2:	0f 84 38 08 00 00    	je     404bf0 <main+0xac0>
  4043b8:	48 83 c2 30          	add    $0x30,%rdx
  4043bc:	48 83 3a 00          	cmpq   $0x0,(%rdx)
  4043c0:	8b 4a 08             	mov    0x8(%rdx),%ecx
  4043c3:	75 eb                	jne    4043b0 <main+0x280>
  4043c5:	85 c9                	test   %ecx,%ecx
  4043c7:	75 e7                	jne    4043b0 <main+0x280>
  4043c9:	48 83 7a 10 00       	cmpq   $0x0,0x10(%rdx)
  4043ce:	75 e0                	jne    4043b0 <main+0x280>
  4043d0:	44 8b 52 18          	mov    0x18(%rdx),%r10d
  4043d4:	45 85 d2             	test   %r10d,%r10d
  4043d7:	75 d7                	jne    4043b0 <main+0x280>
  4043d9:	48 83 7a 20 00       	cmpq   $0x0,0x20(%rdx)
  4043de:	75 d0                	jne    4043b0 <main+0x280>
  4043e0:	49 89 ee             	mov    %rbp,%r14
  4043e3:	0f 1f 44 00 00       	nopl   0x0(%rax,%rax,1)
  4043e8:	49 83 c7 01          	add    $0x1,%r15
  4043ec:	41 0f b6 07          	movzbl (%r15),%eax
  4043f0:	84 c0                	test   %al,%al
  4043f2:	75 94                	jne    404388 <main+0x258>
  4043f4:	48 8b 54 24 28       	mov    0x28(%rsp),%rdx
  4043f9:	48 63 44 24 1c       	movslq 0x1c(%rsp),%rax
  4043fe:	48 8d 3c c2          	lea    (%rdx,%rax,8),%rdi
  404402:	49 39 fd             	cmp    %rdi,%r13
  404405:	73 31                	jae    404438 <main+0x308>
  404407:	4c 89 e8             	mov    %r13,%rax
  40440a:	4c 89 f2             	mov    %r14,%rdx
  40440d:	0f 1f 00             	nopl   (%rax)
  404410:	48 83 c0 08          	add    $0x8,%rax
  404414:	48 8b 48 f8          	mov    -0x8(%rax),%rcx
  404418:	48 83 c2 08          	add    $0x8,%rdx
  40441c:	48 39 f8             	cmp    %rdi,%rax
  40441f:	48 89 4a f8          	mov    %rcx,-0x8(%rdx)
  404423:	72 eb                	jb     404410 <main+0x2e0>
  404425:	4c 89 ee             	mov    %r13,%rsi
  404428:	48 f7 d6             	not    %rsi
  40442b:	48 8d 04 3e          	lea    (%rsi,%rdi,1),%rax
  40442f:	48 c1 e8 03          	shr    $0x3,%rax
  404433:	4d 8d 74 c6 08       	lea    0x8(%r14,%rax,8),%r14
  404438:	8b 44 24 0c          	mov    0xc(%rsp),%eax
  40443c:	49 c7 06 00 00 00 00 	movq   $0x0,(%r14)
  404443:	4c 89 64 24 28       	mov    %r12,0x28(%rsp)
  404448:	89 44 24 1c          	mov    %eax,0x1c(%rsp)
  40444c:	eb 05                	jmp    404453 <main+0x323>
  40444e:	48 8d 5c 24 20       	lea    0x20(%rsp),%rbx
  404453:	bf c5 1f 44 00       	mov    $0x441fc5,%edi
  404458:	e8 93 ef ff ff       	callq  4033f0 <getenv@plt>
  40445d:	48 8d 54 24 28       	lea    0x28(%rsp),%rdx
  404462:	48 8d 74 24 1c       	lea    0x1c(%rsp),%rsi
  404467:	48 89 c7             	mov    %rax,%rdi
  40446a:	e8 e1 2b 02 00       	callq  427050 <prepend_default_options>
  40446f:	48 8b 54 24 28       	mov    0x28(%rsp),%rdx
  404474:	8b 74 24 1c          	mov    0x1c(%rsp),%esi
  404478:	41 b9 20 9b 65 00    	mov    $0x659b20,%r9d
  40447e:	49 89 d8             	mov    %rbx,%r8
  404481:	b9 08 00 00 00       	mov    $0x8,%ecx
  404486:	bf 20 6a 65 00       	mov    $0x656a20,%edi
  40448b:	e8 70 af 02 00       	callq  42f400 <argp_parse>
  404490:	85 c0                	test   %eax,%eax
  404492:	0f 85 1b 0c 00 00    	jne    4050b3 <main+0xf83>
  404498:	80 3d 95 56 25 00 00 	cmpb   $0x0,0x255695(%rip)        # 659b34 <args+0x14>
  40449f:	74 17                	je     4044b8 <main+0x388>
  4044a1:	83 3d 3c 5e 25 00 03 	cmpl   $0x3,0x255e3c(%rip)        # 65a2e4 <subcommand_option>
  4044a8:	0f 84 87 09 00 00    	je     404e35 <main+0xd05>
  4044ae:	c7 05 b4 5e 25 00 ff 	movl   $0xffffffff,0x255eb4(%rip)        # 65a36c <same_owner_option>
  4044b5:	ff ff ff 
  4044b8:	48 63 54 24 20       	movslq 0x20(%rsp),%rdx
  4044bd:	31 db                	xor    %ebx,%ebx
  4044bf:	39 54 24 1c          	cmp    %edx,0x1c(%rsp)
  4044c3:	7f 0e                	jg     4044d3 <main+0x3a3>
  4044c5:	eb 55                	jmp    40451c <main+0x3ec>
  4044c7:	66 0f 1f 84 00 00 00 	nopw   0x0(%rax,%rax,1)
  4044ce:	00 00 
  4044d0:	48 63 d0             	movslq %eax,%rdx
  4044d3:	83 3d 4e 56 25 00 02 	cmpl   $0x2,0x25564e(%rip)        # 659b28 <args+0x8>
  4044da:	b8 00 00 00 10       	mov    $0x10000000,%eax
  4044df:	8b 35 47 56 25 00    	mov    0x255647(%rip),%esi        # 659b2c <args+0xc>
  4044e5:	48 8b 4c 24 28       	mov    0x28(%rsp),%rcx
  4044ea:	0f 45 c3             	cmovne %ebx,%eax
  4044ed:	0b 35 3d 56 25 00    	or     0x25563d(%rip),%esi        # 659b30 <args+0x10>
  4044f3:	48 8b 3c d1          	mov    (%rcx,%rdx,8),%rdi
  4044f7:	0b 35 27 5d 25 00    	or     0x255d27(%rip),%esi        # 65a224 <recursion_option>
  4044fd:	09 c6                	or     %eax,%esi
  4044ff:	e8 2c 8a 01 00       	callq  41cf30 <name_add_name>
  404504:	8b 44 24 20          	mov    0x20(%rsp),%eax
  404508:	c6 05 39 56 25 00 01 	movb   $0x1,0x255639(%rip)        # 659b48 <args+0x28>
  40450f:	83 c0 01             	add    $0x1,%eax
  404512:	3b 44 24 1c          	cmp    0x1c(%rsp),%eax
  404516:	89 44 24 20          	mov    %eax,0x20(%rsp)
  40451a:	7c b4                	jl     4044d0 <main+0x3a0>
  40451c:	44 8b 05 05 56 25 00 	mov    0x255605(%rip),%r8d        # 659b28 <args+0x8>
  404523:	44 8b 0d 8e 5d 25 00 	mov    0x255d8e(%rip),%r9d        # 65a2b8 <archive_format>
  40452a:	45 85 c0             	test   %r8d,%r8d
  40452d:	0f 94 05 05 5d 25 00 	sete   0x255d05(%rip)        # 65a239 <warn_regex_usage>
  404534:	45 85 c9             	test   %r9d,%r9d
  404537:	75 15                	jne    40454e <main+0x41e>
  404539:	80 3d f5 55 25 00 01 	cmpb   $0x1,0x2555f5(%rip)        # 659b35 <args+0x15>
  404540:	19 c0                	sbb    %eax,%eax
  404542:	83 e0 02             	and    $0x2,%eax
  404545:	83 c0 04             	add    $0x4,%eax
  404548:	89 05 6a 5d 25 00    	mov    %eax,0x255d6a(%rip)        # 65a2b8 <archive_format>
  40454e:	48 83 3d b2 5c 25 00 	cmpq   $0x0,0x255cb2(%rip)        # 65a208 <volume_label_option>
  404555:	00 
  404556:	74 09                	je     404561 <main+0x431>
  404558:	83 3d 85 5d 25 00 03 	cmpl   $0x3,0x255d85(%rip)        # 65a2e4 <subcommand_option>
  40455f:	74 0d                	je     40456e <main+0x43e>
  404561:	80 3d 19 5a 25 00 00 	cmpb   $0x0,0x255a19(%rip)        # 659f81 <incremental_option>
  404568:	0f 84 ce 05 00 00    	je     404b3c <main+0xa0c>
  40456e:	8b 0d 44 5d 25 00    	mov    0x255d44(%rip),%ecx        # 65a2b8 <archive_format>
  404574:	b8 01 00 00 00       	mov    $0x1,%eax
  404579:	d3 e0                	shl    %cl,%eax
  40457b:	a8 54                	test   $0x54,%al
  40457d:	0f 84 89 0a 00 00    	je     40500c <main+0xedc>
  404583:	48 83 3d f5 5c 25 00 	cmpq   $0x0,0x255cf5(%rip)        # 65a280 <occurrence_option>
  40458a:	00 
  40458b:	74 23                	je     4045b0 <main+0x480>
  40458d:	80 3d b4 55 25 00 00 	cmpb   $0x0,0x2555b4(%rip)        # 659b48 <args+0x28>
  404594:	0f 84 55 0a 00 00    	je     404fef <main+0xebf>
  40459a:	8b 3d 44 5d 25 00    	mov    0x255d44(%rip),%edi        # 65a2e4 <subcommand_option>
  4045a0:	89 f8                	mov    %edi,%eax
  4045a2:	f6 04 85 20 57 44 00 	testb  $0x10,0x445720(,%rax,4)
  4045a9:	10 
  4045aa:	0f 84 10 0a 00 00    	je     404fc0 <main+0xe90>
  4045b0:	48 8b 05 21 5d 25 00 	mov    0x255d21(%rip),%rax        # 65a2d8 <archive_names>
  4045b7:	48 85 c0             	test   %rax,%rax
  4045ba:	0f 84 bd 06 00 00    	je     404c7d <main+0xb4d>
  4045c0:	48 83 f8 01          	cmp    $0x1,%rax
  4045c4:	76 0d                	jbe    4045d3 <main+0x4a3>
  4045c6:	80 3d e7 59 25 00 00 	cmpb   $0x0,0x2559e7(%rip)        # 659fb4 <multi_volume_option>
  4045cd:	0f 84 79 09 00 00    	je     404f4c <main+0xe1c>
  4045d3:	48 83 3d ed 5c 25 00 	cmpq   $0x0,0x255ced(%rip)        # 65a2c8 <listed_incremental_option>
  4045da:	00 
  4045db:	0f 84 2c 09 00 00    	je     404f0d <main+0xddd>
  4045e1:	48 83 3d af 59 25 00 	cmpq   $0x0,0x2559af(%rip)        # 659f98 <newer_mtime_option+0x8>
  4045e8:	00 
  4045e9:	0f 89 4c 0a 00 00    	jns    40503b <main+0xf0b>
  4045ef:	48 8b 3d 12 5c 25 00 	mov    0x255c12(%rip),%rdi        # 65a208 <volume_label_option>
  4045f6:	48 85 ff             	test   %rdi,%rdi
  4045f9:	74 12                	je     40460d <main+0x4dd>
  4045fb:	8b 05 b7 5c 25 00    	mov    0x255cb7(%rip),%eax        # 65a2b8 <archive_format>
  404601:	83 e0 fb             	and    $0xfffffffb,%eax
  404604:	83 f8 02             	cmp    $0x2,%eax
  404607:	0f 84 b1 04 00 00    	je     404abe <main+0x98e>
  40460d:	80 3d be 5c 25 00 00 	cmpb   $0x0,0x255cbe(%rip)        # 65a2d2 <verify_option>
  404614:	0f 84 4d 04 00 00    	je     404a67 <main+0x937>
  40461a:	80 3d 93 59 25 00 00 	cmpb   $0x0,0x255993(%rip)        # 659fb4 <multi_volume_option>
  404621:	0f 85 7c 09 00 00    	jne    404fa3 <main+0xe73>
  404627:	48 83 3d e9 5c 25 00 	cmpq   $0x0,0x255ce9(%rip)        # 65a318 <use_compress_program_option>
  40462e:	00 
  40462f:	0f 85 51 09 00 00    	jne    404f86 <main+0xe56>
  404635:	8b 3d a9 5c 25 00    	mov    0x255ca9(%rip),%edi        # 65a2e4 <subcommand_option>
  40463b:	89 f8                	mov    %edi,%eax
  40463d:	f6 04 85 20 57 44 00 	testb  $0x2,0x445720(,%rax,4)
  404644:	02 
  404645:	0f 84 de 09 00 00    	je     405029 <main+0xef9>
  40464b:	80 3d e3 54 25 00 00 	cmpb   $0x0,0x2554e3(%rip)        # 659b35 <args+0x15>
  404652:	74 1d                	je     404671 <main+0x541>
  404654:	83 3d 5d 5c 25 00 04 	cmpl   $0x4,0x255c5d(%rip)        # 65a2b8 <archive_format>
  40465b:	74 14                	je     404671 <main+0x541>
  40465d:	8b 05 81 5c 25 00    	mov    0x255c81(%rip),%eax        # 65a2e4 <subcommand_option>
  404663:	f6 04 85 20 57 44 00 	testb  $0x1,0x445720(,%rax,4)
  40466a:	01 
  40466b:	0f 84 d6 0a 00 00    	je     405147 <main+0x1017>
  404671:	8b 3d 99 5c 25 00    	mov    0x255c99(%rip),%edi        # 65a310 <acls_option>
  404677:	85 ff                	test   %edi,%edi
  404679:	7e 1d                	jle    404698 <main+0x568>
  40467b:	83 3d 36 5c 25 00 04 	cmpl   $0x4,0x255c36(%rip)        # 65a2b8 <archive_format>
  404682:	74 14                	je     404698 <main+0x568>
  404684:	8b 05 5a 5c 25 00    	mov    0x255c5a(%rip),%eax        # 65a2e4 <subcommand_option>
  40468a:	f6 04 85 20 57 44 00 	testb  $0x1,0x445720(,%rax,4)
  404691:	01 
  404692:	0f 84 92 0a 00 00    	je     40512a <main+0xffa>
  404698:	8b 35 d2 5c 25 00    	mov    0x255cd2(%rip),%esi        # 65a370 <selinux_context_option>
  40469e:	85 f6                	test   %esi,%esi
  4046a0:	7e 1d                	jle    4046bf <main+0x58f>
  4046a2:	83 3d 0f 5c 25 00 04 	cmpl   $0x4,0x255c0f(%rip)        # 65a2b8 <archive_format>
  4046a9:	74 14                	je     4046bf <main+0x58f>
  4046ab:	8b 05 33 5c 25 00    	mov    0x255c33(%rip),%eax        # 65a2e4 <subcommand_option>
  4046b1:	f6 04 85 20 57 44 00 	testb  $0x1,0x445720(,%rax,4)
  4046b8:	01 
  4046b9:	0f 84 4e 0a 00 00    	je     40510d <main+0xfdd>
  4046bf:	8b 0d 4b 5b 25 00    	mov    0x255b4b(%rip),%ecx        # 65a210 <xattrs_option>
  4046c5:	85 c9                	test   %ecx,%ecx
  4046c7:	7e 1d                	jle    4046e6 <main+0x5b6>
  4046c9:	83 3d e8 5b 25 00 04 	cmpl   $0x4,0x255be8(%rip)        # 65a2b8 <archive_format>
  4046d0:	74 14                	je     4046e6 <main+0x5b6>
  4046d2:	8b 05 0c 5c 25 00    	mov    0x255c0c(%rip),%eax        # 65a2e4 <subcommand_option>
  4046d8:	f6 04 85 20 57 44 00 	testb  $0x1,0x445720(,%rax,4)
  4046df:	01 
  4046e0:	0f 84 0a 0a 00 00    	je     4050f0 <main+0xfc0>
  4046e6:	80 3d 3b 5b 25 00 00 	cmpb   $0x0,0x255b3b(%rip)        # 65a228 <starting_file_option>
  4046ed:	74 16                	je     404705 <main+0x5d5>
  4046ef:	8b 3d ef 5b 25 00    	mov    0x255bef(%rip),%edi        # 65a2e4 <subcommand_option>
  4046f5:	89 f8                	mov    %edi,%eax
  4046f7:	f6 04 85 20 57 44 00 	testb  $0x1,0x445720(,%rax,4)
  4046fe:	01 
  4046ff:	0f 84 d9 09 00 00    	je     4050de <main+0xfae>
  404705:	80 3d f4 5a 25 00 00 	cmpb   $0x0,0x255af4(%rip)        # 65a200 <same_order_option>
  40470c:	74 16                	je     404724 <main+0x5f4>
  40470e:	8b 3d d0 5b 25 00    	mov    0x255bd0(%rip),%edi        # 65a2e4 <subcommand_option>
  404714:	89 f8                	mov    %edi,%eax
  404716:	f6 04 85 20 57 44 00 	testb  $0x1,0x445720(,%rax,4)
  40471d:	01 
  40471e:	0f 84 a8 09 00 00    	je     4050cc <main+0xf9c>
  404724:	80 3d a8 5b 25 00 00 	cmpb   $0x0,0x255ba8(%rip)        # 65a2d3 <one_top_level_option>
  40472b:	74 1b                	je     404748 <main+0x618>
  40472d:	80 3d 1c 5c 25 00 00 	cmpb   $0x0,0x255c1c(%rip)        # 65a350 <absolute_names_option>
  404734:	0f 85 83 09 00 00    	jne    4050bd <main+0xf8d>
  40473a:	48 83 3d 76 5a 25 00 	cmpq   $0x0,0x255a76(%rip)        # 65a1b8 <one_top_level_dir>
  404741:	00 
  404742:	0f 84 fd 06 00 00    	je     404e45 <main+0xd15>
  404748:	80 3d 33 58 25 00 00 	cmpb   $0x0,0x255833(%rip)        # 659f82 <recursive_unlink_option>
  40474f:	74 0a                	je     40475b <main+0x62b>
  404751:	c7 05 1d 5b 25 00 03 	movl   $0x3,0x255b1d(%rip)        # 65a278 <old_files_option>
  404758:	00 00 00 
  40475b:	0f b6 0d 5e 5a 25 00 	movzbl 0x255a5e(%rip),%ecx        # 65a1c0 <dereference_option>
  404762:	b8 00 00 04 00       	mov    $0x40000,%eax
  404767:	be 00 00 00 00       	mov    $0x0,%esi
  40476c:	80 f9 01             	cmp    $0x1,%cl
  40476f:	19 d2                	sbb    %edx,%edx
  404771:	81 e2 00 00 02 00    	and    $0x20000,%edx
  404777:	81 c2 00 09 08 00    	add    $0x80900,%edx
  40477d:	83 3d 28 5a 25 00 02 	cmpl   $0x2,0x255a28(%rip)        # 65a1ac <atime_preserve_option>
  404784:	0f 45 c6             	cmovne %esi,%eax
  404787:	09 d0                	or     %edx,%eax
  404789:	89 05 b5 5a 25 00    	mov    %eax,0x255ab5(%rip)        # 65a244 <open_read_flags>
  40478f:	0d 00 00 01 00       	or     $0x10000,%eax
  404794:	80 f9 01             	cmp    $0x1,%cl
  404797:	89 05 9f 5a 25 00    	mov    %eax,0x255a9f(%rip)        # 65a23c <open_searchdir_flags>
  40479d:	19 c0                	sbb    %eax,%eax
  40479f:	25 00 01 00 00       	and    $0x100,%eax
  4047a4:	89 05 06 5a 25 00    	mov    %eax,0x255a06(%rip)        # 65a1b0 <fstatat_flags>
  4047aa:	8b 05 34 5b 25 00    	mov    0x255b34(%rip),%eax        # 65a2e4 <subcommand_option>
  4047b0:	83 f8 09             	cmp    $0x9,%eax
  4047b3:	0f 84 00 05 00 00    	je     404cb9 <main+0xb89>
  4047b9:	80 3d e9 59 25 00 00 	cmpb   $0x0,0x2559e9(%rip)        # 65a1a9 <utc_option>
  4047c0:	0f 85 95 03 00 00    	jne    404b5b <main+0xa2b>
  4047c6:	f2 0f 10 05 2a 5a 25 	movsd  0x255a2a(%rip),%xmm0        # 65a1f8 <tape_length_option>
  4047cd:	00 
  4047ce:	66 0f 2e 05 c2 a5 03 	ucomisd 0x3a5c2(%rip),%xmm0        # 43ed98 <magic+0xd8>
  4047d5:	00 
  4047d6:	0f 8a 87 01 00 00    	jp     404963 <main+0x833>
  4047dc:	0f 85 81 01 00 00    	jne    404963 <main+0x833>
  4047e2:	80 3d 17 5a 25 00 00 	cmpb   $0x0,0x255a17(%rip)        # 65a200 <same_order_option>
  4047e9:	74 0e                	je     4047f9 <main+0x6c9>
  4047eb:	48 83 3d d5 5a 25 00 	cmpq   $0x0,0x255ad5(%rip)        # 65a2c8 <listed_incremental_option>
  4047f2:	00 
  4047f3:	0f 85 51 08 00 00    	jne    40504a <main+0xf1a>
  4047f9:	8d 48 ff             	lea    -0x1(%rax),%ecx
  4047fc:	83 f9 08             	cmp    $0x8,%ecx
  4047ff:	77 51                	ja     404852 <main+0x722>
  404801:	ba 01 00 00 00       	mov    $0x1,%edx
  404806:	48 d3 e2             	shl    %cl,%rdx
  404809:	f6 c2 83             	test   $0x83,%dl
  40480c:	0f 84 67 03 00 00    	je     404b79 <main+0xa49>
  404812:	48 8b 05 17 5a 25 00 	mov    0x255a17(%rip),%rax        # 65a230 <archive_name_array>
  404819:	48 8b 15 b8 5a 25 00 	mov    0x255ab8(%rip),%rdx        # 65a2d8 <archive_names>
  404820:	48 8d 0c d0          	lea    (%rax,%rdx,8),%rcx
  404824:	48 89 05 3d 5a 25 00 	mov    %rax,0x255a3d(%rip)        # 65a268 <archive_name_cursor>
  40482b:	48 39 c8             	cmp    %rcx,%rax
  40482e:	73 22                	jae    404852 <main+0x722>
  404830:	48 8b 10             	mov    (%rax),%rdx
  404833:	80 3a 2d             	cmpb   $0x2d,(%rdx)
  404836:	75 0a                	jne    404842 <main+0x712>
  404838:	80 7a 01 00          	cmpb   $0x0,0x1(%rdx)
  40483c:	0f 84 17 08 00 00    	je     405059 <main+0xf29>
  404842:	48 83 c0 08          	add    $0x8,%rax
  404846:	48 39 c8             	cmp    %rcx,%rax
  404849:	48 89 05 18 5a 25 00 	mov    %rax,0x255a18(%rip)        # 65a268 <archive_name_cursor>
  404850:	72 de                	jb     404830 <main+0x700>
  404852:	48 8b 3d ff 5a 25 00 	mov    0x255aff(%rip),%rdi        # 65a358 <index_file_name>
  404859:	48 85 ff             	test   %rdi,%rdi
  40485c:	0f 84 f9 03 00 00    	je     404c5b <main+0xb2b>
  404862:	be fc 1d 44 00       	mov    $0x441dfc,%esi
  404867:	e8 04 f5 ff ff       	callq  403d70 <fopen@plt>
  40486c:	48 85 c0             	test   %rax,%rax
  40486f:	48 89 05 22 56 25 00 	mov    %rax,0x255622(%rip)        # 659e98 <stdlis>
  404876:	0f 84 85 06 00 00    	je     404f01 <main+0xdd1>
  40487c:	48 8b 3d b5 52 25 00 	mov    0x2552b5(%rip),%rdi        # 659b38 <args+0x18>
  404883:	48 8b 05 a6 59 25 00 	mov    0x2559a6(%rip),%rax        # 65a230 <archive_name_array>
  40488a:	48 85 ff             	test   %rdi,%rdi
  40488d:	48 89 05 d4 59 25 00 	mov    %rax,0x2559d4(%rip)        # 65a268 <archive_name_cursor>
  404894:	74 0c                	je     4048a2 <main+0x772>
  404896:	e8 65 63 03 00       	callq  43ac00 <xstrdup>
  40489b:	48 89 05 86 48 25 00 	mov    %rax,0x254886(%rip)        # 659128 <simple_backup_suffix>
  4048a2:	80 3d d4 59 25 00 00 	cmpb   $0x0,0x2559d4(%rip)        # 65a27d <backup_option>
  4048a9:	0f 85 78 03 00 00    	jne    404c27 <main+0xaf7>
  4048af:	e8 bc 4b 00 00       	callq  409470 <checkpoint_finish_compile>
  4048b4:	48 8b 1d 65 52 25 00 	mov    0x255265(%rip),%rbx        # 659b20 <args>
  4048bb:	48 85 db             	test   %rbx,%rbx
  4048be:	75 28                	jne    4048e8 <main+0x7b8>
  4048c0:	e9 db 00 00 00       	jmpq   4049a0 <main+0x870>
  4048c5:	0f 1f 00             	nopl   (%rax)
  4048c8:	4c 8b 63 20          	mov    0x20(%rbx),%r12
  4048cc:	4c 89 e7             	mov    %r12,%rdi
  4048cf:	e8 5c eb ff ff       	callq  403430 <free@plt>
  4048d4:	48 89 df             	mov    %rbx,%rdi
  4048d7:	e8 54 eb ff ff       	callq  403430 <free@plt>
  4048dc:	48 85 ed             	test   %rbp,%rbp
  4048df:	0f 84 bb 00 00 00    	je     4049a0 <main+0x870>
  4048e5:	48 89 eb             	mov    %rbp,%rbx
  4048e8:	8b 15 16 59 25 00    	mov    0x255916(%rip),%edx        # 65a204 <verbose_option>
  4048ee:	48 8b 2b             	mov    (%rbx),%rbp
  4048f1:	85 d2                	test   %edx,%edx
  4048f3:	74 d3                	je     4048c8 <main+0x798>
  4048f5:	48 8b 7b 08          	mov    0x8(%rbx),%rdi
  4048f9:	48 8b 73 10          	mov    0x10(%rbx),%rsi
  4048fd:	ba 01 00 00 00       	mov    $0x1,%edx
  404902:	e8 09 4d 01 00       	callq  419610 <tartime>
  404907:	4c 8b 6b 20          	mov    0x20(%rbx),%r13
  40490b:	48 89 c6             	mov    %rax,%rsi
  40490e:	49 89 c6             	mov    %rax,%r14
  404911:	4c 89 ef             	mov    %r13,%rdi
  404914:	4d 89 ec             	mov    %r13,%r12
  404917:	e8 a4 f0 ff ff       	callq  4039c0 <strcmp@plt>
  40491c:	85 c0                	test   %eax,%eax
  40491e:	74 ac                	je     4048cc <main+0x79c>
  404920:	48 8b 05 61 5a 25 00 	mov    0x255a61(%rip),%rax        # 65a388 <error_hook>
  404927:	48 85 c0             	test   %rax,%rax
  40492a:	74 06                	je     404932 <main+0x802>
  40492c:	ff d0                	callq  *%rax
  40492e:	4c 8b 6b 20          	mov    0x20(%rbx),%r13
  404932:	4c 8b 63 18          	mov    0x18(%rbx),%r12
  404936:	31 ff                	xor    %edi,%edi
  404938:	ba 05 00 00 00       	mov    $0x5,%edx
  40493d:	be 38 31 44 00       	mov    $0x443138,%esi
  404942:	e8 89 ed ff ff       	callq  4036d0 <dcgettext@plt>
  404947:	4d 89 f1             	mov    %r14,%r9
  40494a:	48 89 c2             	mov    %rax,%rdx
  40494d:	4d 89 e8             	mov    %r13,%r8
  404950:	4c 89 e1             	mov    %r12,%rcx
  404953:	31 f6                	xor    %esi,%esi
  404955:	31 ff                	xor    %edi,%edi
  404957:	31 c0                	xor    %eax,%eax
  404959:	e8 82 f3 ff ff       	callq  403ce0 <error@plt>
  40495e:	e9 65 ff ff ff       	jmpq   4048c8 <main+0x798>
  404963:	48 8b 15 be 59 25 00 	mov    0x2559be(%rip),%rdx        # 65a328 <record_size>
  40496a:	48 85 d2             	test   %rdx,%rdx
  40496d:	0f 88 80 04 00 00    	js     404df3 <main+0xcc3>
  404973:	f2 48 0f 2a ca       	cvtsi2sd %rdx,%xmm1
  404978:	66 0f 2e c8          	ucomisd %xmm0,%xmm1
  40497c:	0f 86 60 fe ff ff    	jbe    4047e2 <main+0x6b2>
  404982:	48 8b 05 ff 59 25 00 	mov    0x2559ff(%rip),%rax        # 65a388 <error_hook>
  404989:	48 85 c0             	test   %rax,%rax
  40498c:	74 02                	je     404990 <main+0x860>
  40498e:	ff d0                	callq  *%rax
  404990:	ba 05 00 00 00       	mov    $0x5,%edx
  404995:	be a8 30 44 00       	mov    $0x4430a8,%esi
  40499a:	e9 22 04 00 00       	jmpq   404dc1 <main+0xc91>
  40499f:	90                   	nop
  4049a0:	e8 2b 86 01 00       	callq  41cfd0 <name_init>
  4049a5:	48 83 3d 6b 58 25 00 	cmpq   $0x0,0x25586b(%rip)        # 65a218 <volno_file_option>
  4049ac:	00 
  4049ad:	74 05                	je     4049b4 <main+0x884>
  4049af:	e8 ac 21 00 00       	callq  406b60 <init_volume_number>
  4049b4:	83 3d 29 59 25 00 09 	cmpl   $0x9,0x255929(%rip)        # 65a2e4 <subcommand_option>
  4049bb:	77 12                	ja     4049cf <main+0x89f>
  4049bd:	8b 05 21 59 25 00    	mov    0x255921(%rip),%eax        # 65a2e4 <subcommand_option>
  4049c3:	ff 24 c5 20 56 44 00 	jmpq   *0x445620(,%rax,8)
  4049ca:	e8 c1 5e 01 00       	callq  41a890 <test_archive_label>
  4049cf:	e8 bc 4d 00 00       	callq  409790 <checkpoint_finish>
  4049d4:	80 3d 5f 58 25 00 00 	cmpb   $0x0,0x25585f(%rip)        # 65a23a <totals_option>
  4049db:	0f 85 f1 02 00 00    	jne    404cd2 <main+0xba2>
  4049e1:	8b 05 81 51 25 00    	mov    0x255181(%rip),%eax        # 659b68 <check_links_option>
  4049e7:	85 c0                	test   %eax,%eax
  4049e9:	0f 85 ed 02 00 00    	jne    404cdc <main+0xbac>
  4049ef:	48 83 3d 21 58 25 00 	cmpq   $0x0,0x255821(%rip)        # 65a218 <volno_file_option>
  4049f6:	00 
  4049f7:	74 05                	je     4049fe <main+0x8ce>
  4049f9:	e8 52 22 00 00       	callq  406c50 <closeout_volume_number>
  4049fe:	48 8b 3d 2b 58 25 00 	mov    0x25582b(%rip),%rdi        # 65a230 <archive_name_array>
  404a05:	e8 26 ea ff ff       	callq  403430 <free@plt>
  404a0a:	e8 71 11 02 00       	callq  425b80 <xattrs_clear_setup>
  404a0f:	e8 1c 86 01 00       	callq  41d030 <name_term>
  404a14:	83 3d 75 52 25 00 02 	cmpl   $0x2,0x255275(%rip)        # 659c90 <exit_status>
  404a1b:	0f 84 78 04 00 00    	je     404e99 <main+0xd69>
  404a21:	48 8b 05 a8 47 25 00 	mov    0x2547a8(%rip),%rax        # 6591d0 <stdout@@GLIBC_2.2.5>
  404a28:	48 39 05 69 54 25 00 	cmp    %rax,0x255469(%rip)        # 659e98 <stdlis>
  404a2f:	0f 84 94 04 00 00    	je     404ec9 <main+0xd99>
  404a35:	48 8b 3d b4 47 25 00 	mov    0x2547b4(%rip),%rdi        # 6591f0 <stderr@@GLIBC_2.2.5>
  404a3c:	f6 07 20             	testb  $0x20,(%rdi)
  404a3f:	0f 84 a5 02 00 00    	je     404cea <main+0xbba>
  404a45:	83 3d 44 52 25 00 01 	cmpl   $0x1,0x255244(%rip)        # 659c90 <exit_status>
  404a4c:	0f 8e 18 01 00 00    	jle    404b6a <main+0xa3a>
  404a52:	8b 05 38 52 25 00    	mov    0x255238(%rip),%eax        # 659c90 <exit_status>
  404a58:	48 83 c4 38          	add    $0x38,%rsp
  404a5c:	5b                   	pop    %rbx
  404a5d:	5d                   	pop    %rbp
  404a5e:	41 5c                	pop    %r12
  404a60:	41 5d                	pop    %r13
  404a62:	41 5e                	pop    %r14
  404a64:	41 5f                	pop    %r15
  404a66:	c3                   	retq   
  404a67:	48 83 3d a9 58 25 00 	cmpq   $0x0,0x2558a9(%rip)        # 65a318 <use_compress_program_option>
  404a6e:	00 
  404a6f:	0f 84 d6 fb ff ff    	je     40464b <main+0x51b>
  404a75:	80 3d 38 55 25 00 00 	cmpb   $0x0,0x255538(%rip)        # 659fb4 <multi_volume_option>
  404a7c:	0f 85 50 05 00 00    	jne    404fd2 <main+0xea2>
  404a82:	8b 05 5c 58 25 00    	mov    0x25585c(%rip),%eax        # 65a2e4 <subcommand_option>
  404a88:	89 c2                	mov    %eax,%edx
  404a8a:	f6 04 95 20 57 44 00 	testb  $0x4,0x445720(,%rdx,4)
  404a91:	04 
  404a92:	0f 85 d1 04 00 00    	jne    404f69 <main+0xe39>
  404a98:	83 f8 02             	cmp    $0x2,%eax
  404a9b:	0f 85 aa fb ff ff    	jne    40464b <main+0x51b>
  404aa1:	48 8b 05 e0 58 25 00 	mov    0x2558e0(%rip),%rax        # 65a388 <error_hook>
  404aa8:	48 85 c0             	test   %rax,%rax
  404aab:	74 02                	je     404aaf <main+0x97f>
  404aad:	ff d0                	callq  *%rax
  404aaf:	ba 05 00 00 00       	mov    $0x5,%edx
  404ab4:	be 60 2f 44 00       	mov    $0x442f60,%esi
  404ab9:	e9 03 03 00 00       	jmpq   404dc1 <main+0xc91>
  404abe:	80 3d ef 54 25 00 01 	cmpb   $0x1,0x2554ef(%rip)        # 659fb4 <multi_volume_option>
  404ac5:	48 19 db             	sbb    %rbx,%rbx
  404ac8:	31 c0                	xor    %eax,%eax
  404aca:	48 83 c9 ff          	or     $0xffffffffffffffff,%rcx
  404ace:	f2 ae                	repnz scas %es:(%rdi),%al
  404ad0:	83 e3 12             	and    $0x12,%ebx
  404ad3:	48 f7 d1             	not    %rcx
  404ad6:	48 83 c3 51          	add    $0x51,%rbx
  404ada:	48 83 e9 01          	sub    $0x1,%rcx
  404ade:	48 39 d9             	cmp    %rbx,%rcx
  404ae1:	0f 86 26 fb ff ff    	jbe    40460d <main+0x4dd>
  404ae7:	48 8b 05 9a 58 25 00 	mov    0x25589a(%rip),%rax        # 65a388 <error_hook>
  404aee:	48 85 c0             	test   %rax,%rax
  404af1:	74 02                	je     404af5 <main+0x9c5>
  404af3:	ff d0                	callq  *%rax
  404af5:	48 8b 3d 0c 57 25 00 	mov    0x25570c(%rip),%rdi        # 65a208 <volume_label_option>
  404afc:	e8 af 51 03 00       	callq  439cb0 <quotearg_colon>
  404b01:	41 b8 05 00 00 00    	mov    $0x5,%r8d
  404b07:	48 89 c5             	mov    %rax,%rbp
  404b0a:	48 89 d9             	mov    %rbx,%rcx
  404b0d:	ba 70 2e 44 00       	mov    $0x442e70,%edx
  404b12:	be a8 2e 44 00       	mov    $0x442ea8,%esi
  404b17:	31 ff                	xor    %edi,%edi
  404b19:	e8 62 f2 ff ff       	callq  403d80 <dcngettext@plt>
  404b1e:	31 ff                	xor    %edi,%edi
  404b20:	48 89 c2             	mov    %rax,%rdx
  404b23:	49 89 d8             	mov    %rbx,%r8
  404b26:	48 89 e9             	mov    %rbp,%rcx
  404b29:	31 f6                	xor    %esi,%esi
  404b2b:	31 c0                	xor    %eax,%eax
  404b2d:	e8 ae f1 ff ff       	callq  403ce0 <error@plt>
  404b32:	bf 02 00 00 00       	mov    $0x2,%edi
  404b37:	e8 74 d4 01 00       	callq  421fb0 <usage>
  404b3c:	80 3d 71 54 25 00 00 	cmpb   $0x0,0x255471(%rip)        # 659fb4 <multi_volume_option>
  404b43:	0f 85 25 fa ff ff    	jne    40456e <main+0x43e>
  404b49:	80 3d d0 57 25 00 00 	cmpb   $0x0,0x2557d0(%rip)        # 65a320 <sparse_option>
  404b50:	0f 84 2d fa ff ff    	je     404583 <main+0x453>
  404b56:	e9 13 fa ff ff       	jmpq   40456e <main+0x43e>
  404b5b:	c7 05 9f 56 25 00 02 	movl   $0x2,0x25569f(%rip)        # 65a204 <verbose_option>
  404b62:	00 00 00 
  404b65:	e9 5c fc ff ff       	jmpq   4047c6 <main+0x696>
  404b6a:	c7 05 1c 51 25 00 02 	movl   $0x2,0x25511c(%rip)        # 659c90 <exit_status>
  404b71:	00 00 00 
  404b74:	e9 d9 fe ff ff       	jmpq   404a52 <main+0x922>
  404b79:	f7 c2 70 01 00 00    	test   $0x170,%edx
  404b7f:	0f 84 80 01 00 00    	je     404d05 <main+0xbd5>
  404b85:	48 8b 05 a4 56 25 00 	mov    0x2556a4(%rip),%rax        # 65a230 <archive_name_array>
  404b8c:	48 8b 15 45 57 25 00 	mov    0x255745(%rip),%rdx        # 65a2d8 <archive_names>
  404b93:	48 8d 34 d0          	lea    (%rax,%rdx,8),%rsi
  404b97:	48 89 05 ca 56 25 00 	mov    %rax,0x2556ca(%rip)        # 65a268 <archive_name_cursor>
  404b9e:	48 39 f0             	cmp    %rsi,%rax
  404ba1:	0f 83 ab fc ff ff    	jae    404852 <main+0x722>
  404ba7:	48 8b 0d aa 4f 25 00 	mov    0x254faa(%rip),%rcx        # 659b58 <stdin_used_by>
  404bae:	66 90                	xchg   %ax,%ax
  404bb0:	48 8b 10             	mov    (%rax),%rdx
  404bb3:	80 3a 2d             	cmpb   $0x2d,(%rdx)
  404bb6:	75 14                	jne    404bcc <main+0xa9c>
  404bb8:	80 7a 01 00          	cmpb   $0x0,0x1(%rdx)
  404bbc:	75 0e                	jne    404bcc <main+0xa9c>
  404bbe:	48 85 c9             	test   %rcx,%rcx
  404bc1:	0f 85 29 03 00 00    	jne    404ef0 <main+0xdc0>
  404bc7:	b9 95 1f 44 00       	mov    $0x441f95,%ecx
  404bcc:	48 83 c0 08          	add    $0x8,%rax
  404bd0:	48 39 f0             	cmp    %rsi,%rax
  404bd3:	48 89 05 8e 56 25 00 	mov    %rax,0x25568e(%rip)        # 65a268 <archive_name_cursor>
  404bda:	72 d4                	jb     404bb0 <main+0xa80>
  404bdc:	48 89 0d 75 4f 25 00 	mov    %rcx,0x254f75(%rip)        # 659b58 <stdin_used_by>
  404be3:	e9 6a fc ff ff       	jmpq   404852 <main+0x722>
  404be8:	0f 1f 84 00 00 00 00 	nopl   0x0(%rax,%rax,1)
  404bef:	00 
  404bf0:	48 83 7a 10 00       	cmpq   $0x0,0x10(%rdx)
  404bf5:	0f 84 e5 f7 ff ff    	je     4043e0 <main+0x2b0>
  404bfb:	48 63 44 24 1c       	movslq 0x1c(%rsp),%rax
  404c00:	48 8b 54 24 28       	mov    0x28(%rsp),%rdx
  404c05:	48 8d 04 c2          	lea    (%rdx,%rax,8),%rax
  404c09:	49 39 c5             	cmp    %rax,%r13
  404c0c:	0f 83 64 04 00 00    	jae    405076 <main+0xf46>
  404c12:	49 8b 45 00          	mov    0x0(%r13),%rax
  404c16:	49 83 c6 10          	add    $0x10,%r14
  404c1a:	49 83 c5 08          	add    $0x8,%r13
  404c1e:	49 89 46 f8          	mov    %rax,-0x8(%r14)
  404c22:	e9 c1 f7 ff ff       	jmpq   4043e8 <main+0x2b8>
  404c27:	48 8b 35 12 4f 25 00 	mov    0x254f12(%rip),%rsi        # 659b40 <args+0x20>
  404c2e:	bf 58 20 44 00       	mov    $0x442058,%edi
  404c33:	e8 18 bb 02 00       	callq  430750 <xget_version>
  404c38:	85 c0                	test   %eax,%eax
  404c3a:	89 05 20 56 25 00    	mov    %eax,0x255620(%rip)        # 65a260 <backup_type>
  404c40:	74 0d                	je     404c4f <main+0xb1f>
  404c42:	80 3d a8 55 25 00 00 	cmpb   $0x0,0x2555a8(%rip)        # 65a1f1 <to_stdout_option>
  404c49:	0f 84 91 01 00 00    	je     404de0 <main+0xcb0>
  404c4f:	c6 05 27 56 25 00 00 	movb   $0x0,0x255627(%rip)        # 65a27d <backup_option>
  404c56:	e9 54 fc ff ff       	jmpq   4048af <main+0x77f>
  404c5b:	80 3d 8f 55 25 00 00 	cmpb   $0x0,0x25558f(%rip)        # 65a1f1 <to_stdout_option>
  404c62:	48 8b 05 87 45 25 00 	mov    0x254587(%rip),%rax        # 6591f0 <stderr@@GLIBC_2.2.5>
  404c69:	48 0f 44 05 5f 45 25 	cmove  0x25455f(%rip),%rax        # 6591d0 <stdout@@GLIBC_2.2.5>
  404c70:	00 
  404c71:	48 89 05 20 52 25 00 	mov    %rax,0x255220(%rip)        # 659e98 <stdlis>
  404c78:	e9 ff fb ff ff       	jmpq   40487c <main+0x74c>
  404c7d:	48 8b 1d ac 55 25 00 	mov    0x2555ac(%rip),%rbx        # 65a230 <archive_name_array>
  404c84:	bf de 1f 44 00       	mov    $0x441fde,%edi
  404c89:	48 c7 05 44 56 25 00 	movq   $0x1,0x255644(%rip)        # 65a2d8 <archive_names>
  404c90:	01 00 00 00 
  404c94:	e8 57 e7 ff ff       	callq  4033f0 <getenv@plt>
  404c99:	48 89 03             	mov    %rax,(%rbx)
  404c9c:	48 8b 05 8d 55 25 00 	mov    0x25558d(%rip),%rax        # 65a230 <archive_name_array>
  404ca3:	48 83 38 00          	cmpq   $0x0,(%rax)
  404ca7:	0f 84 10 02 00 00    	je     404ebd <main+0xd8d>
  404cad:	48 8b 05 24 56 25 00 	mov    0x255624(%rip),%rax        # 65a2d8 <archive_names>
  404cb4:	e9 07 f9 ff ff       	jmpq   4045c0 <main+0x490>
  404cb9:	80 3d 88 4e 25 00 00 	cmpb   $0x0,0x254e88(%rip)        # 659b48 <args+0x28>
  404cc0:	0f 85 00 fb ff ff    	jne    4047c6 <main+0x696>
  404cc6:	83 05 37 55 25 00 01 	addl   $0x1,0x255537(%rip)        # 65a204 <verbose_option>
  404ccd:	e9 f4 fa ff ff       	jmpq   4047c6 <main+0x696>
  404cd2:	e8 19 11 00 00       	callq  405df0 <print_total_stats>
  404cd7:	e9 05 fd ff ff       	jmpq   4049e1 <main+0x8b1>
  404cdc:	0f 1f 40 00          	nopl   0x0(%rax)
  404ce0:	e8 cb 7b 00 00       	callq  40c8b0 <check_links>
  404ce5:	e9 05 fd ff ff       	jmpq   4049ef <main+0x8bf>
  404cea:	66 0f 1f 44 00 00    	nopw   0x0(%rax,%rax,1)
  404cf0:	e8 6b e9 ff ff       	callq  403660 <fclose@plt>
  404cf5:	85 c0                	test   %eax,%eax
  404cf7:	0f 85 48 fd ff ff    	jne    404a45 <main+0x915>
  404cfd:	0f 1f 00             	nopl   (%rax)
  404d00:	e9 4d fd ff ff       	jmpq   404a52 <main+0x922>
  404d05:	80 e2 04             	and    $0x4,%dl
  404d08:	0f 84 44 fb ff ff    	je     404852 <main+0x722>
  404d0e:	80 3d 33 4e 25 00 00 	cmpb   $0x0,0x254e33(%rip)        # 659b48 <args+0x28>
  404d15:	75 0d                	jne    404d24 <main+0xbf4>
  404d17:	80 3d 33 4e 25 00 00 	cmpb   $0x0,0x254e33(%rip)        # 659b51 <files_from_option>
  404d1e:	0f 84 af 01 00 00    	je     404ed3 <main+0xda3>
  404d24:	83 3d 21 4e 25 00 00 	cmpl   $0x0,0x254e21(%rip)        # 659b4c <args+0x2c>
  404d2b:	0f 84 21 fb ff ff    	je     404852 <main+0x722>
  404d31:	48 83 3d 9f 55 25 00 	cmpq   $0x0,0x25559f(%rip)        # 65a2d8 <archive_names>
  404d38:	00 
  404d39:	0f 84 13 fb ff ff    	je     404852 <main+0x722>
  404d3f:	48 8b 05 ea 54 25 00 	mov    0x2554ea(%rip),%rax        # 65a230 <archive_name_array>
  404d46:	48 8b 38             	mov    (%rax),%rdi
  404d49:	80 3f 2d             	cmpb   $0x2d,(%rdi)
  404d4c:	75 0a                	jne    404d58 <main+0xc28>
  404d4e:	80 7f 01 00          	cmpb   $0x0,0x1(%rdi)
  404d52:	0f 84 fa fa ff ff    	je     404852 <main+0x722>
  404d58:	48 8b 35 b9 55 25 00 	mov    0x2555b9(%rip),%rsi        # 65a318 <use_compress_program_option>
  404d5f:	e8 6c b3 01 00       	callq  4200d0 <set_compression_program_by_suffix>
  404d64:	e9 e9 fa ff ff       	jmpq   404852 <main+0x722>
  404d69:	e8 f2 02 02 00       	callq  425060 <update_archive>
  404d6e:	66 90                	xchg   %ax,%ax
  404d70:	e9 5a fc ff ff       	jmpq   4049cf <main+0x89f>
  404d75:	e8 46 7e 00 00       	callq  40cbc0 <create_archive>
  404d7a:	66 0f 1f 44 00 00    	nopw   0x0(%rax,%rax,1)
  404d80:	e9 4a fc ff ff       	jmpq   4049cf <main+0x89f>
  404d85:	e8 56 96 00 00       	callq  40e3e0 <delete_archive_members>
  404d8a:	66 0f 1f 44 00 00    	nopw   0x0(%rax,%rax,1)
  404d90:	e9 3a fc ff ff       	jmpq   4049cf <main+0x89f>
  404d95:	e8 16 4b 00 00       	callq  4098b0 <diff_init>
  404d9a:	bf 00 9d 40 00       	mov    $0x409d00,%edi
  404d9f:	e8 ac 55 01 00       	callq  41a350 <read_and>
  404da4:	e9 26 fc ff ff       	jmpq   4049cf <main+0x89f>
  404da9:	48 8b 05 d8 55 25 00 	mov    0x2555d8(%rip),%rax        # 65a388 <error_hook>
  404db0:	48 85 c0             	test   %rax,%rax
  404db3:	74 02                	je     404db7 <main+0xc87>
  404db5:	ff d0                	callq  *%rax
  404db7:	ba 05 00 00 00       	mov    $0x5,%edx
  404dbc:	be 60 31 44 00       	mov    $0x443160,%esi
  404dc1:	31 ff                	xor    %edi,%edi
  404dc3:	e8 08 e9 ff ff       	callq  4036d0 <dcgettext@plt>
  404dc8:	31 ff                	xor    %edi,%edi
  404dca:	48 89 c2             	mov    %rax,%rdx
  404dcd:	31 f6                	xor    %esi,%esi
  404dcf:	31 c0                	xor    %eax,%eax
  404dd1:	e8 0a ef ff ff       	callq  403ce0 <error@plt>
  404dd6:	bf 02 00 00 00       	mov    $0x2,%edi
  404ddb:	e8 d0 d1 01 00       	callq  421fb0 <usage>
  404de0:	48 83 3d 00 54 25 00 	cmpq   $0x0,0x255400(%rip)        # 65a1e8 <to_command_option>
  404de7:	00 
  404de8:	0f 85 61 fe ff ff    	jne    404c4f <main+0xb1f>
  404dee:	e9 bc fa ff ff       	jmpq   4048af <main+0x77f>
  404df3:	48 89 d1             	mov    %rdx,%rcx
  404df6:	83 e2 01             	and    $0x1,%edx
  404df9:	48 d1 e9             	shr    %rcx
  404dfc:	48 09 d1             	or     %rdx,%rcx
  404dff:	f2 48 0f 2a c9       	cvtsi2sd %rcx,%xmm1
  404e04:	f2 0f 58 c9          	addsd  %xmm1,%xmm1
  404e08:	e9 6b fb ff ff       	jmpq   404978 <main+0x848>
  404e0d:	e8 be c9 00 00       	callq  4117d0 <extr_init>
  404e12:	bf 30 18 41 00       	mov    $0x411830,%edi
  404e17:	e8 34 55 01 00       	callq  41a350 <read_and>
  404e1c:	e8 ff b6 00 00       	callq  410520 <extract_finish>
  404e21:	e9 a9 fb ff ff       	jmpq   4049cf <main+0x89f>
  404e26:	bf e0 a7 41 00       	mov    $0x41a7e0,%edi
  404e2b:	e8 20 55 01 00       	callq  41a350 <read_and>
  404e30:	e9 9a fb ff ff       	jmpq   4049cf <main+0x89f>
  404e35:	bf 55 25 44 00       	mov    $0x442555,%edi
  404e3a:	e8 21 d5 01 00       	callq  422360 <set_archive_format>
  404e3f:	90                   	nop
  404e40:	e9 73 f6 ff ff       	jmpq   4044b8 <main+0x388>
  404e45:	48 8b 05 e4 53 25 00 	mov    0x2553e4(%rip),%rax        # 65a230 <archive_name_array>
  404e4c:	48 8b 38             	mov    (%rax),%rdi
  404e4f:	e8 ec ba 02 00       	callq  430940 <base_name>
  404e54:	48 89 c3             	mov    %rax,%rbx
  404e57:	48 89 c7             	mov    %rax,%rdi
  404e5a:	e8 a1 b2 01 00       	callq  420100 <strip_compression_suffix>
  404e5f:	48 89 df             	mov    %rbx,%rdi
  404e62:	48 89 05 4f 53 25 00 	mov    %rax,0x25534f(%rip)        # 65a1b8 <one_top_level_dir>
  404e69:	e8 c2 e5 ff ff       	callq  403430 <free@plt>
  404e6e:	48 83 3d 42 53 25 00 	cmpq   $0x0,0x255342(%rip)        # 65a1b8 <one_top_level_dir>
  404e75:	00 
  404e76:	0f 85 cc f8 ff ff    	jne    404748 <main+0x618>
  404e7c:	48 8b 05 05 55 25 00 	mov    0x255505(%rip),%rax        # 65a388 <error_hook>
  404e83:	48 85 c0             	test   %rax,%rax
  404e86:	74 02                	je     404e8a <main+0xd5a>
  404e88:	ff d0                	callq  *%rax
  404e8a:	ba 05 00 00 00       	mov    $0x5,%edx
  404e8f:	be 48 30 44 00       	mov    $0x443048,%esi
  404e94:	e9 28 ff ff ff       	jmpq   404dc1 <main+0xc91>
  404e99:	31 ff                	xor    %edi,%edi
  404e9b:	ba 05 00 00 00       	mov    $0x5,%edx
  404ea0:	be b0 31 44 00       	mov    $0x4431b0,%esi
  404ea5:	e8 26 e8 ff ff       	callq  4036d0 <dcgettext@plt>
  404eaa:	31 f6                	xor    %esi,%esi
  404eac:	48 89 c2             	mov    %rax,%rdx
  404eaf:	31 ff                	xor    %edi,%edi
  404eb1:	31 c0                	xor    %eax,%eax
  404eb3:	e8 28 ee ff ff       	callq  403ce0 <error@plt>
  404eb8:	e9 64 fb ff ff       	jmpq   404a21 <main+0x8f1>
  404ebd:	48 c7 00 10 61 44 00 	movq   $0x446110,(%rax)
  404ec4:	e9 e4 fd ff ff       	jmpq   404cad <main+0xb7d>
  404ec9:	e8 02 b9 02 00       	callq  4307d0 <close_stdout>
  404ece:	e9 7f fb ff ff       	jmpq   404a52 <main+0x922>
  404ed3:	48 8b 05 ae 54 25 00 	mov    0x2554ae(%rip),%rax        # 65a388 <error_hook>
  404eda:	48 85 c0             	test   %rax,%rax
  404edd:	74 02                	je     404ee1 <main+0xdb1>
  404edf:	ff d0                	callq  *%rax
  404ee1:	ba 05 00 00 00       	mov    $0x5,%edx
  404ee6:	be d8 30 44 00       	mov    $0x4430d8,%esi
  404eeb:	e9 d1 fe ff ff       	jmpq   404dc1 <main+0xc91>
  404ef0:	bf 95 1f 44 00       	mov    $0x441f95,%edi
  404ef5:	48 89 0d 5c 4c 25 00 	mov    %rcx,0x254c5c(%rip)        # 659b58 <stdin_used_by>
  404efc:	e8 63 f1 ff ff       	callq  404064 <request_stdin.part.2>
  404f01:	48 8b 3d 50 54 25 00 	mov    0x255450(%rip),%rdi        # 65a358 <index_file_name>
  404f08:	e8 93 18 02 00       	callq  4267a0 <open_fatal>
  404f0d:	83 3d 80 53 25 00 ff 	cmpl   $0xffffffff,0x255380(%rip)        # 65a294 <incremental_level>
  404f14:	0f 84 d5 f6 ff ff    	je     4045ef <main+0x4bf>
  404f1a:	48 8b 05 67 54 25 00 	mov    0x255467(%rip),%rax        # 65a388 <error_hook>
  404f21:	48 85 c0             	test   %rax,%rax
  404f24:	74 02                	je     404f28 <main+0xdf8>
  404f26:	ff d0                	callq  *%rax
  404f28:	31 ff                	xor    %edi,%edi
  404f2a:	ba 05 00 00 00       	mov    $0x5,%edx
  404f2f:	be 38 2e 44 00       	mov    $0x442e38,%esi
  404f34:	e8 97 e7 ff ff       	callq  4036d0 <dcgettext@plt>
  404f39:	31 f6                	xor    %esi,%esi
  404f3b:	48 89 c2             	mov    %rax,%rdx
  404f3e:	31 ff                	xor    %edi,%edi
  404f40:	31 c0                	xor    %eax,%eax
  404f42:	e8 99 ed ff ff       	callq  403ce0 <error@plt>
  404f47:	e9 a3 f6 ff ff       	jmpq   4045ef <main+0x4bf>
  404f4c:	48 8b 05 35 54 25 00 	mov    0x255435(%rip),%rax        # 65a388 <error_hook>
  404f53:	48 85 c0             	test   %rax,%rax
  404f56:	74 02                	je     404f5a <main+0xe2a>
  404f58:	ff d0                	callq  *%rax
  404f5a:	ba 05 00 00 00       	mov    $0x5,%edx
  404f5f:	be 08 2e 44 00       	mov    $0x442e08,%esi
  404f64:	e9 58 fe ff ff       	jmpq   404dc1 <main+0xc91>
  404f69:	48 8b 05 18 54 25 00 	mov    0x255418(%rip),%rax        # 65a388 <error_hook>
  404f70:	48 85 c0             	test   %rax,%rax
  404f73:	74 02                	je     404f77 <main+0xe47>
  404f75:	ff d0                	callq  *%rax
  404f77:	ba 05 00 00 00       	mov    $0x5,%edx
  404f7c:	be 90 ec 43 00       	mov    $0x43ec90,%esi
  404f81:	e9 3b fe ff ff       	jmpq   404dc1 <main+0xc91>
  404f86:	48 8b 05 fb 53 25 00 	mov    0x2553fb(%rip),%rax        # 65a388 <error_hook>
  404f8d:	48 85 c0             	test   %rax,%rax
  404f90:	74 02                	je     404f94 <main+0xe64>
  404f92:	ff d0                	callq  *%rax
  404f94:	ba 05 00 00 00       	mov    $0x5,%edx
  404f99:	be 08 2f 44 00       	mov    $0x442f08,%esi
  404f9e:	e9 1e fe ff ff       	jmpq   404dc1 <main+0xc91>
  404fa3:	48 8b 05 de 53 25 00 	mov    0x2553de(%rip),%rax        # 65a388 <error_hook>
  404faa:	48 85 c0             	test   %rax,%rax
  404fad:	74 02                	je     404fb1 <main+0xe81>
  404faf:	ff d0                	callq  *%rax
  404fb1:	ba 05 00 00 00       	mov    $0x5,%edx
  404fb6:	be e0 2e 44 00       	mov    $0x442ee0,%esi
  404fbb:	e9 01 fe ff ff       	jmpq   404dc1 <main+0xc91>
  404fc0:	e8 2b cf 01 00       	callq  421ef0 <subcommand_string>
  404fc5:	bf d1 1f 44 00       	mov    $0x441fd1,%edi
  404fca:	48 89 c6             	mov    %rax,%rsi
  404fcd:	e8 14 f1 ff ff       	callq  4040e6 <option_conflict_error>
  404fd2:	48 8b 05 af 53 25 00 	mov    0x2553af(%rip),%rax        # 65a388 <error_hook>
  404fd9:	48 85 c0             	test   %rax,%rax
  404fdc:	74 02                	je     404fe0 <main+0xeb0>
  404fde:	ff d0                	callq  *%rax
  404fe0:	ba 05 00 00 00       	mov    $0x5,%edx
  404fe5:	be 30 2f 44 00       	mov    $0x442f30,%esi
  404fea:	e9 d2 fd ff ff       	jmpq   404dc1 <main+0xc91>
  404fef:	48 8b 05 92 53 25 00 	mov    0x255392(%rip),%rax        # 65a388 <error_hook>
  404ff6:	48 85 c0             	test   %rax,%rax
  404ff9:	74 02                	je     404ffd <main+0xecd>
  404ffb:	ff d0                	callq  *%rax
  404ffd:	ba 05 00 00 00       	mov    $0x5,%edx
  405002:	be d8 2d 44 00       	mov    $0x442dd8,%esi
  405007:	e9 b5 fd ff ff       	jmpq   404dc1 <main+0xc91>
  40500c:	48 8b 05 75 53 25 00 	mov    0x255375(%rip),%rax        # 65a388 <error_hook>
  405013:	48 85 c0             	test   %rax,%rax
  405016:	74 02                	je     40501a <main+0xeea>
  405018:	ff d0                	callq  *%rax
  40501a:	ba 05 00 00 00       	mov    $0x5,%edx
  40501f:	be a0 2d 44 00       	mov    $0x442da0,%esi
  405024:	e9 98 fd ff ff       	jmpq   404dc1 <main+0xc91>
  405029:	e8 c2 ce 01 00       	callq  421ef0 <subcommand_string>
  40502e:	bf 00 20 44 00       	mov    $0x442000,%edi
  405033:	48 89 c6             	mov    %rax,%rsi
  405036:	e8 ab f0 ff ff       	callq  4040e6 <option_conflict_error>
  40503b:	be e3 1f 44 00       	mov    $0x441fe3,%esi
  405040:	bf eb 1f 44 00       	mov    $0x441feb,%edi
  405045:	e8 9c f0 ff ff       	callq  4040e6 <option_conflict_error>
  40504a:	be eb 1f 44 00       	mov    $0x441feb,%esi
  40504f:	bf 47 20 44 00       	mov    $0x442047,%edi
  405054:	e8 8d f0 ff ff       	callq  4040e6 <option_conflict_error>
  405059:	48 8b 05 28 53 25 00 	mov    0x255328(%rip),%rax        # 65a388 <error_hook>
  405060:	48 85 c0             	test   %rax,%rax
  405063:	74 02                	je     405067 <main+0xf37>
  405065:	ff d0                	callq  *%rax
  405067:	ba 05 00 00 00       	mov    $0x5,%edx
  40506c:	be 08 31 44 00       	mov    $0x443108,%esi
  405071:	e9 4b fd ff ff       	jmpq   404dc1 <main+0xc91>
  405076:	48 8b 05 0b 53 25 00 	mov    0x25530b(%rip),%rax        # 65a388 <error_hook>
  40507d:	48 85 c0             	test   %rax,%rax
  405080:	74 02                	je     405084 <main+0xf54>
  405082:	ff d0                	callq  *%rax
  405084:	41 0f be 1f          	movsbl (%r15),%ebx
  405088:	ba 05 00 00 00       	mov    $0x5,%edx
  40508d:	be 78 2d 44 00       	mov    $0x442d78,%esi
  405092:	31 ff                	xor    %edi,%edi
  405094:	e8 37 e6 ff ff       	callq  4036d0 <dcgettext@plt>
  405099:	31 ff                	xor    %edi,%edi
  40509b:	48 89 c2             	mov    %rax,%rdx
  40509e:	31 f6                	xor    %esi,%esi
  4050a0:	89 d9                	mov    %ebx,%ecx
  4050a2:	31 c0                	xor    %eax,%eax
  4050a4:	e8 37 ec ff ff       	callq  403ce0 <error@plt>
  4050a9:	bf 02 00 00 00       	mov    $0x2,%edi
  4050ae:	e8 fd ce 01 00       	callq  421fb0 <usage>
  4050b3:	bf 02 00 00 00       	mov    $0x2,%edi
  4050b8:	e8 a3 ed ff ff       	callq  403e60 <exit@plt>
  4050bd:	be 26 20 44 00       	mov    $0x442026,%esi
  4050c2:	bf 37 20 44 00       	mov    $0x442037,%edi
  4050c7:	e8 1a f0 ff ff       	callq  4040e6 <option_conflict_error>
  4050cc:	e8 1f ce 01 00       	callq  421ef0 <subcommand_string>
  4050d1:	bf 19 20 44 00       	mov    $0x442019,%edi
  4050d6:	48 89 c6             	mov    %rax,%rsi
  4050d9:	e8 08 f0 ff ff       	callq  4040e6 <option_conflict_error>
  4050de:	e8 0d ce 01 00       	callq  421ef0 <subcommand_string>
  4050e3:	bf 09 20 44 00       	mov    $0x442009,%edi
  4050e8:	48 89 c6             	mov    %rax,%rsi
  4050eb:	e8 f6 ef ff ff       	callq  4040e6 <option_conflict_error>
  4050f0:	48 8b 05 91 52 25 00 	mov    0x255291(%rip),%rax        # 65a388 <error_hook>
  4050f7:	48 85 c0             	test   %rax,%rax
  4050fa:	74 02                	je     4050fe <main+0xfce>
  4050fc:	ff d0                	callq  *%rax
  4050fe:	ba 05 00 00 00       	mov    $0x5,%edx
  405103:	be 18 30 44 00       	mov    $0x443018,%esi
  405108:	e9 b4 fc ff ff       	jmpq   404dc1 <main+0xc91>
  40510d:	48 8b 05 74 52 25 00 	mov    0x255274(%rip),%rax        # 65a388 <error_hook>
  405114:	48 85 c0             	test   %rax,%rax
  405117:	74 02                	je     40511b <main+0xfeb>
  405119:	ff d0                	callq  *%rax
  40511b:	ba 05 00 00 00       	mov    $0x5,%edx
  405120:	be e8 2f 44 00       	mov    $0x442fe8,%esi
  405125:	e9 97 fc ff ff       	jmpq   404dc1 <main+0xc91>
  40512a:	48 8b 05 57 52 25 00 	mov    0x255257(%rip),%rax        # 65a388 <error_hook>
  405131:	48 85 c0             	test   %rax,%rax
  405134:	74 02                	je     405138 <main+0x1008>
  405136:	ff d0                	callq  *%rax
  405138:	ba 05 00 00 00       	mov    $0x5,%edx
  40513d:	be b8 2f 44 00       	mov    $0x442fb8,%esi
  405142:	e9 7a fc ff ff       	jmpq   404dc1 <main+0xc91>
  405147:	48 8b 05 3a 52 25 00 	mov    0x25523a(%rip),%rax        # 65a388 <error_hook>
  40514e:	48 85 c0             	test   %rax,%rax
  405151:	74 02                	je     405155 <main+0x1025>
  405153:	ff d0                	callq  *%rax
  405155:	ba 05 00 00 00       	mov    $0x5,%edx
  40515a:	be 88 2f 44 00       	mov    $0x442f88,%esi
  40515f:	e9 5d fc ff ff       	jmpq   404dc1 <main+0xc91>

0000000000405164 <_start>:
  405164:	31 ed                	xor    %ebp,%ebp
  405166:	49 89 d1             	mov    %rdx,%r9
  405169:	5e                   	pop    %rsi
  40516a:	48 89 e2             	mov    %rsp,%rdx
  40516d:	48 83 e4 f0          	and    $0xfffffffffffffff0,%rsp
  405171:	50                   	push   %rax
  405172:	54                   	push   %rsp
  405173:	49 c7 c0 70 e5 43 00 	mov    $0x43e570,%r8
  40517a:	48 c7 c1 00 e5 43 00 	mov    $0x43e500,%rcx
  405181:	48 c7 c7 30 41 40 00 	mov    $0x404130,%rdi
  405188:	e8 d3 e7 ff ff       	callq  403960 <__libc_start_main@plt>
  40518d:	f4                   	hlt    
  40518e:	66 90                	xchg   %ax,%ax

0000000000405190 <deregister_tm_clones>:
  405190:	b8 af 91 65 00       	mov    $0x6591af,%eax
  405195:	55                   	push   %rbp
  405196:	48 2d a8 91 65 00    	sub    $0x6591a8,%rax
  40519c:	48 83 f8 0e          	cmp    $0xe,%rax
  4051a0:	48 89 e5             	mov    %rsp,%rbp
  4051a3:	77 02                	ja     4051a7 <deregister_tm_clones+0x17>
  4051a5:	5d                   	pop    %rbp
  4051a6:	c3                   	retq   
  4051a7:	b8 00 00 00 00       	mov    $0x0,%eax
  4051ac:	48 85 c0             	test   %rax,%rax
  4051af:	74 f4                	je     4051a5 <deregister_tm_clones+0x15>
  4051b1:	5d                   	pop    %rbp
  4051b2:	bf a8 91 65 00       	mov    $0x6591a8,%edi
  4051b7:	ff e0                	jmpq   *%rax
  4051b9:	0f 1f 80 00 00 00 00 	nopl   0x0(%rax)

00000000004051c0 <register_tm_clones>:
  4051c0:	b8 a8 91 65 00       	mov    $0x6591a8,%eax
  4051c5:	55                   	push   %rbp
  4051c6:	48 2d a8 91 65 00    	sub    $0x6591a8,%rax
  4051cc:	48 c1 f8 03          	sar    $0x3,%rax
  4051d0:	48 89 e5             	mov    %rsp,%rbp
  4051d3:	48 89 c2             	mov    %rax,%rdx
  4051d6:	48 c1 ea 3f          	shr    $0x3f,%rdx
  4051da:	48 01 d0             	add    %rdx,%rax
  4051dd:	48 d1 f8             	sar    %rax
  4051e0:	75 02                	jne    4051e4 <register_tm_clones+0x24>
  4051e2:	5d                   	pop    %rbp
  4051e3:	c3                   	retq   
  4051e4:	ba 00 00 00 00       	mov    $0x0,%edx
  4051e9:	48 85 d2             	test   %rdx,%rdx
  4051ec:	74 f4                	je     4051e2 <register_tm_clones+0x22>
  4051ee:	5d                   	pop    %rbp
  4051ef:	48 89 c6             	mov    %rax,%rsi
  4051f2:	bf a8 91 65 00       	mov    $0x6591a8,%edi
  4051f7:	ff e2                	jmpq   *%rdx
  4051f9:	0f 1f 80 00 00 00 00 	nopl   0x0(%rax)

0000000000405200 <__do_global_dtors_aux>:
  405200:	80 3d f1 3f 25 00 00 	cmpb   $0x0,0x253ff1(%rip)        # 6591f8 <completed.6973>
  405207:	75 11                	jne    40521a <__do_global_dtors_aux+0x1a>
  405209:	55                   	push   %rbp
  40520a:	48 89 e5             	mov    %rsp,%rbp
  40520d:	e8 7e ff ff ff       	callq  405190 <deregister_tm_clones>
  405212:	5d                   	pop    %rbp
  405213:	c6 05 de 3f 25 00 01 	movb   $0x1,0x253fde(%rip)        # 6591f8 <completed.6973>
  40521a:	f3 c3                	repz retq 
  40521c:	0f 1f 40 00          	nopl   0x0(%rax)

0000000000405220 <frame_dummy>:
  405220:	48 83 3d f8 0b 25 00 	cmpq   $0x0,0x250bf8(%rip)        # 655e20 <__JCR_END__>
  405227:	00 
  405228:	74 1e                	je     405248 <frame_dummy+0x28>
  40522a:	b8 00 00 00 00       	mov    $0x0,%eax
  40522f:	48 85 c0             	test   %rax,%rax
  405232:	74 14                	je     405248 <frame_dummy+0x28>
  405234:	55                   	push   %rbp
  405235:	bf 20 5e 65 00       	mov    $0x655e20,%edi
  40523a:	48 89 e5             	mov    %rsp,%rbp
  40523d:	ff d0                	callq  *%rax
  40523f:	5d                   	pop    %rbp
  405240:	e9 7b ff ff ff       	jmpq   4051c0 <register_tm_clones>
  405245:	0f 1f 00             	nopl   (%rax)
  405248:	e9 73 ff ff ff       	jmpq   4051c0 <register_tm_clones>
  40524d:	0f 1f 00             	nopl   (%rax)

0000000000405250 <bufmap_free>:
  405250:	41 54                	push   %r12
  405252:	49 89 fc             	mov    %rdi,%r12
  405255:	55                   	push   %rbp
  405256:	53                   	push   %rbx
  405257:	48 8b 1d 7a 41 25 00 	mov    0x25417a(%rip),%rbx        # 6593d8 <bufmap_head>
  40525e:	48 39 fb             	cmp    %rdi,%rbx
  405261:	74 5d                	je     4052c0 <bufmap_free+0x70>
  405263:	48 85 db             	test   %rbx,%rbx
  405266:	75 10                	jne    405278 <bufmap_free+0x28>
  405268:	eb 56                	jmp    4052c0 <bufmap_free+0x70>
  40526a:	66 0f 1f 44 00 00    	nopw   0x0(%rax,%rax,1)
  405270:	48 85 ed             	test   %rbp,%rbp
  405273:	74 1c                	je     405291 <bufmap_free+0x41>
  405275:	48 89 eb             	mov    %rbp,%rbx
  405278:	48 8b 7b 10          	mov    0x10(%rbx),%rdi
  40527c:	48 8b 2b             	mov    (%rbx),%rbp
  40527f:	e8 ac e1 ff ff       	callq  403430 <free@plt>
  405284:	48 89 df             	mov    %rbx,%rdi
  405287:	e8 a4 e1 ff ff       	callq  403430 <free@plt>
  40528c:	49 39 ec             	cmp    %rbp,%r12
  40528f:	75 df                	jne    405270 <bufmap_free+0x20>
  405291:	48 85 ed             	test   %rbp,%rbp
  405294:	48 89 2d 3d 41 25 00 	mov    %rbp,0x25413d(%rip)        # 6593d8 <bufmap_head>
  40529b:	74 0b                	je     4052a8 <bufmap_free+0x58>
  40529d:	5b                   	pop    %rbx
  40529e:	5d                   	pop    %rbp
  40529f:	41 5c                	pop    %r12
  4052a1:	c3                   	retq   
  4052a2:	66 0f 1f 44 00 00    	nopw   0x0(%rax,%rax,1)
  4052a8:	5b                   	pop    %rbx
  4052a9:	5d                   	pop    %rbp
  4052aa:	48 c7 05 1b 41 25 00 	movq   $0x0,0x25411b(%rip)        # 6593d0 <bufmap_tail>
  4052b1:	00 00 00 00 
  4052b5:	41 5c                	pop    %r12
  4052b7:	c3                   	retq   
  4052b8:	0f 1f 84 00 00 00 00 	nopl   0x0(%rax,%rax,1)
  4052bf:	00 
  4052c0:	48 89 dd             	mov    %rbx,%rbp
  4052c3:	eb cc                	jmp    405291 <bufmap_free+0x41>
  4052c5:	66 66 2e 0f 1f 84 00 	data32 nopw %cs:0x0(%rax,%rax,1)
  4052cc:	00 00 00 00 

00000000004052d0 <bufmap_reset>:
  4052d0:	55                   	push   %rbp
  4052d1:	48 89 f5             	mov    %rsi,%rbp
  4052d4:	53                   	push   %rbx
  4052d5:	48 89 fb             	mov    %rdi,%rbx
  4052d8:	48 83 ec 08          	sub    $0x8,%rsp
  4052dc:	e8 6f ff ff ff       	callq  405250 <bufmap_free>
  4052e1:	48 85 db             	test   %rbx,%rbx
  4052e4:	74 16                	je     4052fc <bufmap_reset+0x2c>
  4052e6:	66 2e 0f 1f 84 00 00 	nopw   %cs:0x0(%rax,%rax,1)
  4052ed:	00 00 00 
  4052f0:	48 01 6b 08          	add    %rbp,0x8(%rbx)
  4052f4:	48 8b 1b             	mov    (%rbx),%rbx
  4052f7:	48 85 db             	test   %rbx,%rbx
  4052fa:	75 f4                	jne    4052f0 <bufmap_reset+0x20>
  4052fc:	48 83 c4 08          	add    $0x8,%rsp
  405300:	5b                   	pop    %rbx
  405301:	5d                   	pop    %rbp
  405302:	c3                   	retq   
  405303:	66 66 66 66 2e 0f 1f 	data32 data32 data32 nopw %cs:0x0(%rax,%rax,1)
  40530a:	84 00 00 00 00 00 

0000000000405310 <print_stats>:
  405310:	41 54                	push   %r12
  405312:	55                   	push   %rbp
  405313:	48 89 fd             	mov    %rdi,%rbp
  405316:	53                   	push   %rbx
  405317:	31 db                	xor    %ebx,%ebx
  405319:	48 81 ec 40 05 00 00 	sub    $0x540,%rsp
  405320:	64 48 8b 04 25 28 00 	mov    %fs:0x28,%rax
  405327:	00 00 
  405329:	48 89 84 24 38 05 00 	mov    %rax,0x538(%rsp)
  405330:	00 
  405331:	31 c0                	xor    %eax,%eax
  405333:	48 85 f6             	test   %rsi,%rsi
  405336:	74 09                	je     405341 <print_stats+0x31>
  405338:	80 3e 00             	cmpb   $0x0,(%rsi)
  40533b:	0f 85 1f 01 00 00    	jne    405460 <print_stats+0x150>
  405341:	f2 0f 10 0d cf 3e 25 	movsd  0x253ecf(%rip),%xmm1        # 659218 <duration>
  405348:	00 
  405349:	66 0f 2e 0d 47 9a 03 	ucomisd 0x39a47(%rip),%xmm1        # 43ed98 <magic+0xd8>
  405350:	00 
  405351:	76 1a                	jbe    40536d <print_stats+0x5d>
  405353:	66 0f 28 d0          	movapd %xmm0,%xmm2
  405357:	f2 0f 5e d1          	divsd  %xmm1,%xmm2
  40535b:	f2 0f 10 0d 3d 9a 03 	movsd  0x39a3d(%rip),%xmm1        # 43eda0 <magic+0xe0>
  405362:	00 
  405363:	66 0f 2e ca          	ucomisd %xmm2,%xmm1
  405367:	0f 87 a3 00 00 00    	ja     405410 <print_stats+0x100>
  40536d:	f2 0f 10 0d 33 9a 03 	movsd  0x39a33(%rip),%xmm1        # 43eda8 <magic+0xe8>
  405374:	00 
  405375:	41 bc d7 6e 44 00    	mov    $0x446ed7,%r12d
  40537b:	66 0f 2e c1          	ucomisd %xmm1,%xmm0
  40537f:	73 6f                	jae    4053f0 <print_stats+0xe0>
  405381:	f2 48 0f 2c f8       	cvttsd2si %xmm0,%rdi
  405386:	48 8d 74 24 10       	lea    0x10(%rsp),%rsi
  40538b:	41 b8 01 00 00 00    	mov    $0x1,%r8d
  405391:	b9 01 00 00 00       	mov    $0x1,%ecx
  405396:	ba b0 01 00 00       	mov    $0x1b0,%edx
  40539b:	f2 0f 11 04 24       	movsd  %xmm0,(%rsp)
  4053a0:	e8 eb f1 02 00       	callq  434590 <human_readable>
  4053a5:	f2 0f 10 04 24       	movsd  (%rsp),%xmm0
  4053aa:	48 89 c1             	mov    %rax,%rcx
  4053ad:	4d 89 e0             	mov    %r12,%r8
  4053b0:	ba 84 e5 43 00       	mov    $0x43e584,%edx
  4053b5:	be 01 00 00 00       	mov    $0x1,%esi
  4053ba:	48 89 ef             	mov    %rbp,%rdi
  4053bd:	b8 01 00 00 00       	mov    $0x1,%eax
  4053c2:	e8 b9 ea ff ff       	callq  403e80 <__fprintf_chk@plt>
  4053c7:	01 d8                	add    %ebx,%eax
  4053c9:	48 8b 9c 24 38 05 00 	mov    0x538(%rsp),%rbx
  4053d0:	00 
  4053d1:	64 48 33 1c 25 28 00 	xor    %fs:0x28,%rbx
  4053d8:	00 00 
  4053da:	0f 85 d3 00 00 00    	jne    4054b3 <print_stats+0x1a3>
  4053e0:	48 81 c4 40 05 00 00 	add    $0x540,%rsp
  4053e7:	5b                   	pop    %rbx
  4053e8:	5d                   	pop    %rbp
  4053e9:	41 5c                	pop    %r12
  4053eb:	c3                   	retq   
  4053ec:	0f 1f 40 00          	nopl   0x0(%rax)
  4053f0:	66 0f 28 d8          	movapd %xmm0,%xmm3
  4053f4:	48 b8 00 00 00 00 00 	movabs $0x8000000000000000,%rax
  4053fb:	00 00 80 
  4053fe:	f2 0f 5c d9          	subsd  %xmm1,%xmm3
  405402:	f2 48 0f 2c fb       	cvttsd2si %xmm3,%rdi
  405407:	48 31 c7             	xor    %rax,%rdi
  40540a:	e9 77 ff ff ff       	jmpq   405386 <print_stats+0x76>
  40540f:	90                   	nop
  405410:	f2 0f 10 0d 90 99 03 	movsd  0x39990(%rip),%xmm1        # 43eda8 <magic+0xe8>
  405417:	00 
  405418:	66 0f 2e d1          	ucomisd %xmm1,%xmm2
  40541c:	73 7a                	jae    405498 <print_stats+0x188>
  40541e:	f2 48 0f 2c fa       	cvttsd2si %xmm2,%rdi
  405423:	48 8d b4 24 a0 02 00 	lea    0x2a0(%rsp),%rsi
  40542a:	00 
  40542b:	41 b8 01 00 00 00    	mov    $0x1,%r8d
  405431:	b9 01 00 00 00       	mov    $0x1,%ecx
  405436:	ba b0 01 00 00       	mov    $0x1b0,%edx
  40543b:	f2 0f 11 4c 24 08    	movsd  %xmm1,0x8(%rsp)
  405441:	f2 0f 11 04 24       	movsd  %xmm0,(%rsp)
  405446:	e8 45 f1 02 00       	callq  434590 <human_readable>
  40544b:	f2 0f 10 04 24       	movsd  (%rsp),%xmm0
  405450:	49 89 c4             	mov    %rax,%r12
  405453:	f2 0f 10 4c 24 08    	movsd  0x8(%rsp),%xmm1
  405459:	e9 1d ff ff ff       	jmpq   40537b <print_stats+0x6b>
  40545e:	66 90                	xchg   %ax,%ax
  405460:	ba 05 00 00 00       	mov    $0x5,%edx
  405465:	31 ff                	xor    %edi,%edi
  405467:	f2 0f 11 04 24       	movsd  %xmm0,(%rsp)
  40546c:	e8 5f e2 ff ff       	callq  4036d0 <dcgettext@plt>
  405471:	ba 87 0d 44 00       	mov    $0x440d87,%edx
  405476:	48 89 c1             	mov    %rax,%rcx
  405479:	be 01 00 00 00       	mov    $0x1,%esi
  40547e:	48 89 ef             	mov    %rbp,%rdi
  405481:	31 c0                	xor    %eax,%eax
  405483:	e8 f8 e9 ff ff       	callq  403e80 <__fprintf_chk@plt>
  405488:	f2 0f 10 04 24       	movsd  (%rsp),%xmm0
  40548d:	89 c3                	mov    %eax,%ebx
  40548f:	e9 ad fe ff ff       	jmpq   405341 <print_stats+0x31>
  405494:	0f 1f 40 00          	nopl   0x0(%rax)
  405498:	f2 0f 5c d1          	subsd  %xmm1,%xmm2
  40549c:	48 b8 00 00 00 00 00 	movabs $0x8000000000000000,%rax
  4054a3:	00 00 80 
  4054a6:	f2 48 0f 2c fa       	cvttsd2si %xmm2,%rdi
  4054ab:	48 31 c7             	xor    %rax,%rdi
  4054ae:	e9 70 ff ff ff       	jmpq   405423 <print_stats+0x113>
  4054b3:	e8 88 e2 ff ff       	callq  403740 <__stack_chk_fail@plt>
  4054b8:	0f 1f 84 00 00 00 00 	nopl   0x0(%rax,%rax,1)
  4054bf:	00 

00000000004054c0 <_flush_write>:
  4054c0:	48 83 ec 18          	sub    $0x18,%rsp
  4054c4:	bf 01 00 00 00       	mov    $0x1,%edi
  4054c9:	e8 b2 40 00 00       	callq  409580 <checkpoint_run>
  4054ce:	f2 0f 10 05 22 4d 25 	movsd  0x254d22(%rip),%xmm0        # 65a1f8 <tape_length_option>
  4054d5:	00 
  4054d6:	66 0f 2e 05 ba 98 03 	ucomisd 0x398ba(%rip),%xmm0        # 43ed98 <magic+0xd8>
  4054dd:	00 
  4054de:	0f 8a d4 00 00 00    	jp     4055b8 <_flush_write+0xf8>
  4054e4:	0f 85 ce 00 00 00    	jne    4055b8 <_flush_write+0xf8>
  4054ea:	80 3d a7 4c 25 00 00 	cmpb   $0x0,0x254ca7(%rip)        # 65a198 <dev_null_output>
  4054f1:	48 8b 05 30 4e 25 00 	mov    0x254e30(%rip),%rax        # 65a328 <record_size>
  4054f8:	0f 84 e2 00 00 00    	je     4055e0 <_flush_write+0x120>
  4054fe:	48 85 c0             	test   %rax,%rax
  405501:	0f 84 a9 00 00 00    	je     4055b0 <_flush_write+0xf0>
  405507:	80 3d a6 4a 25 00 00 	cmpb   $0x0,0x254aa6(%rip)        # 659fb4 <multi_volume_option>
  40550e:	0f 84 9c 00 00 00    	je     4055b0 <_flush_write+0xf0>
  405514:	8b 15 ae 3e 25 00    	mov    0x253eae(%rip),%edx        # 6593c8 <inhibit_map>
  40551a:	85 d2                	test   %edx,%edx
  40551c:	0f 85 8e 00 00 00    	jne    4055b0 <_flush_write+0xf0>
  405522:	48 8b 0d af 3e 25 00 	mov    0x253eaf(%rip),%rcx        # 6593d8 <bufmap_head>
  405529:	48 85 c9             	test   %rcx,%rcx
  40552c:	0f 84 7e 00 00 00    	je     4055b0 <_flush_write+0xf0>
  405532:	48 8b 39             	mov    (%rcx),%rdi
  405535:	48 85 ff             	test   %rdi,%rdi
  405538:	0f 84 ac 00 00 00    	je     4055ea <_flush_write+0x12a>
  40553e:	48 8b 57 08          	mov    0x8(%rdi),%rdx
  405542:	48 c1 e2 09          	shl    $0x9,%rdx
  405546:	48 39 d0             	cmp    %rdx,%rax
  405549:	73 15                	jae    405560 <_flush_write+0xa0>
  40554b:	e9 9a 00 00 00       	jmpq   4055ea <_flush_write+0x12a>
  405550:	48 8b 4a 08          	mov    0x8(%rdx),%rcx
  405554:	48 c1 e1 09          	shl    $0x9,%rcx
  405558:	48 39 c8             	cmp    %rcx,%rax
  40555b:	72 0b                	jb     405568 <_flush_write+0xa8>
  40555d:	48 89 d7             	mov    %rdx,%rdi
  405560:	48 8b 17             	mov    (%rdi),%rdx
  405563:	48 85 d2             	test   %rdx,%rdx
  405566:	75 e8                	jne    405550 <_flush_write+0x90>
  405568:	48 8b 77 08          	mov    0x8(%rdi),%rsi
  40556c:	48 89 c1             	mov    %rax,%rcx
  40556f:	48 89 f2             	mov    %rsi,%rdx
  405572:	48 c1 e2 09          	shl    $0x9,%rdx
  405576:	48 29 d1             	sub    %rdx,%rcx
  405579:	48 8b 57 20          	mov    0x20(%rdi),%rdx
  40557d:	48 39 d1             	cmp    %rdx,%rcx
  405580:	48 0f 47 ca          	cmova  %rdx,%rcx
  405584:	48 29 ca             	sub    %rcx,%rdx
  405587:	48 85 d2             	test   %rdx,%rdx
  40558a:	48 89 57 20          	mov    %rdx,0x20(%rdi)
  40558e:	75 0e                	jne    40559e <_flush_write+0xde>
  405590:	48 8b 3f             	mov    (%rdi),%rdi
  405593:	31 f6                	xor    %esi,%esi
  405595:	48 85 ff             	test   %rdi,%rdi
  405598:	74 07                	je     4055a1 <_flush_write+0xe1>
  40559a:	48 8b 77 08          	mov    0x8(%rdi),%rsi
  40559e:	48 f7 de             	neg    %rsi
  4055a1:	48 89 44 24 08       	mov    %rax,0x8(%rsp)
  4055a6:	e8 25 fd ff ff       	callq  4052d0 <bufmap_reset>
  4055ab:	48 8b 44 24 08       	mov    0x8(%rsp),%rax
  4055b0:	48 83 c4 18          	add    $0x18,%rsp
  4055b4:	c3                   	retq   
  4055b5:	0f 1f 00             	nopl   (%rax)
  4055b8:	f2 0f 10 0d 70 3e 25 	movsd  0x253e70(%rip),%xmm1        # 659430 <bytes_written>
  4055bf:	00 
  4055c0:	66 0f 2e c8          	ucomisd %xmm0,%xmm1
  4055c4:	0f 82 20 ff ff ff    	jb     4054ea <_flush_write+0x2a>
  4055ca:	e8 e1 de ff ff       	callq  4034b0 <__errno_location@plt>
  4055cf:	c7 00 1c 00 00 00    	movl   $0x1c,(%rax)
  4055d5:	31 c0                	xor    %eax,%eax
  4055d7:	48 83 c4 18          	add    $0x18,%rsp
  4055db:	c3                   	retq   
  4055dc:	0f 1f 40 00          	nopl   0x0(%rax)
  4055e0:	e8 9b b2 01 00       	callq  420880 <sys_write_archive_buffer>
  4055e5:	e9 14 ff ff ff       	jmpq   4054fe <_flush_write+0x3e>
  4055ea:	48 89 cf             	mov    %rcx,%rdi
  4055ed:	0f 1f 00             	nopl   (%rax)
  4055f0:	e9 73 ff ff ff       	jmpq   405568 <_flush_write+0xa8>
  4055f5:	66 66 2e 0f 1f 84 00 	data32 nopw %cs:0x0(%rax,%rax,1)
  4055fc:	00 00 00 00 

0000000000405600 <init_buffer>:
  405600:	53                   	push   %rbx
  405601:	48 63 1d 00 3e 25 00 	movslq 0x253e00(%rip),%rbx        # 659408 <record_index>
  405608:	48 8b 04 dd 10 94 65 	mov    0x659410(,%rbx,8),%rax
  40560f:	00 
  405610:	48 85 c0             	test   %rax,%rax
  405613:	74 2b                	je     405640 <init_buffer+0x40>
  405615:	48 63 15 58 4c 25 00 	movslq 0x254c58(%rip),%rdx        # 65a274 <blocking_factor>
  40561c:	48 89 05 ad 48 25 00 	mov    %rax,0x2548ad(%rip)        # 659ed0 <record_start>
  405623:	48 89 05 be 48 25 00 	mov    %rax,0x2548be(%rip)        # 659ee8 <current_block>
  40562a:	5b                   	pop    %rbx
  40562b:	48 c1 e2 09          	shl    $0x9,%rdx
  40562f:	48 01 d0             	add    %rdx,%rax
  405632:	48 89 05 6f 48 25 00 	mov    %rax,0x25486f(%rip)        # 659ea8 <record_end>
  405639:	c3                   	retq   
  40563a:	66 0f 1f 44 00 00    	nopw   0x0(%rax,%rax,1)
  405640:	48 8b 35 e1 4c 25 00 	mov    0x254ce1(%rip),%rsi        # 65a328 <record_size>
  405647:	48 8d 3c dd 20 94 65 	lea    0x659420(,%rbx,8),%rdi
  40564e:	00 
  40564f:	e8 5c 65 01 00       	callq  41bbb0 <page_aligned_alloc>
  405654:	48 89 04 dd 10 94 65 	mov    %rax,0x659410(,%rbx,8)
  40565b:	00 
  40565c:	48 63 05 a5 3d 25 00 	movslq 0x253da5(%rip),%rax        # 659408 <record_index>
  405663:	48 8b 04 c5 10 94 65 	mov    0x659410(,%rax,8),%rax
  40566a:	00 
  40566b:	eb a8                	jmp    405615 <init_buffer+0x15>
  40566d:	0f 1f 00             	nopl   (%rax)

0000000000405670 <guess_seekable_archive>:
  405670:	83 3d 6d 4c 25 00 04 	cmpl   $0x4,0x254c6d(%rip)        # 65a2e4 <subcommand_option>
  405677:	74 37                	je     4056b0 <guess_seekable_archive+0x40>
  405679:	8b 05 31 49 25 00    	mov    0x254931(%rip),%eax        # 659fb0 <seek_option>
  40567f:	83 f8 ff             	cmp    $0xffffffff,%eax
  405682:	74 0c                	je     405690 <guess_seekable_archive+0x20>
  405684:	85 c0                	test   %eax,%eax
  405686:	0f 95 05 a3 4c 25 00 	setne  0x254ca3(%rip)        # 65a330 <seekable_archive>
  40568d:	c3                   	retq   
  40568e:	66 90                	xchg   %ax,%ax
  405690:	80 3d 1d 49 25 00 00 	cmpb   $0x0,0x25491d(%rip)        # 659fb4 <multi_volume_option>
  405697:	75 0a                	jne    4056a3 <guess_seekable_archive+0x33>
  405699:	48 83 3d 77 4c 25 00 	cmpq   $0x0,0x254c77(%rip)        # 65a318 <use_compress_program_option>
  4056a0:	00 
  4056a1:	74 1d                	je     4056c0 <guess_seekable_archive+0x50>
  4056a3:	c6 05 86 4c 25 00 00 	movb   $0x0,0x254c86(%rip)        # 65a330 <seekable_archive>
  4056aa:	c3                   	retq   
  4056ab:	0f 1f 44 00 00       	nopl   0x0(%rax,%rax,1)
  4056b0:	c6 05 79 4c 25 00 00 	movb   $0x0,0x254c79(%rip)        # 65a330 <seekable_archive>
  4056b7:	eb c0                	jmp    405679 <guess_seekable_archive+0x9>
  4056b9:	0f 1f 80 00 00 00 00 	nopl   0x0(%rax)
  4056c0:	48 81 ec 98 00 00 00 	sub    $0x98,%rsp
  4056c7:	8b 35 9b 4c 25 00    	mov    0x254c9b(%rip),%esi        # 65a368 <archive>
  4056cd:	bf 01 00 00 00       	mov    $0x1,%edi
  4056d2:	48 89 e2             	mov    %rsp,%rdx
  4056d5:	e8 b6 e4 ff ff       	callq  403b90 <__fxstat@plt>
  4056da:	85 c0                	test   %eax,%eax
  4056dc:	75 1d                	jne    4056fb <guess_seekable_archive+0x8b>
  4056de:	8b 44 24 18          	mov    0x18(%rsp),%eax
  4056e2:	25 00 f0 00 00       	and    $0xf000,%eax
  4056e7:	3d 00 80 00 00       	cmp    $0x8000,%eax
  4056ec:	0f 94 05 3d 4c 25 00 	sete   0x254c3d(%rip)        # 65a330 <seekable_archive>
  4056f3:	48 81 c4 98 00 00 00 	add    $0x98,%rsp
  4056fa:	c3                   	retq   
  4056fb:	c6 05 2e 4c 25 00 00 	movb   $0x0,0x254c2e(%rip)        # 65a330 <seekable_archive>
  405702:	eb ef                	jmp    4056f3 <guess_seekable_archive+0x83>
  405704:	66 66 66 2e 0f 1f 84 	data32 data32 nopw %cs:0x0(%rax,%rax,1)
  40570b:	00 00 00 00 00 

0000000000405710 <increase_volume_number>:
  405710:	83 05 31 10 25 00 01 	addl   $0x1,0x251031(%rip)        # 656748 <global_volno>
  405717:	78 08                	js     405721 <increase_volume_number+0x11>
  405719:	83 05 2c 10 25 00 01 	addl   $0x1,0x25102c(%rip)        # 65674c <volno>
  405720:	c3                   	retq   
  405721:	50                   	push   %rax
  405722:	48 8b 05 5f 4c 25 00 	mov    0x254c5f(%rip),%rax        # 65a388 <error_hook>
  405729:	48 85 c0             	test   %rax,%rax
  40572c:	74 02                	je     405730 <increase_volume_number+0x20>
  40572e:	ff d0                	callq  *%rax
  405730:	ba 05 00 00 00       	mov    $0x5,%edx
  405735:	be 94 e5 43 00       	mov    $0x43e594,%esi
  40573a:	31 ff                	xor    %edi,%edi
  40573c:	e8 8f df ff ff       	callq  4036d0 <dcgettext@plt>
  405741:	31 f6                	xor    %esi,%esi
  405743:	48 89 c2             	mov    %rax,%rdx
  405746:	31 ff                	xor    %edi,%edi
  405748:	31 c0                	xor    %eax,%eax
  40574a:	e8 91 e5 ff ff       	callq  403ce0 <error@plt>
  40574f:	e8 fc 93 00 00       	callq  40eb50 <fatal_exit>
  405754:	66 66 66 2e 0f 1f 84 	data32 data32 nopw %cs:0x0(%rax,%rax,1)
  40575b:	00 00 00 00 00 

0000000000405760 <add_chunk_header.isra.2>:
  405760:	83 3d 51 4b 25 00 04 	cmpl   $0x4,0x254b51(%rip)        # 65a2b8 <archive_format>
  405767:	74 07                	je     405770 <add_chunk_header.isra.2+0x10>
  405769:	c3                   	retq   
  40576a:	66 0f 1f 44 00 00    	nopw   0x0(%rax,%rax,1)
  405770:	55                   	push   %rbp
  405771:	48 89 fa             	mov    %rdi,%rdx
  405774:	31 c0                	xor    %eax,%eax
  405776:	b9 35 00 00 00       	mov    $0x35,%ecx
  40577b:	53                   	push   %rbx
  40577c:	48 89 f3             	mov    %rsi,%rbx
  40577f:	48 81 ec b8 01 00 00 	sub    $0x1b8,%rsp
  405786:	48 89 e7             	mov    %rsp,%rdi
  405789:	f3 48 ab             	rep stos %rax,%es:(%rdi)
  40578c:	48 8b 02             	mov    (%rdx),%rax
  40578f:	c7 44 24 70 a4 81 00 	movl   $0x81a4,0x70(%rsp)
  405796:	00 
  405797:	48 89 44 24 08       	mov    %rax,0x8(%rsp)
  40579c:	48 89 04 24          	mov    %rax,(%rsp)
  4057a0:	e8 ab df ff ff       	callq  403750 <getuid@plt>
  4057a5:	89 44 24 74          	mov    %eax,0x74(%rsp)
  4057a9:	e8 42 e3 ff ff       	callq  403af0 <getgid@plt>
  4057ae:	48 63 15 97 0f 25 00 	movslq 0x250f97(%rip),%rdx        # 65674c <volno>
  4057b5:	be ab e5 43 00       	mov    $0x43e5ab,%esi
  4057ba:	48 89 e7             	mov    %rsp,%rdi
  4057bd:	89 44 24 78          	mov    %eax,0x78(%rsp)
  4057c1:	e8 da e0 00 00       	callq  4138a0 <xheader_format_name>
  4057c6:	48 89 04 24          	mov    %rax,(%rsp)
  4057ca:	48 89 44 24 08       	mov    %rax,0x8(%rsp)
  4057cf:	48 89 e7             	mov    %rsp,%rdi
  4057d2:	48 8b 03             	mov    (%rbx),%rax
  4057d5:	48 8b 1d 0c 47 25 00 	mov    0x25470c(%rip),%rbx        # 659ee8 <current_block>
  4057dc:	48 2b 1d ed 46 25 00 	sub    0x2546ed(%rip),%rbx        # 659ed0 <record_start>
  4057e3:	48 89 84 24 88 00 00 	mov    %rax,0x88(%rsp)
  4057ea:	00 
  4057eb:	48 89 84 24 18 01 00 	mov    %rax,0x118(%rsp)
  4057f2:	00 
  4057f3:	48 c1 fb 09          	sar    $0x9,%rbx
  4057f7:	48 03 1d 02 3c 25 00 	add    0x253c02(%rip),%rbx        # 659400 <record_start_block>
  4057fe:	e8 9d 61 00 00       	callq  40b9a0 <start_header>
  405803:	48 85 c0             	test   %rax,%rax
  405806:	74 21                	je     405829 <add_chunk_header.isra.2+0xc9>
  405808:	48 89 da             	mov    %rbx,%rdx
  40580b:	48 89 e7             	mov    %rsp,%rdi
  40580e:	48 89 c6             	mov    %rax,%rsi
  405811:	e8 aa 5f 00 00       	callq  40b7c0 <finish_header>
  405816:	48 8b 3c 24          	mov    (%rsp),%rdi
  40581a:	e8 11 dc ff ff       	callq  403430 <free@plt>
  40581f:	48 81 c4 b8 01 00 00 	add    $0x1b8,%rsp
  405826:	5b                   	pop    %rbx
  405827:	5d                   	pop    %rbp
  405828:	c3                   	retq   
  405829:	e8 72 dc ff ff       	callq  4034a0 <abort@plt>
  40582e:	66 90                	xchg   %ax,%ax

0000000000405830 <mv_begin_write>:
  405830:	80 3d 7d 47 25 00 00 	cmpb   $0x0,0x25477d(%rip)        # 659fb4 <multi_volume_option>
  405837:	75 07                	jne    405840 <mv_begin_write+0x10>
  405839:	c3                   	retq   
  40583a:	66 0f 1f 44 00 00    	nopw   0x0(%rax,%rax,1)
  405840:	41 55                	push   %r13
  405842:	49 89 fd             	mov    %rdi,%r13
  405845:	bf 28 00 00 00       	mov    $0x28,%edi
  40584a:	41 54                	push   %r12
  40584c:	49 89 f4             	mov    %rsi,%r12
  40584f:	55                   	push   %rbp
  405850:	48 89 d5             	mov    %rdx,%rbp
  405853:	53                   	push   %rbx
  405854:	48 83 ec 08          	sub    $0x8,%rsp
  405858:	e8 b3 51 03 00       	callq  43aa10 <xmalloc>
  40585d:	48 89 c3             	mov    %rax,%rbx
  405860:	48 8b 05 69 3b 25 00 	mov    0x253b69(%rip),%rax        # 6593d0 <bufmap_tail>
  405867:	48 85 c0             	test   %rax,%rax
  40586a:	74 4c                	je     4058b8 <mv_begin_write+0x88>
  40586c:	48 89 18             	mov    %rbx,(%rax)
  40586f:	48 8b 05 72 46 25 00 	mov    0x254672(%rip),%rax        # 659ee8 <current_block>
  405876:	48 2b 05 53 46 25 00 	sub    0x254653(%rip),%rax        # 659ed0 <record_start>
  40587d:	4c 89 ef             	mov    %r13,%rdi
  405880:	48 89 1d 49 3b 25 00 	mov    %rbx,0x253b49(%rip)        # 6593d0 <bufmap_tail>
  405887:	48 c7 03 00 00 00 00 	movq   $0x0,(%rbx)
  40588e:	48 c1 f8 09          	sar    $0x9,%rax
  405892:	48 89 43 08          	mov    %rax,0x8(%rbx)
  405896:	e8 65 53 03 00       	callq  43ac00 <xstrdup>
  40589b:	4c 89 63 18          	mov    %r12,0x18(%rbx)
  40589f:	48 89 6b 20          	mov    %rbp,0x20(%rbx)
  4058a3:	48 89 43 10          	mov    %rax,0x10(%rbx)
  4058a7:	48 83 c4 08          	add    $0x8,%rsp
  4058ab:	5b                   	pop    %rbx
  4058ac:	5d                   	pop    %rbp
  4058ad:	41 5c                	pop    %r12
  4058af:	41 5d                	pop    %r13
  4058b1:	c3                   	retq   
  4058b2:	66 0f 1f 44 00 00    	nopw   0x0(%rax,%rax,1)
  4058b8:	48 89 1d 19 3b 25 00 	mov    %rbx,0x253b19(%rip)        # 6593d8 <bufmap_head>
  4058bf:	eb ae                	jmp    40586f <mv_begin_write+0x3f>
  4058c1:	66 66 66 66 66 66 2e 	data32 data32 data32 data32 data32 nopw %cs:0x0(%rax,%rax,1)
  4058c8:	0f 1f 84 00 00 00 00 
  4058cf:	00 

00000000004058d0 <buffer_write_global_xheader>:
  4058d0:	bf 78 93 65 00       	mov    $0x659378,%edi
  4058d5:	e9 b6 eb 00 00       	jmpq   414490 <xheader_write_global>
  4058da:	66 0f 1f 44 00 00    	nopw   0x0(%rax,%rax,1)

00000000004058e0 <mv_begin_read>:
  4058e0:	48 8b b7 88 00 00 00 	mov    0x88(%rdi),%rsi
  4058e7:	48 8b 3f             	mov    (%rdi),%rdi
  4058ea:	48 89 f2             	mov    %rsi,%rdx
  4058ed:	e9 3e ff ff ff       	jmpq   405830 <mv_begin_write>
  4058f2:	66 66 66 66 66 2e 0f 	data32 data32 data32 data32 nopw %cs:0x0(%rax,%rax,1)
  4058f9:	1f 84 00 00 00 00 00 

0000000000405900 <mv_end>:
  405900:	80 3d ad 46 25 00 00 	cmpb   $0x0,0x2546ad(%rip)        # 659fb4 <multi_volume_option>
  405907:	75 07                	jne    405910 <mv_end+0x10>
  405909:	f3 c3                	repz retq 
  40590b:	0f 1f 44 00 00       	nopl   0x0(%rax,%rax,1)
  405910:	31 ff                	xor    %edi,%edi
  405912:	e9 39 f9 ff ff       	jmpq   405250 <bufmap_free>
  405917:	66 0f 1f 84 00 00 00 	nopw   0x0(%rax,%rax,1)
  40591e:	00 00 

0000000000405920 <mv_size_left>:
  405920:	48 8b 05 b1 3a 25 00 	mov    0x253ab1(%rip),%rax        # 6593d8 <bufmap_head>
  405927:	48 85 c0             	test   %rax,%rax
  40592a:	74 04                	je     405930 <mv_size_left+0x10>
  40592c:	48 89 78 20          	mov    %rdi,0x20(%rax)
  405930:	f3 c3                	repz retq 
  405932:	66 66 66 66 66 2e 0f 	data32 data32 data32 data32 nopw %cs:0x0(%rax,%rax,1)
  405939:	1f 84 00 00 00 00 00 

0000000000405940 <clear_read_error_count>:
  405940:	c7 05 aa 3a 25 00 00 	movl   $0x0,0x253aaa(%rip)        # 6593f4 <read_error_count>
  405947:	00 00 00 
  40594a:	c3                   	retq   
  40594b:	0f 1f 44 00 00       	nopl   0x0(%rax,%rax,1)

0000000000405950 <set_start_time>:
  405950:	48 83 ec 08          	sub    $0x8,%rsp
  405954:	bf 50 a2 65 00       	mov    $0x65a250,%edi
  405959:	e8 42 da 02 00       	callq  4333a0 <gettime>
  40595e:	48 8b 05 eb 48 25 00 	mov    0x2548eb(%rip),%rax        # 65a250 <start_time>
  405965:	48 8b 15 ec 48 25 00 	mov    0x2548ec(%rip),%rdx        # 65a258 <start_time+0x8>
  40596c:	48 89 05 cd 49 25 00 	mov    %rax,0x2549cd(%rip)        # 65a340 <volume_start_time>
  405973:	48 89 15 ce 49 25 00 	mov    %rdx,0x2549ce(%rip)        # 65a348 <volume_start_time+0x8>
  40597a:	48 89 05 6f 49 25 00 	mov    %rax,0x25496f(%rip)        # 65a2f0 <last_stat_time>
  405981:	48 89 15 70 49 25 00 	mov    %rdx,0x254970(%rip)        # 65a2f8 <last_stat_time+0x8>
  405988:	48 83 c4 08          	add    $0x8,%rsp
  40598c:	c3                   	retq   
  40598d:	0f 1f 00             	nopl   (%rax)

0000000000405990 <compute_duration>:
  405990:	48 83 ec 18          	sub    $0x18,%rsp
  405994:	48 89 e7             	mov    %rsp,%rdi
  405997:	e8 04 da 02 00       	callq  4333a0 <gettime>
  40599c:	48 8b 04 24          	mov    (%rsp),%rax
  4059a0:	48 2b 05 49 49 25 00 	sub    0x254949(%rip),%rax        # 65a2f0 <last_stat_time>
  4059a7:	bf f0 a2 65 00       	mov    $0x65a2f0,%edi
  4059ac:	f2 48 0f 2a c0       	cvtsi2sd %rax,%xmm0
  4059b1:	48 8b 44 24 08       	mov    0x8(%rsp),%rax
  4059b6:	48 2b 05 3b 49 25 00 	sub    0x25493b(%rip),%rax        # 65a2f8 <last_stat_time+0x8>
  4059bd:	f2 48 0f 2a c8       	cvtsi2sd %rax,%xmm1
  4059c2:	f2 0f 5e 0d e6 93 03 	divsd  0x393e6(%rip),%xmm1        # 43edb0 <magic+0xf0>
  4059c9:	00 
  4059ca:	f2 0f 58 c1          	addsd  %xmm1,%xmm0
  4059ce:	f2 0f 58 05 42 38 25 	addsd  0x253842(%rip),%xmm0        # 659218 <duration>
  4059d5:	00 
  4059d6:	f2 0f 11 05 3a 38 25 	movsd  %xmm0,0x25383a(%rip)        # 659218 <duration>
  4059dd:	00 
  4059de:	e8 bd d9 02 00       	callq  4333a0 <gettime>
  4059e3:	f2 0f 10 05 2d 38 25 	movsd  0x25382d(%rip),%xmm0        # 659218 <duration>
  4059ea:	00 
  4059eb:	48 83 c4 18          	add    $0x18,%rsp
  4059ef:	c3                   	retq   

00000000004059f0 <first_decompress_program>:
  4059f0:	48 8b 05 21 49 25 00 	mov    0x254921(%rip),%rax        # 65a318 <use_compress_program_option>
  4059f7:	48 85 c0             	test   %rax,%rax
  4059fa:	74 04                	je     405a00 <first_decompress_program+0x10>
  4059fc:	f3 c3                	repz retq 
  4059fe:	66 90                	xchg   %ax,%ax
  405a00:	8b 35 0a 38 25 00    	mov    0x25380a(%rip),%esi        # 659210 <archive_compression_type>
  405a06:	85 f6                	test   %esi,%esi
  405a08:	74 39                	je     405a43 <first_decompress_program+0x53>
  405a0a:	8b 05 30 0c 25 00    	mov    0x250c30(%rip),%eax        # 656640 <zip_program>
  405a10:	c7 07 00 00 00 00    	movl   $0x0,(%rdi)
  405a16:	85 c0                	test   %eax,%eax
  405a18:	74 54                	je     405a6e <first_decompress_program+0x7e>
  405a1a:	39 c6                	cmp    %eax,%esi
  405a1c:	74 54                	je     405a72 <first_decompress_program+0x82>
  405a1e:	b8 58 66 65 00       	mov    $0x656658,%eax
  405a23:	31 c9                	xor    %ecx,%ecx
  405a25:	eb 11                	jmp    405a38 <first_decompress_program+0x48>
  405a27:	66 0f 1f 84 00 00 00 	nopw   0x0(%rax,%rax,1)
  405a2e:	00 00 
  405a30:	48 83 c0 18          	add    $0x18,%rax
  405a34:	39 d6                	cmp    %edx,%esi
  405a36:	74 18                	je     405a50 <first_decompress_program+0x60>
  405a38:	8b 10                	mov    (%rax),%edx
  405a3a:	83 c1 01             	add    $0x1,%ecx
  405a3d:	85 d2                	test   %edx,%edx
  405a3f:	75 ef                	jne    405a30 <first_decompress_program+0x40>
  405a41:	89 0f                	mov    %ecx,(%rdi)
  405a43:	31 c0                	xor    %eax,%eax
  405a45:	c3                   	retq   
  405a46:	66 2e 0f 1f 84 00 00 	nopw   %cs:0x0(%rax,%rax,1)
  405a4d:	00 00 00 
  405a50:	48 63 c1             	movslq %ecx,%rax
  405a53:	83 c1 01             	add    $0x1,%ecx
  405a56:	48 8d 04 40          	lea    (%rax,%rax,2),%rax
  405a5a:	89 0f                	mov    %ecx,(%rdi)
  405a5c:	48 8d 04 c5 40 66 65 	lea    0x656640(,%rax,8),%rax
  405a63:	00 
  405a64:	48 85 c0             	test   %rax,%rax
  405a67:	74 da                	je     405a43 <first_decompress_program+0x53>
  405a69:	48 8b 40 08          	mov    0x8(%rax),%rax
  405a6d:	c3                   	retq   
  405a6e:	31 c9                	xor    %ecx,%ecx
  405a70:	eb cf                	jmp    405a41 <first_decompress_program+0x51>
  405a72:	c7 07 01 00 00 00    	movl   $0x1,(%rdi)
  405a78:	b8 40 66 65 00       	mov    $0x656640,%eax
  405a7d:	eb ea                	jmp    405a69 <first_decompress_program+0x79>
  405a7f:	90                   	nop

0000000000405a80 <next_decompress_program>:
  405a80:	48 83 3d 90 48 25 00 	cmpq   $0x0,0x254890(%rip)        # 65a318 <use_compress_program_option>
  405a87:	00 
  405a88:	75 29                	jne    405ab3 <next_decompress_program+0x33>
  405a8a:	8b 35 80 37 25 00    	mov    0x253780(%rip),%esi        # 659210 <archive_compression_type>
  405a90:	8b 17                	mov    (%rdi),%edx
  405a92:	eb 0b                	jmp    405a9f <next_decompress_program+0x1f>
  405a94:	0f 1f 40 00          	nopl   0x0(%rax)
  405a98:	83 c2 01             	add    $0x1,%edx
  405a9b:	39 ce                	cmp    %ecx,%esi
  405a9d:	74 21                	je     405ac0 <next_decompress_program+0x40>
  405a9f:	48 63 c2             	movslq %edx,%rax
  405aa2:	48 8d 0c 40          	lea    (%rax,%rax,2),%rcx
  405aa6:	8b 0c cd 40 66 65 00 	mov    0x656640(,%rcx,8),%ecx
  405aad:	85 c9                	test   %ecx,%ecx
  405aaf:	75 e7                	jne    405a98 <next_decompress_program+0x18>
  405ab1:	89 17                	mov    %edx,(%rdi)
  405ab3:	31 c0                	xor    %eax,%eax
  405ab5:	c3                   	retq   
  405ab6:	66 2e 0f 1f 84 00 00 	nopw   %cs:0x0(%rax,%rax,1)
  405abd:	00 00 00 
  405ac0:	48 8d 04 40          	lea    (%rax,%rax,2),%rax
  405ac4:	89 17                	mov    %edx,(%rdi)
  405ac6:	48 8d 04 c5 40 66 65 	lea    0x656640(,%rax,8),%rax
  405acd:	00 
  405ace:	48 85 c0             	test   %rax,%rax
  405ad1:	74 e0                	je     405ab3 <next_decompress_program+0x33>
  405ad3:	48 8b 40 08          	mov    0x8(%rax),%rax
  405ad7:	c3                   	retq   
  405ad8:	0f 1f 84 00 00 00 00 	nopl   0x0(%rax,%rax,1)
  405adf:	00 

0000000000405ae0 <format_total_stats>:
  405ae0:	41 56                	push   %r14
  405ae2:	41 55                	push   %r13
  405ae4:	41 89 cd             	mov    %ecx,%r13d
  405ae7:	41 54                	push   %r12
  405ae9:	55                   	push   %rbp
  405aea:	53                   	push   %rbx
  405aeb:	48 83 ec 30          	sub    $0x30,%rsp
  405aef:	64 48 8b 04 25 28 00 	mov    %fs:0x28,%rax
  405af6:	00 00 
  405af8:	48 89 44 24 28       	mov    %rax,0x28(%rsp)
  405afd:	31 c0                	xor    %eax,%eax
  405aff:	8b 05 df 47 25 00    	mov    0x2547df(%rip),%eax        # 65a2e4 <subcommand_option>
  405b05:	8d 48 ff             	lea    -0x1(%rax),%ecx
  405b08:	83 f9 07             	cmp    $0x7,%ecx
  405b0b:	0f 87 9e 02 00 00    	ja     405daf <format_total_stats+0x2cf>
  405b11:	b8 01 00 00 00       	mov    $0x1,%eax
  405b16:	48 89 fb             	mov    %rdi,%rbx
  405b19:	49 89 f4             	mov    %rsi,%r12
  405b1c:	48 d3 e0             	shl    %cl,%rax
  405b1f:	a8 87                	test   $0x87,%al
  405b21:	0f 85 69 01 00 00    	jne    405c90 <format_total_stats+0x1b0>
  405b27:	a8 70                	test   $0x70,%al
  405b29:	0f 85 a1 01 00 00    	jne    405cd0 <format_total_stats+0x1f0>
  405b2f:	a8 08                	test   $0x8,%al
  405b31:	0f 84 78 02 00 00    	je     405daf <format_total_stats+0x2cf>
  405b37:	48 8b 05 62 43 25 00 	mov    0x254362(%rip),%rax        # 659ea0 <records_read>
  405b3e:	41 89 d6             	mov    %edx,%r14d
  405b41:	48 0f af 05 df 47 25 	imul   0x2547df(%rip),%rax        # 65a328 <record_size>
  405b48:	00 
  405b49:	48 85 c0             	test   %rax,%rax
  405b4c:	0f 88 ce 01 00 00    	js     405d20 <format_total_stats+0x240>
  405b52:	f2 48 0f 2a c0       	cvtsi2sd %rax,%xmm0
  405b57:	49 8b 34 24          	mov    (%r12),%rsi
  405b5b:	48 89 df             	mov    %rbx,%rdi
  405b5e:	e8 ad f7 ff ff       	callq  405310 <print_stats>
  405b63:	48 8b 53 28          	mov    0x28(%rbx),%rdx
  405b67:	48 3b 53 30          	cmp    0x30(%rbx),%rdx
  405b6b:	89 c5                	mov    %eax,%ebp
  405b6d:	0f 83 63 02 00 00    	jae    405dd6 <format_total_stats+0x2f6>
  405b73:	48 8d 42 01          	lea    0x1(%rdx),%rax
  405b77:	48 89 43 28          	mov    %rax,0x28(%rbx)
  405b7b:	44 88 32             	mov    %r14b,(%rdx)
  405b7e:	f2 0f 10 05 b2 38 25 	movsd  0x2538b2(%rip),%xmm0        # 659438 <prev_written>
  405b85:	00 
  405b86:	49 8b 74 24 08       	mov    0x8(%r12),%rsi
  405b8b:	83 c5 01             	add    $0x1,%ebp
  405b8e:	48 89 df             	mov    %rbx,%rdi
  405b91:	f2 0f 58 05 97 38 25 	addsd  0x253897(%rip),%xmm0        # 659430 <bytes_written>
  405b98:	00 
  405b99:	e8 72 f7 ff ff       	callq  405310 <print_stats>
  405b9e:	48 8b 53 28          	mov    0x28(%rbx),%rdx
  405ba2:	01 c5                	add    %eax,%ebp
  405ba4:	48 3b 53 30          	cmp    0x30(%rbx),%rdx
  405ba8:	0f 83 06 02 00 00    	jae    405db4 <format_total_stats+0x2d4>
  405bae:	48 8d 42 01          	lea    0x1(%rdx),%rax
  405bb2:	48 89 43 28          	mov    %rax,0x28(%rbx)
  405bb6:	44 88 32             	mov    %r14b,(%rdx)
  405bb9:	49 8b 74 24 10       	mov    0x10(%r12),%rsi
  405bbe:	83 c5 01             	add    $0x1,%ebp
  405bc1:	48 85 f6             	test   %rsi,%rsi
  405bc4:	74 09                	je     405bcf <format_total_stats+0xef>
  405bc6:	80 3e 00             	cmpb   $0x0,(%rsi)
  405bc9:	0f 85 71 01 00 00    	jne    405d40 <format_total_stats+0x260>
  405bcf:	48 8b 15 ca 42 25 00 	mov    0x2542ca(%rip),%rdx        # 659ea0 <records_read>
  405bd6:	48 2b 15 23 43 25 00 	sub    0x254323(%rip),%rdx        # 659f00 <records_skipped>
  405bdd:	48 0f af 15 43 47 25 	imul   0x254743(%rip),%rdx        # 65a328 <record_size>
  405be4:	00 
  405be5:	48 85 d2             	test   %rdx,%rdx
  405be8:	0f 88 82 01 00 00    	js     405d70 <format_total_stats+0x290>
  405bee:	f2 48 0f 2a ca       	cvtsi2sd %rdx,%xmm1
  405bf3:	f2 0f 10 05 3d 38 25 	movsd  0x25383d(%rip),%xmm0        # 659438 <prev_written>
  405bfa:	00 
  405bfb:	f2 0f 58 05 2d 38 25 	addsd  0x25382d(%rip),%xmm0        # 659430 <bytes_written>
  405c02:	00 
  405c03:	f2 0f 5c c8          	subsd  %xmm0,%xmm1
  405c07:	66 0f 28 c1          	movapd %xmm1,%xmm0
  405c0b:	f2 0f 10 0d 95 91 03 	movsd  0x39195(%rip),%xmm1        # 43eda8 <magic+0xe8>
  405c12:	00 
  405c13:	66 0f 2e c1          	ucomisd %xmm1,%xmm0
  405c17:	0f 83 93 00 00 00    	jae    405cb0 <format_total_stats+0x1d0>
  405c1d:	f2 48 0f 2c f8       	cvttsd2si %xmm0,%rdi
  405c22:	48 8d 74 24 10       	lea    0x10(%rsp),%rsi
  405c27:	e8 e4 f6 02 00       	callq  435310 <umaxtostr>
  405c2c:	ba a7 6a 44 00       	mov    $0x446aa7,%edx
  405c31:	48 89 c1             	mov    %rax,%rcx
  405c34:	be 01 00 00 00       	mov    $0x1,%esi
  405c39:	48 89 df             	mov    %rbx,%rdi
  405c3c:	31 c0                	xor    %eax,%eax
  405c3e:	e8 3d e2 ff ff       	callq  403e80 <__fprintf_chk@plt>
  405c43:	01 c5                	add    %eax,%ebp
  405c45:	45 85 ed             	test   %r13d,%r13d
  405c48:	74 1c                	je     405c66 <format_total_stats+0x186>
  405c4a:	48 8b 43 28          	mov    0x28(%rbx),%rax
  405c4e:	48 3b 43 30          	cmp    0x30(%rbx),%rax
  405c52:	0f 83 6d 01 00 00    	jae    405dc5 <format_total_stats+0x2e5>
  405c58:	48 8d 50 01          	lea    0x1(%rax),%rdx
  405c5c:	48 89 53 28          	mov    %rdx,0x28(%rbx)
  405c60:	44 88 28             	mov    %r13b,(%rax)
  405c63:	83 c5 01             	add    $0x1,%ebp
  405c66:	48 8b 4c 24 28       	mov    0x28(%rsp),%rcx
  405c6b:	64 48 33 0c 25 28 00 	xor    %fs:0x28,%rcx
  405c72:	00 00 
  405c74:	89 e8                	mov    %ebp,%eax
  405c76:	0f 85 2e 01 00 00    	jne    405daa <format_total_stats+0x2ca>
  405c7c:	48 83 c4 30          	add    $0x30,%rsp
  405c80:	5b                   	pop    %rbx
  405c81:	5d                   	pop    %rbp
  405c82:	41 5c                	pop    %r12
  405c84:	41 5d                	pop    %r13
  405c86:	41 5e                	pop    %r14
  405c88:	c3                   	retq   
  405c89:	0f 1f 80 00 00 00 00 	nopl   0x0(%rax)
  405c90:	f2 0f 10 05 a0 37 25 	movsd  0x2537a0(%rip),%xmm0        # 659438 <prev_written>
  405c97:	00 
  405c98:	48 8b 76 08          	mov    0x8(%rsi),%rsi
  405c9c:	f2 0f 58 05 8c 37 25 	addsd  0x25378c(%rip),%xmm0        # 659430 <bytes_written>
  405ca3:	00 
  405ca4:	e8 67 f6 ff ff       	callq  405310 <print_stats>
  405ca9:	89 c5                	mov    %eax,%ebp
  405cab:	eb 98                	jmp    405c45 <format_total_stats+0x165>
  405cad:	0f 1f 00             	nopl   (%rax)
  405cb0:	f2 0f 5c c1          	subsd  %xmm1,%xmm0
  405cb4:	48 b8 00 00 00 00 00 	movabs $0x8000000000000000,%rax
  405cbb:	00 00 80 
  405cbe:	f2 48 0f 2c f8       	cvttsd2si %xmm0,%rdi
  405cc3:	48 31 c7             	xor    %rax,%rdi
  405cc6:	e9 57 ff ff ff       	jmpq   405c22 <format_total_stats+0x142>
  405ccb:	0f 1f 44 00 00       	nopl   0x0(%rax,%rax,1)
  405cd0:	48 8b 05 c9 41 25 00 	mov    0x2541c9(%rip),%rax        # 659ea0 <records_read>
  405cd7:	48 0f af 05 49 46 25 	imul   0x254649(%rip),%rax        # 65a328 <record_size>
  405cde:	00 
  405cdf:	48 85 c0             	test   %rax,%rax
  405ce2:	0f 88 a8 00 00 00    	js     405d90 <format_total_stats+0x2b0>
  405ce8:	f2 48 0f 2a c0       	cvtsi2sd %rax,%xmm0
  405ced:	49 8b 34 24          	mov    (%r12),%rsi
  405cf1:	ba 05 00 00 00       	mov    $0x5,%edx
  405cf6:	31 ff                	xor    %edi,%edi
  405cf8:	f2 0f 11 44 24 08    	movsd  %xmm0,0x8(%rsp)
  405cfe:	e8 cd d9 ff ff       	callq  4036d0 <dcgettext@plt>
  405d03:	f2 0f 10 44 24 08    	movsd  0x8(%rsp),%xmm0
  405d09:	48 89 c6             	mov    %rax,%rsi
  405d0c:	48 89 df             	mov    %rbx,%rdi
  405d0f:	e8 fc f5 ff ff       	callq  405310 <print_stats>
  405d14:	89 c5                	mov    %eax,%ebp
  405d16:	e9 2a ff ff ff       	jmpq   405c45 <format_total_stats+0x165>
  405d1b:	0f 1f 44 00 00       	nopl   0x0(%rax,%rax,1)
  405d20:	48 89 c2             	mov    %rax,%rdx
  405d23:	83 e0 01             	and    $0x1,%eax
  405d26:	48 d1 ea             	shr    %rdx
  405d29:	48 09 c2             	or     %rax,%rdx
  405d2c:	f2 48 0f 2a c2       	cvtsi2sd %rdx,%xmm0
  405d31:	f2 0f 58 c0          	addsd  %xmm0,%xmm0
  405d35:	e9 1d fe ff ff       	jmpq   405b57 <format_total_stats+0x77>
  405d3a:	66 0f 1f 44 00 00    	nopw   0x0(%rax,%rax,1)
  405d40:	ba 05 00 00 00       	mov    $0x5,%edx
  405d45:	31 ff                	xor    %edi,%edi
  405d47:	e8 84 d9 ff ff       	callq  4036d0 <dcgettext@plt>
  405d4c:	ba 87 0d 44 00       	mov    $0x440d87,%edx
  405d51:	48 89 c1             	mov    %rax,%rcx
  405d54:	be 01 00 00 00       	mov    $0x1,%esi
  405d59:	48 89 df             	mov    %rbx,%rdi
  405d5c:	31 c0                	xor    %eax,%eax
  405d5e:	e8 1d e1 ff ff       	callq  403e80 <__fprintf_chk@plt>
  405d63:	01 c5                	add    %eax,%ebp
  405d65:	e9 65 fe ff ff       	jmpq   405bcf <format_total_stats+0xef>
  405d6a:	66 0f 1f 44 00 00    	nopw   0x0(%rax,%rax,1)
  405d70:	48 89 d0             	mov    %rdx,%rax
  405d73:	83 e2 01             	and    $0x1,%edx
  405d76:	48 d1 e8             	shr    %rax
  405d79:	48 09 d0             	or     %rdx,%rax
  405d7c:	f2 48 0f 2a c8       	cvtsi2sd %rax,%xmm1
  405d81:	f2 0f 58 c9          	addsd  %xmm1,%xmm1
  405d85:	e9 69 fe ff ff       	jmpq   405bf3 <format_total_stats+0x113>
  405d8a:	66 0f 1f 44 00 00    	nopw   0x0(%rax,%rax,1)
  405d90:	48 89 c2             	mov    %rax,%rdx
  405d93:	83 e0 01             	and    $0x1,%eax
  405d96:	48 d1 ea             	shr    %rdx
  405d99:	48 09 c2             	or     %rax,%rdx
  405d9c:	f2 48 0f 2a c2       	cvtsi2sd %rdx,%xmm0
  405da1:	f2 0f 58 c0          	addsd  %xmm0,%xmm0
  405da5:	e9 43 ff ff ff       	jmpq   405ced <format_total_stats+0x20d>
  405daa:	e8 91 d9 ff ff       	callq  403740 <__stack_chk_fail@plt>
  405daf:	e8 ec d6 ff ff       	callq  4034a0 <abort@plt>
  405db4:	41 0f b6 f6          	movzbl %r14b,%esi
  405db8:	48 89 df             	mov    %rbx,%rdi
  405dbb:	e8 00 da ff ff       	callq  4037c0 <__overflow@plt>
  405dc0:	e9 f4 fd ff ff       	jmpq   405bb9 <format_total_stats+0xd9>
  405dc5:	41 0f b6 f5          	movzbl %r13b,%esi
  405dc9:	48 89 df             	mov    %rbx,%rdi
  405dcc:	e8 ef d9 ff ff       	callq  4037c0 <__overflow@plt>
  405dd1:	e9 8d fe ff ff       	jmpq   405c63 <format_total_stats+0x183>
  405dd6:	41 0f b6 f6          	movzbl %r14b,%esi
  405dda:	48 89 df             	mov    %rbx,%rdi
  405ddd:	e8 de d9 ff ff       	callq  4037c0 <__overflow@plt>
  405de2:	e9 97 fd ff ff       	jmpq   405b7e <format_total_stats+0x9e>
  405de7:	66 0f 1f 84 00 00 00 	nopw   0x0(%rax,%rax,1)
  405dee:	00 00 

0000000000405df0 <print_total_stats>:
  405df0:	48 8b 3d f9 33 25 00 	mov    0x2533f9(%rip),%rdi        # 6591f0 <stderr@@GLIBC_2.2.5>
  405df7:	b9 0a 00 00 00       	mov    $0xa,%ecx
  405dfc:	ba 0a 00 00 00       	mov    $0xa,%edx
  405e01:	be 20 66 65 00       	mov    $0x656620,%esi
  405e06:	e9 d5 fc ff ff       	jmpq   405ae0 <format_total_stats>
  405e0b:	0f 1f 44 00 00       	nopl   0x0(%rax,%rax,1)

0000000000405e10 <current_block_ordinal>:
  405e10:	48 8b 05 d1 40 25 00 	mov    0x2540d1(%rip),%rax        # 659ee8 <current_block>
  405e17:	48 2b 05 b2 40 25 00 	sub    0x2540b2(%rip),%rax        # 659ed0 <record_start>
  405e1e:	48 c1 f8 09          	sar    $0x9,%rax
  405e22:	48 03 05 d7 35 25 00 	add    0x2535d7(%rip),%rax        # 659400 <record_start_block>
  405e29:	c3                   	retq   
  405e2a:	66 0f 1f 44 00 00    	nopw   0x0(%rax,%rax,1)

0000000000405e30 <reset_eof>:
  405e30:	80 3d ba 35 25 00 00 	cmpb   $0x0,0x2535ba(%rip)        # 6593f1 <hit_eof>
  405e37:	74 34                	je     405e6d <reset_eof+0x3d>
  405e39:	48 63 05 34 44 25 00 	movslq 0x254434(%rip),%rax        # 65a274 <blocking_factor>
  405e40:	48 8b 15 89 40 25 00 	mov    0x254089(%rip),%rdx        # 659ed0 <record_start>
  405e47:	c6 05 a3 35 25 00 00 	movb   $0x0,0x2535a3(%rip)        # 6593f1 <hit_eof>
  405e4e:	c7 05 60 40 25 00 01 	movl   $0x1,0x254060(%rip)        # 659eb8 <access_mode>
  405e55:	00 00 00 
  405e58:	48 89 15 89 40 25 00 	mov    %rdx,0x254089(%rip)        # 659ee8 <current_block>
  405e5f:	48 c1 e0 09          	shl    $0x9,%rax
  405e63:	48 01 d0             	add    %rdx,%rax
  405e66:	48 89 05 3b 40 25 00 	mov    %rax,0x25403b(%rip)        # 659ea8 <record_end>
  405e6d:	f3 c3                	repz retq 
  405e6f:	90                   	nop

0000000000405e70 <set_next_block_after>:
  405e70:	48 8b 05 71 40 25 00 	mov    0x254071(%rip),%rax        # 659ee8 <current_block>
  405e77:	48 39 c7             	cmp    %rax,%rdi
  405e7a:	72 19                	jb     405e95 <set_next_block_after+0x25>
  405e7c:	48 29 c7             	sub    %rax,%rdi
  405e7f:	48 81 e7 00 fe ff ff 	and    $0xfffffffffffffe00,%rdi
  405e86:	48 8d 84 38 00 02 00 	lea    0x200(%rax,%rdi,1),%rax
  405e8d:	00 
  405e8e:	48 89 05 53 40 25 00 	mov    %rax,0x254053(%rip)        # 659ee8 <current_block>
  405e95:	48 39 05 0c 40 25 00 	cmp    %rax,0x25400c(%rip)        # 659ea8 <record_end>
  405e9c:	72 02                	jb     405ea0 <set_next_block_after+0x30>
  405e9e:	f3 c3                	repz retq 
  405ea0:	48 83 ec 08          	sub    $0x8,%rsp
  405ea4:	e8 f7 d5 ff ff       	callq  4034a0 <abort@plt>
  405ea9:	0f 1f 80 00 00 00 00 	nopl   0x0(%rax)

0000000000405eb0 <read_header0.constprop.7>:
  405eb0:	48 83 ec 08          	sub    $0x8,%rsp
  405eb4:	bf 20 92 65 00       	mov    $0x659220,%edi
  405eb9:	e8 72 dc 01 00       	callq  423b30 <tar_stat_init>
  405ebe:	31 d2                	xor    %edx,%edx
  405ec0:	be 20 92 65 00       	mov    $0x659220,%esi
  405ec5:	bf 38 9f 65 00       	mov    $0x659f38,%edi
  405eca:	e8 81 29 01 00       	callq  418850 <read_header>
  405ecf:	83 f8 01             	cmp    $0x1,%eax
  405ed2:	74 44                	je     405f18 <read_header0.constprop.7+0x68>
  405ed4:	48 8b 05 ad 44 25 00 	mov    0x2544ad(%rip),%rax        # 65a388 <error_hook>
  405edb:	48 85 c0             	test   %rax,%rax
  405ede:	74 02                	je     405ee2 <read_header0.constprop.7+0x32>
  405ee0:	ff d0                	callq  *%rax
  405ee2:	ba 05 00 00 00       	mov    $0x5,%edx
  405ee7:	be 80 e7 43 00       	mov    $0x43e780,%esi
  405eec:	31 ff                	xor    %edi,%edi
  405eee:	e8 dd d7 ff ff       	callq  4036d0 <dcgettext@plt>
  405ef3:	31 f6                	xor    %esi,%esi
  405ef5:	48 89 c2             	mov    %rax,%rdx
  405ef8:	31 ff                	xor    %edi,%edi
  405efa:	31 c0                	xor    %eax,%eax
  405efc:	e8 df dd ff ff       	callq  403ce0 <error@plt>
  405f01:	c7 05 85 3d 25 00 02 	movl   $0x2,0x253d85(%rip)        # 659c90 <exit_status>
  405f08:	00 00 00 
  405f0b:	31 c0                	xor    %eax,%eax
  405f0d:	48 83 c4 08          	add    $0x8,%rsp
  405f11:	c3                   	retq   
  405f12:	66 0f 1f 44 00 00    	nopw   0x0(%rax,%rax,1)
  405f18:	48 8b 3d 19 40 25 00 	mov    0x254019(%rip),%rdi        # 659f38 <current_header>
  405f1f:	e8 4c ff ff ff       	callq  405e70 <set_next_block_after>
  405f24:	b8 01 00 00 00       	mov    $0x1,%eax
  405f29:	eb e2                	jmp    405f0d <read_header0.constprop.7+0x5d>
  405f2b:	0f 1f 44 00 00       	nopl   0x0(%rax,%rax,1)

0000000000405f30 <available_space_after>:
  405f30:	48 8b 05 71 3f 25 00 	mov    0x253f71(%rip),%rax        # 659ea8 <record_end>
  405f37:	48 29 f8             	sub    %rdi,%rax
  405f3a:	c3                   	retq   
  405f3b:	0f 1f 44 00 00       	nopl   0x0(%rax,%rax,1)

0000000000405f40 <xclose>:
  405f40:	48 83 ec 08          	sub    $0x8,%rsp
  405f44:	e8 67 d9 ff ff       	callq  4038b0 <close@plt>
  405f49:	85 c0                	test   %eax,%eax
  405f4b:	75 0b                	jne    405f58 <xclose+0x18>
  405f4d:	48 83 c4 08          	add    $0x8,%rsp
  405f51:	c3                   	retq   
  405f52:	66 0f 1f 44 00 00    	nopw   0x0(%rax,%rax,1)
  405f58:	31 ff                	xor    %edi,%edi
  405f5a:	ba 05 00 00 00       	mov    $0x5,%edx
  405f5f:	be c4 e5 43 00       	mov    $0x43e5c4,%esi
  405f64:	e8 67 d7 ff ff       	callq  4036d0 <dcgettext@plt>
  405f69:	48 83 c4 08          	add    $0x8,%rsp
  405f6d:	48 89 c7             	mov    %rax,%rdi
  405f70:	e9 3b 07 02 00       	jmpq   4266b0 <close_error>
  405f75:	66 66 2e 0f 1f 84 00 	data32 nopw %cs:0x0(%rax,%rax,1)
  405f7c:	00 00 00 00 

0000000000405f80 <archive_write_error>:
  405f80:	41 54                	push   %r12
  405f82:	80 3d b1 42 25 00 00 	cmpb   $0x0,0x2542b1(%rip)        # 65a23a <totals_option>
  405f89:	55                   	push   %rbp
  405f8a:	53                   	push   %rbx
  405f8b:	48 89 fb             	mov    %rdi,%rbx
  405f8e:	75 19                	jne    405fa9 <archive_write_error+0x29>
  405f90:	48 8b 05 d1 42 25 00 	mov    0x2542d1(%rip),%rax        # 65a268 <archive_name_cursor>
  405f97:	48 8b 15 8a 43 25 00 	mov    0x25438a(%rip),%rdx        # 65a328 <record_size>
  405f9e:	48 89 de             	mov    %rbx,%rsi
  405fa1:	48 8b 38             	mov    (%rax),%rdi
  405fa4:	e8 87 5b 01 00       	callq  41bb30 <write_fatal_details>
  405fa9:	e8 02 d5 ff ff       	callq  4034b0 <__errno_location@plt>
  405fae:	48 8b 3d 3b 32 25 00 	mov    0x25323b(%rip),%rdi        # 6591f0 <stderr@@GLIBC_2.2.5>
  405fb5:	44 8b 20             	mov    (%rax),%r12d
  405fb8:	48 89 c5             	mov    %rax,%rbp
  405fbb:	b9 0a 00 00 00       	mov    $0xa,%ecx
  405fc0:	ba 0a 00 00 00       	mov    $0xa,%edx
  405fc5:	be 20 66 65 00       	mov    $0x656620,%esi
  405fca:	e8 11 fb ff ff       	callq  405ae0 <format_total_stats>
  405fcf:	44 89 65 00          	mov    %r12d,0x0(%rbp)
  405fd3:	eb bb                	jmp    405f90 <archive_write_error+0x10>
  405fd5:	66 66 2e 0f 1f 84 00 	data32 nopw %cs:0x0(%rax,%rax,1)
  405fdc:	00 00 00 00 

0000000000405fe0 <simple_flush_write>:
  405fe0:	48 83 ec 08          	sub    $0x8,%rsp
  405fe4:	e8 d7 f4 ff ff       	callq  4054c0 <_flush_write>
  405fe9:	48 3b 05 38 43 25 00 	cmp    0x254338(%rip),%rax        # 65a328 <record_size>
  405ff0:	75 22                	jne    406014 <simple_flush_write+0x34>
  405ff2:	f2 48 0f 2a c0       	cvtsi2sd %rax,%xmm0
  405ff7:	48 83 05 b1 3e 25 00 	addq   $0x1,0x253eb1(%rip)        # 659eb0 <records_written>
  405ffe:	01 
  405fff:	f2 0f 58 05 29 34 25 	addsd  0x253429(%rip),%xmm0        # 659430 <bytes_written>
  406006:	00 
  406007:	f2 0f 11 05 21 34 25 	movsd  %xmm0,0x253421(%rip)        # 659430 <bytes_written>
  40600e:	00 
  40600f:	48 83 c4 08          	add    $0x8,%rsp
  406013:	c3                   	retq   
  406014:	48 89 c7             	mov    %rax,%rdi
  406017:	e8 64 ff ff ff       	callq  405f80 <archive_write_error>
  40601c:	0f 1f 40 00          	nopl   0x0(%rax)

0000000000406020 <archive_read_error>:
  406020:	48 83 ec 08          	sub    $0x8,%rsp
  406024:	48 8b 05 3d 42 25 00 	mov    0x25423d(%rip),%rax        # 65a268 <archive_name_cursor>
  40602b:	48 8b 38             	mov    (%rax),%rdi
  40602e:	e8 9d 07 02 00       	callq  4267d0 <read_error>
  406033:	48 83 3d c5 33 25 00 	cmpq   $0x0,0x2533c5(%rip)        # 659400 <record_start_block>
  40603a:	00 
  40603b:	74 19                	je     406056 <archive_read_error+0x36>
  40603d:	8b 05 b1 33 25 00    	mov    0x2533b1(%rip),%eax        # 6593f4 <read_error_count>
  406043:	8d 50 01             	lea    0x1(%rax),%edx
  406046:	83 f8 0a             	cmp    $0xa,%eax
  406049:	89 15 a5 33 25 00    	mov    %edx,0x2533a5(%rip)        # 6593f4 <read_error_count>
  40604f:	7f 37                	jg     406088 <archive_read_error+0x68>
  406051:	48 83 c4 08          	add    $0x8,%rsp
  406055:	c3                   	retq   
  406056:	48 8b 05 2b 43 25 00 	mov    0x25432b(%rip),%rax        # 65a388 <error_hook>
  40605d:	48 85 c0             	test   %rax,%rax
  406060:	74 02                	je     406064 <archive_read_error+0x44>
  406062:	ff d0                	callq  *%rax
  406064:	ba 05 00 00 00       	mov    $0x5,%edx
  406069:	be a8 e7 43 00       	mov    $0x43e7a8,%esi
  40606e:	31 ff                	xor    %edi,%edi
  406070:	e8 5b d6 ff ff       	callq  4036d0 <dcgettext@plt>
  406075:	31 f6                	xor    %esi,%esi
  406077:	48 89 c2             	mov    %rax,%rdx
  40607a:	31 ff                	xor    %edi,%edi
  40607c:	31 c0                	xor    %eax,%eax
  40607e:	e8 5d dc ff ff       	callq  403ce0 <error@plt>
  406083:	e8 c8 8a 00 00       	callq  40eb50 <fatal_exit>
  406088:	48 8b 05 f9 42 25 00 	mov    0x2542f9(%rip),%rax        # 65a388 <error_hook>
  40608f:	48 85 c0             	test   %rax,%rax
  406092:	74 02                	je     406096 <archive_read_error+0x76>
  406094:	ff d0                	callq  *%rax
  406096:	ba 05 00 00 00       	mov    $0x5,%edx
  40609b:	be cb e5 43 00       	mov    $0x43e5cb,%esi
  4060a0:	eb cc                	jmp    40606e <archive_read_error+0x4e>
  4060a2:	66 66 66 66 66 2e 0f 	data32 data32 data32 data32 nopw %cs:0x0(%rax,%rax,1)
  4060a9:	1f 84 00 00 00 00 00 

00000000004060b0 <short_read>:
  4060b0:	41 55                	push   %r13
  4060b2:	41 54                	push   %r12
  4060b4:	49 89 fc             	mov    %rdi,%r12
  4060b7:	55                   	push   %rbp
  4060b8:	53                   	push   %rbx
  4060b9:	48 89 fb             	mov    %rdi,%rbx
  4060bc:	48 81 ec 98 00 00 00 	sub    $0x98,%rsp
  4060c3:	48 8b 2d 5e 42 25 00 	mov    0x25425e(%rip),%rbp        # 65a328 <record_size>
  4060ca:	4c 03 25 ff 3d 25 00 	add    0x253dff(%rip),%r12        # 659ed0 <record_start>
  4060d1:	48 29 fd             	sub    %rdi,%rbp
  4060d4:	74 0c                	je     4060e2 <short_read+0x32>
  4060d6:	f7 c5 ff 01 00 00    	test   $0x1ff,%ebp
  4060dc:	0f 84 c0 00 00 00    	je     4061a2 <short_read+0xf2>
  4060e2:	f7 c5 ff 01 00 00    	test   $0x1ff,%ebp
  4060e8:	75 7f                	jne    406169 <short_read+0xb9>
  4060ea:	66 0f 1f 44 00 00    	nopw   0x0(%rax,%rax,1)
  4060f0:	48 85 db             	test   %rbx,%rbx
  4060f3:	74 79                	je     40616e <short_read+0xbe>
  4060f5:	48 85 ed             	test   %rbp,%rbp
  4060f8:	74 74                	je     40616e <short_read+0xbe>
  4060fa:	80 3d ef 32 25 00 00 	cmpb   $0x0,0x2532ef(%rip)        # 6593f0 <read_full_records>
  406101:	75 24                	jne    406127 <short_read+0x77>
  406103:	eb 69                	jmp    40616e <short_read+0xbe>
  406105:	0f 1f 00             	nopl   (%rax)
  406108:	81 ef 00 00 00 40    	sub    $0x40000000,%edi
  40610e:	48 89 ea             	mov    %rbp,%rdx
  406111:	4c 89 e6             	mov    %r12,%rsi
  406114:	e8 e7 18 02 00       	callq  427a00 <rmt_read__>
  406119:	48 89 c3             	mov    %rax,%rbx
  40611c:	48 83 fb ff          	cmp    $0xffffffffffffffff,%rbx
  406120:	75 27                	jne    406149 <short_read+0x99>
  406122:	e8 f9 fe ff ff       	callq  406020 <archive_read_error>
  406127:	8b 3d 3b 42 25 00    	mov    0x25423b(%rip),%edi        # 65a368 <archive>
  40612d:	81 ff ff ff ff 3f    	cmp    $0x3fffffff,%edi
  406133:	7f d3                	jg     406108 <short_read+0x58>
  406135:	48 89 ea             	mov    %rbp,%rdx
  406138:	4c 89 e6             	mov    %r12,%rsi
  40613b:	e8 f0 3c 03 00       	callq  439e30 <safe_read>
  406140:	48 89 c3             	mov    %rax,%rbx
  406143:	48 83 fb ff          	cmp    $0xffffffffffffffff,%rbx
  406147:	74 d9                	je     406122 <short_read+0x72>
  406149:	48 85 db             	test   %rbx,%rbx
  40614c:	74 20                	je     40616e <short_read+0xbe>
  40614e:	80 3d 9b 32 25 00 00 	cmpb   $0x0,0x25329b(%rip)        # 6593f0 <read_full_records>
  406155:	0f 84 df 00 00 00    	je     40623a <short_read+0x18a>
  40615b:	48 29 dd             	sub    %rbx,%rbp
  40615e:	49 01 dc             	add    %rbx,%r12
  406161:	f7 c5 ff 01 00 00    	test   $0x1ff,%ebp
  406167:	74 87                	je     4060f0 <short_read+0x40>
  406169:	48 85 db             	test   %rbx,%rbx
  40616c:	75 b9                	jne    406127 <short_read+0x77>
  40616e:	48 8b 05 b3 41 25 00 	mov    0x2541b3(%rip),%rax        # 65a328 <record_size>
  406175:	48 83 05 23 3d 25 00 	addq   $0x1,0x253d23(%rip)        # 659ea0 <records_read>
  40617c:	01 
  40617d:	48 29 e8             	sub    %rbp,%rax
  406180:	48 25 00 fe ff ff    	and    $0xfffffffffffffe00,%rax
  406186:	48 03 05 43 3d 25 00 	add    0x253d43(%rip),%rax        # 659ed0 <record_start>
  40618d:	48 89 05 14 3d 25 00 	mov    %rax,0x253d14(%rip)        # 659ea8 <record_end>
  406194:	48 81 c4 98 00 00 00 	add    $0x98,%rsp
  40619b:	5b                   	pop    %rbx
  40619c:	5d                   	pop    %rbp
  40619d:	41 5c                	pop    %r12
  40619f:	41 5d                	pop    %r13
  4061a1:	c3                   	retq   
  4061a2:	f6 05 d9 2d 25 00 40 	testb  $0x40,0x252dd9(%rip)        # 658f82 <warning_option+0x2>
  4061a9:	0f 84 33 ff ff ff    	je     4060e2 <short_read+0x32>
  4061af:	48 83 3d 49 32 25 00 	cmpq   $0x0,0x253249(%rip)        # 659400 <record_start_block>
  4061b6:	00 
  4061b7:	0f 85 25 ff ff ff    	jne    4060e2 <short_read+0x32>
  4061bd:	48 85 ff             	test   %rdi,%rdi
  4061c0:	0f 84 1c ff ff ff    	je     4060e2 <short_read+0x32>
  4061c6:	8b 35 9c 41 25 00    	mov    0x25419c(%rip),%esi        # 65a368 <archive>
  4061cc:	48 89 e2             	mov    %rsp,%rdx
  4061cf:	bf 01 00 00 00       	mov    $0x1,%edi
  4061d4:	e8 b7 d9 ff ff       	callq  403b90 <__fxstat@plt>
  4061d9:	85 c0                	test   %eax,%eax
  4061db:	0f 85 a1 00 00 00    	jne    406282 <short_read+0x1d2>
  4061e1:	8b 44 24 18          	mov    0x18(%rsp),%eax
  4061e5:	25 00 b0 00 00       	and    $0xb000,%eax
  4061ea:	3d 00 20 00 00       	cmp    $0x2000,%eax
  4061ef:	0f 85 ed fe ff ff    	jne    4060e2 <short_read+0x32>
  4061f5:	48 8b 05 8c 41 25 00 	mov    0x25418c(%rip),%rax        # 65a388 <error_hook>
  4061fc:	49 89 dd             	mov    %rbx,%r13
  4061ff:	49 c1 ed 09          	shr    $0x9,%r13
  406203:	48 85 c0             	test   %rax,%rax
  406206:	74 02                	je     40620a <short_read+0x15a>
  406208:	ff d0                	callq  *%rax
  40620a:	4c 89 e9             	mov    %r13,%rcx
  40620d:	31 ff                	xor    %edi,%edi
  40620f:	41 b8 05 00 00 00    	mov    $0x5,%r8d
  406215:	ba e5 e5 43 00       	mov    $0x43e5e5,%edx
  40621a:	be fe e5 43 00       	mov    $0x43e5fe,%esi
  40621f:	e8 5c db ff ff       	callq  403d80 <dcngettext@plt>
  406224:	4c 89 e9             	mov    %r13,%rcx
  406227:	48 89 c2             	mov    %rax,%rdx
  40622a:	31 f6                	xor    %esi,%esi
  40622c:	31 ff                	xor    %edi,%edi
  40622e:	31 c0                	xor    %eax,%eax
  406230:	e8 ab da ff ff       	callq  403ce0 <error@plt>
  406235:	e9 a8 fe ff ff       	jmpq   4060e2 <short_read+0x32>
  40623a:	48 8b 1d e7 40 25 00 	mov    0x2540e7(%rip),%rbx        # 65a328 <record_size>
  406241:	48 8b 05 40 41 25 00 	mov    0x254140(%rip),%rax        # 65a388 <error_hook>
  406248:	48 29 eb             	sub    %rbp,%rbx
  40624b:	48 85 c0             	test   %rax,%rax
  40624e:	74 02                	je     406252 <short_read+0x1a2>
  406250:	ff d0                	callq  *%rax
  406252:	41 b8 05 00 00 00    	mov    $0x5,%r8d
  406258:	48 89 d9             	mov    %rbx,%rcx
  40625b:	ba d0 e7 43 00       	mov    $0x43e7d0,%edx
  406260:	be f8 e7 43 00       	mov    $0x43e7f8,%esi
  406265:	31 ff                	xor    %edi,%edi
  406267:	e8 14 db ff ff       	callq  403d80 <dcngettext@plt>
  40626c:	48 89 d9             	mov    %rbx,%rcx
  40626f:	48 89 c2             	mov    %rax,%rdx
  406272:	31 f6                	xor    %esi,%esi
  406274:	31 ff                	xor    %edi,%edi
  406276:	31 c0                	xor    %eax,%eax
  406278:	e8 63 da ff ff       	callq  403ce0 <error@plt>
  40627d:	e8 ce 88 00 00       	callq  40eb50 <fatal_exit>
  406282:	48 8b 05 df 3f 25 00 	mov    0x253fdf(%rip),%rax        # 65a268 <archive_name_cursor>
  406289:	48 8b 38             	mov    (%rax),%rdi
  40628c:	e8 ef 57 01 00       	callq  41ba80 <stat_diag>
  406291:	e9 4c fe ff ff       	jmpq   4060e2 <short_read+0x32>
  406296:	66 2e 0f 1f 84 00 00 	nopw   %cs:0x0(%rax,%rax,1)
  40629d:	00 00 00 

00000000004062a0 <simple_flush_read>:
  4062a0:	48 83 ec 08          	sub    $0x8,%rsp
  4062a4:	31 ff                	xor    %edi,%edi
  4062a6:	e8 d5 32 00 00       	callq  409580 <checkpoint_run>
  4062ab:	80 3d 26 3c 25 00 00 	cmpb   $0x0,0x253c26(%rip)        # 659ed8 <write_archive_to_stdout>
  4062b2:	c7 05 38 31 25 00 00 	movl   $0x0,0x253138(%rip)        # 6593f4 <read_error_count>
  4062b9:	00 00 00 
  4062bc:	74 0a                	je     4062c8 <simple_flush_read+0x28>
  4062be:	48 83 3d 3a 31 25 00 	cmpq   $0x0,0x25313a(%rip)        # 659400 <record_start_block>
  4062c5:	00 
  4062c6:	75 68                	jne    406330 <simple_flush_read+0x90>
  4062c8:	8b 3d 9a 40 25 00    	mov    0x25409a(%rip),%edi        # 65a368 <archive>
  4062ce:	48 8b 15 53 40 25 00 	mov    0x254053(%rip),%rdx        # 65a328 <record_size>
  4062d5:	81 ff ff ff ff 3f    	cmp    $0x3fffffff,%edi
  4062db:	7e 33                	jle    406310 <simple_flush_read+0x70>
  4062dd:	48 8b 35 ec 3b 25 00 	mov    0x253bec(%rip),%rsi        # 659ed0 <record_start>
  4062e4:	81 ef 00 00 00 40    	sub    $0x40000000,%edi
  4062ea:	e8 11 17 02 00       	callq  427a00 <rmt_read__>
  4062ef:	48 3b 05 32 40 25 00 	cmp    0x254032(%rip),%rax        # 65a328 <record_size>
  4062f6:	74 68                	je     406360 <simple_flush_read+0xc0>
  4062f8:	48 83 f8 ff          	cmp    $0xffffffffffffffff,%rax
  4062fc:	74 22                	je     406320 <simple_flush_read+0x80>
  4062fe:	48 89 c7             	mov    %rax,%rdi
  406301:	48 83 c4 08          	add    $0x8,%rsp
  406305:	e9 a6 fd ff ff       	jmpq   4060b0 <short_read>
  40630a:	66 0f 1f 44 00 00    	nopw   0x0(%rax,%rax,1)
  406310:	48 8b 35 b9 3b 25 00 	mov    0x253bb9(%rip),%rsi        # 659ed0 <record_start>
  406317:	e8 14 3b 03 00       	callq  439e30 <safe_read>
  40631c:	eb d1                	jmp    4062ef <simple_flush_read+0x4f>
  40631e:	66 90                	xchg   %ax,%ax
  406320:	e8 fb fc ff ff       	callq  406020 <archive_read_error>
  406325:	eb a1                	jmp    4062c8 <simple_flush_read+0x28>
  406327:	66 0f 1f 84 00 00 00 	nopw   0x0(%rax,%rax,1)
  40632e:	00 00 
  406330:	c7 05 2e 40 25 00 01 	movl   $0x1,0x25402e(%rip)        # 65a368 <archive>
  406337:	00 00 00 
  40633a:	e8 41 a5 01 00       	callq  420880 <sys_write_archive_buffer>
  40633f:	48 3b 05 e2 3f 25 00 	cmp    0x253fe2(%rip),%rax        # 65a328 <record_size>
  406346:	c7 05 18 40 25 00 00 	movl   $0x0,0x254018(%rip)        # 65a368 <archive>
  40634d:	00 00 00 
  406350:	75 1b                	jne    40636d <simple_flush_read+0xcd>
  406352:	48 89 c2             	mov    %rax,%rdx
  406355:	31 ff                	xor    %edi,%edi
  406357:	e9 79 ff ff ff       	jmpq   4062d5 <simple_flush_read+0x35>
  40635c:	0f 1f 40 00          	nopl   0x0(%rax)
  406360:	48 83 05 38 3b 25 00 	addq   $0x1,0x253b38(%rip)        # 659ea0 <records_read>
  406367:	01 
  406368:	48 83 c4 08          	add    $0x8,%rsp
  40636c:	c3                   	retq   
  40636d:	48 89 c7             	mov    %rax,%rdi
  406370:	e8 0b fc ff ff       	callq  405f80 <archive_write_error>
  406375:	66 66 2e 0f 1f 84 00 	data32 nopw %cs:0x0(%rax,%rax,1)
  40637c:	00 00 00 00 

0000000000406380 <flush_archive>:
  406380:	41 54                	push   %r12
  406382:	55                   	push   %rbp
  406383:	53                   	push   %rbx
  406384:	48 83 ec 10          	sub    $0x10,%rsp
  406388:	48 8b 1d 41 3b 25 00 	mov    0x253b41(%rip),%rbx        # 659ed0 <record_start>
  40638f:	48 8b 05 12 3b 25 00 	mov    0x253b12(%rip),%rax        # 659ea8 <record_end>
  406396:	48 8b 2d 4b 3b 25 00 	mov    0x253b4b(%rip),%rbp        # 659ee8 <current_block>
  40639d:	48 29 d8             	sub    %rbx,%rax
  4063a0:	48 89 1d 41 3b 25 00 	mov    %rbx,0x253b41(%rip)        # 659ee8 <current_block>
  4063a7:	48 c1 f8 09          	sar    $0x9,%rax
  4063ab:	48 01 05 4e 30 25 00 	add    %rax,0x25304e(%rip)        # 659400 <record_start_block>
  4063b2:	48 63 05 bb 3e 25 00 	movslq 0x253ebb(%rip),%rax        # 65a274 <blocking_factor>
  4063b9:	48 c1 e0 09          	shl    $0x9,%rax
  4063bd:	48 01 d8             	add    %rbx,%rax
  4063c0:	48 89 05 e1 3a 25 00 	mov    %rax,0x253ae1(%rip)        # 659ea8 <record_end>
  4063c7:	8b 05 eb 3a 25 00    	mov    0x253aeb(%rip),%eax        # 659eb8 <access_mode>
  4063cd:	85 c0                	test   %eax,%eax
  4063cf:	0f 85 23 01 00 00    	jne    4064f8 <flush_archive+0x178>
  4063d5:	80 3d 9c 3f 25 00 00 	cmpb   $0x0,0x253f9c(%rip)        # 65a378 <time_to_start_writing>
  4063dc:	75 12                	jne    4063f0 <flush_archive+0x70>
  4063de:	ff 15 fc 2f 25 00    	callq  *0x252ffc(%rip)        # 6593e0 <flush_read_ptr>
  4063e4:	48 83 c4 10          	add    $0x10,%rsp
  4063e8:	5b                   	pop    %rbx
  4063e9:	5d                   	pop    %rbp
  4063ea:	41 5c                	pop    %r12
  4063ec:	c3                   	retq   
  4063ed:	0f 1f 00             	nopl   (%rax)
  4063f0:	8b 3d 72 3f 25 00    	mov    0x253f72(%rip),%edi        # 65a368 <archive>
  4063f6:	b8 04 00 00 00       	mov    $0x4,%eax
  4063fb:	c7 05 b3 3a 25 00 01 	movl   $0x1,0x253ab3(%rip)        # 659eb8 <access_mode>
  406402:	00 00 00 
  406405:	c6 05 6c 3f 25 00 00 	movb   $0x0,0x253f6c(%rip)        # 65a378 <time_to_start_writing>
  40640c:	66 89 04 24          	mov    %ax,(%rsp)
  406410:	49 89 e4             	mov    %rsp,%r12
  406413:	c7 44 24 04 01 00 00 	movl   $0x1,0x4(%rsp)
  40641a:	00 
  40641b:	81 ff ff ff ff 3f    	cmp    $0x3fffffff,%edi
  406421:	0f 8e 09 01 00 00    	jle    406530 <flush_archive+0x1b0>
  406427:	81 ef 00 00 00 40    	sub    $0x40000000,%edi
  40642d:	48 89 e2             	mov    %rsp,%rdx
  406430:	be 01 6d 08 40       	mov    $0x40086d01,%esi
  406435:	e8 56 19 02 00       	callq  427d90 <rmt_ioctl__>
  40643a:	f7 d0                	not    %eax
  40643c:	c1 e8 1f             	shr    $0x1f,%eax
  40643f:	84 c0                	test   %al,%al
  406441:	0f 85 ab 00 00 00    	jne    4064f2 <flush_archive+0x172>
  406447:	e8 64 d0 ff ff       	callq  4034b0 <__errno_location@plt>
  40644c:	83 38 05             	cmpl   $0x5,(%rax)
  40644f:	0f 84 2b 01 00 00    	je     406580 <flush_archive+0x200>
  406455:	8b 3d 0d 3f 25 00    	mov    0x253f0d(%rip),%edi        # 65a368 <archive>
  40645b:	81 ff ff ff ff 3f    	cmp    $0x3fffffff,%edi
  406461:	0f 8f e9 00 00 00    	jg     406550 <flush_archive+0x1d0>
  406467:	ba 01 00 00 00       	mov    $0x1,%edx
  40646c:	31 f6                	xor    %esi,%esi
  40646e:	e8 8d d3 ff ff       	callq  403800 <lseek@plt>
  406473:	45 31 e4             	xor    %r12d,%r12d
  406476:	48 2b 05 ab 3e 25 00 	sub    0x253eab(%rip),%rax        # 65a328 <record_size>
  40647d:	8b 3d e5 3e 25 00    	mov    0x253ee5(%rip),%edi        # 65a368 <archive>
  406483:	4c 0f 49 e0          	cmovns %rax,%r12
  406487:	81 ff ff ff ff 3f    	cmp    $0x3fffffff,%edi
  40648d:	0f 8e dd 00 00 00    	jle    406570 <flush_archive+0x1f0>
  406493:	81 ef 00 00 00 40    	sub    $0x40000000,%edi
  406499:	31 d2                	xor    %edx,%edx
  40649b:	4c 89 e6             	mov    %r12,%rsi
  40649e:	e8 5d 17 02 00       	callq  427c00 <rmt_lseek__>
  4064a3:	4c 39 e0             	cmp    %r12,%rax
  4064a6:	74 4a                	je     4064f2 <flush_archive+0x172>
  4064a8:	48 8b 05 d9 3e 25 00 	mov    0x253ed9(%rip),%rax        # 65a388 <error_hook>
  4064af:	48 85 c0             	test   %rax,%rax
  4064b2:	74 02                	je     4064b6 <flush_archive+0x136>
  4064b4:	ff d0                	callq  *%rax
  4064b6:	31 ff                	xor    %edi,%edi
  4064b8:	ba 05 00 00 00       	mov    $0x5,%edx
  4064bd:	be 20 e8 43 00       	mov    $0x43e820,%esi
  4064c2:	e8 09 d2 ff ff       	callq  4036d0 <dcgettext@plt>
  4064c7:	31 ff                	xor    %edi,%edi
  4064c9:	48 89 c2             	mov    %rax,%rdx
  4064cc:	31 f6                	xor    %esi,%esi
  4064ce:	31 c0                	xor    %eax,%eax
  4064d0:	e8 0b d8 ff ff       	callq  403ce0 <error@plt>
  4064d5:	48 8b 3d f4 39 25 00 	mov    0x2539f4(%rip),%rdi        # 659ed0 <record_start>
  4064dc:	48 8b 15 9d 3e 25 00 	mov    0x253e9d(%rip),%rdx        # 65a380 <output_start>
  4064e3:	48 39 d7             	cmp    %rdx,%rdi
  4064e6:	74 0a                	je     4064f2 <flush_archive+0x172>
  4064e8:	48 29 fa             	sub    %rdi,%rdx
  4064eb:	31 f6                	xor    %esi,%esi
  4064ed:	e8 6e d3 ff ff       	callq  403860 <memset@plt>
  4064f2:	8b 05 c0 39 25 00    	mov    0x2539c0(%rip),%eax        # 659eb8 <access_mode>
  4064f8:	83 f8 01             	cmp    $0x1,%eax
  4064fb:	74 1b                	je     406518 <flush_archive+0x198>
  4064fd:	0f 82 db fe ff ff    	jb     4063de <flush_archive+0x5e>
  406503:	83 f8 02             	cmp    $0x2,%eax
  406506:	0f 85 d8 fe ff ff    	jne    4063e4 <flush_archive+0x64>
  40650c:	0f 1f 40 00          	nopl   0x0(%rax)
  406510:	e8 8b cf ff ff       	callq  4034a0 <abort@plt>
  406515:	0f 1f 00             	nopl   (%rax)
  406518:	48 89 ef             	mov    %rbp,%rdi
  40651b:	48 29 df             	sub    %rbx,%rdi
  40651e:	ff 15 c4 2e 25 00    	callq  *0x252ec4(%rip)        # 6593e8 <flush_write_ptr>
  406524:	48 83 c4 10          	add    $0x10,%rsp
  406528:	5b                   	pop    %rbx
  406529:	5d                   	pop    %rbp
  40652a:	41 5c                	pop    %r12
  40652c:	c3                   	retq   
  40652d:	0f 1f 00             	nopl   (%rax)
  406530:	48 89 e2             	mov    %rsp,%rdx
  406533:	be 01 6d 08 40       	mov    $0x40086d01,%esi
  406538:	31 c0                	xor    %eax,%eax
  40653a:	e8 51 d3 ff ff       	callq  403890 <ioctl@plt>
  40653f:	f7 d0                	not    %eax
  406541:	c1 e8 1f             	shr    $0x1f,%eax
  406544:	e9 f6 fe ff ff       	jmpq   40643f <flush_archive+0xbf>
  406549:	0f 1f 80 00 00 00 00 	nopl   0x0(%rax)
  406550:	81 ef 00 00 00 40    	sub    $0x40000000,%edi
  406556:	ba 01 00 00 00       	mov    $0x1,%edx
  40655b:	31 f6                	xor    %esi,%esi
  40655d:	e8 9e 16 02 00       	callq  427c00 <rmt_lseek__>
  406562:	e9 0c ff ff ff       	jmpq   406473 <flush_archive+0xf3>
  406567:	66 0f 1f 84 00 00 00 	nopw   0x0(%rax,%rax,1)
  40656e:	00 00 
  406570:	31 d2                	xor    %edx,%edx
  406572:	4c 89 e6             	mov    %r12,%rsi
  406575:	e8 86 d2 ff ff       	callq  403800 <lseek@plt>
  40657a:	e9 24 ff ff ff       	jmpq   4064a3 <flush_archive+0x123>
  40657f:	90                   	nop
  406580:	8b 3d e2 3d 25 00    	mov    0x253de2(%rip),%edi        # 65a368 <archive>
  406586:	81 ff ff ff ff 3f    	cmp    $0x3fffffff,%edi
  40658c:	7e 2a                	jle    4065b8 <flush_archive+0x238>
  40658e:	81 ef 00 00 00 40    	sub    $0x40000000,%edi
  406594:	4c 89 e2             	mov    %r12,%rdx
  406597:	be 01 6d 08 40       	mov    $0x40086d01,%esi
  40659c:	e8 ef 17 02 00       	callq  427d90 <rmt_ioctl__>
  4065a1:	f7 d0                	not    %eax
  4065a3:	c1 e8 1f             	shr    $0x1f,%eax
  4065a6:	84 c0                	test   %al,%al
  4065a8:	0f 84 a7 fe ff ff    	je     406455 <flush_archive+0xd5>
  4065ae:	e9 3f ff ff ff       	jmpq   4064f2 <flush_archive+0x172>
  4065b3:	0f 1f 44 00 00       	nopl   0x0(%rax,%rax,1)
  4065b8:	4c 89 e2             	mov    %r12,%rdx
  4065bb:	be 01 6d 08 40       	mov    $0x40086d01,%esi
  4065c0:	31 c0                	xor    %eax,%eax
  4065c2:	e8 c9 d2 ff ff       	callq  403890 <ioctl@plt>
  4065c7:	f7 d0                	not    %eax
  4065c9:	c1 e8 1f             	shr    $0x1f,%eax
  4065cc:	eb d8                	jmp    4065a6 <flush_archive+0x226>
  4065ce:	66 90                	xchg   %ax,%ax

00000000004065d0 <find_next_block>:
  4065d0:	48 8b 05 11 39 25 00 	mov    0x253911(%rip),%rax        # 659ee8 <current_block>
  4065d7:	48 3b 05 ca 38 25 00 	cmp    0x2538ca(%rip),%rax        # 659ea8 <record_end>
  4065de:	74 08                	je     4065e8 <find_next_block+0x18>
  4065e0:	c3                   	retq   
  4065e1:	0f 1f 80 00 00 00 00 	nopl   0x0(%rax)
  4065e8:	31 c0                	xor    %eax,%eax
  4065ea:	80 3d 00 2e 25 00 00 	cmpb   $0x0,0x252e00(%rip)        # 6593f1 <hit_eof>
  4065f1:	75 ed                	jne    4065e0 <find_next_block+0x10>
  4065f3:	48 83 ec 18          	sub    $0x18,%rsp
  4065f7:	48 89 44 24 08       	mov    %rax,0x8(%rsp)
  4065fc:	e8 7f fd ff ff       	callq  406380 <flush_archive>
  406601:	48 8b 15 e0 38 25 00 	mov    0x2538e0(%rip),%rdx        # 659ee8 <current_block>
  406608:	48 3b 15 99 38 25 00 	cmp    0x253899(%rip),%rdx        # 659ea8 <record_end>
  40660f:	48 8b 44 24 08       	mov    0x8(%rsp),%rax
  406614:	74 08                	je     40661e <find_next_block+0x4e>
  406616:	48 89 d0             	mov    %rdx,%rax
  406619:	48 83 c4 18          	add    $0x18,%rsp
  40661d:	c3                   	retq   
  40661e:	c6 05 cc 2d 25 00 01 	movb   $0x1,0x252dcc(%rip)        # 6593f1 <hit_eof>
  406625:	eb f2                	jmp    406619 <find_next_block+0x49>
  406627:	66 0f 1f 84 00 00 00 	nopw   0x0(%rax,%rax,1)
  40662e:	00 00 

0000000000406630 <_write_volume_label>:
  406630:	55                   	push   %rbp
  406631:	48 89 fd             	mov    %rdi,%rbp
  406634:	53                   	push   %rbx
  406635:	48 83 ec 08          	sub    $0x8,%rsp
  406639:	83 3d 78 3c 25 00 04 	cmpl   $0x4,0x253c78(%rip)        # 65a2b8 <archive_format>
  406640:	0f 84 0a 01 00 00    	je     406750 <_write_volume_label+0x120>
  406646:	e8 85 ff ff ff       	callq  4065d0 <find_next_block>
  40664b:	a8 01                	test   $0x1,%al
  40664d:	48 89 c3             	mov    %rax,%rbx
  406650:	48 89 c7             	mov    %rax,%rdi
  406653:	41 b9 00 02 00 00    	mov    $0x200,%r9d
  406659:	0f 85 41 01 00 00    	jne    4067a0 <_write_volume_label+0x170>
  40665f:	40 f6 c7 02          	test   $0x2,%dil
  406663:	0f 85 07 01 00 00    	jne    406770 <_write_volume_label+0x140>
  406669:	40 f6 c7 04          	test   $0x4,%dil
  40666d:	0f 85 15 01 00 00    	jne    406788 <_write_volume_label+0x158>
  406673:	44 89 c9             	mov    %r9d,%ecx
  406676:	31 c0                	xor    %eax,%eax
  406678:	c1 e9 03             	shr    $0x3,%ecx
  40667b:	41 f6 c1 04          	test   $0x4,%r9b
  40667f:	f3 48 ab             	rep stos %rax,%es:(%rdi)
  406682:	0f 85 a8 00 00 00    	jne    406730 <_write_volume_label+0x100>
  406688:	41 f6 c1 02          	test   $0x2,%r9b
  40668c:	0f 85 86 00 00 00    	jne    406718 <_write_volume_label+0xe8>
  406692:	41 83 e1 01          	and    $0x1,%r9d
  406696:	75 78                	jne    406710 <_write_volume_label+0xe0>
  406698:	ba 64 00 00 00       	mov    $0x64,%edx
  40669d:	48 89 ee             	mov    %rbp,%rsi
  4066a0:	48 89 df             	mov    %rbx,%rdi
  4066a3:	e8 78 d5 ff ff       	callq  403c20 <__strcpy_chk@plt>
  4066a8:	48 89 de             	mov    %rbx,%rsi
  4066ab:	bf e8 9f 65 00       	mov    $0x659fe8,%edi
  4066b0:	e8 cb 42 01 00       	callq  41a980 <assign_string>
  4066b5:	48 8b 3d 2c 39 25 00 	mov    0x25392c(%rip),%rdi        # 659fe8 <current_stat_info+0x8>
  4066bc:	e8 5f a4 02 00       	callq  430b20 <strip_trailing_slashes>
  4066c1:	48 8b 3d 88 3b 25 00 	mov    0x253b88(%rip),%rdi        # 65a250 <start_time>
  4066c8:	48 8d b3 88 00 00 00 	lea    0x88(%rbx),%rsi
  4066cf:	c6 83 9c 00 00 00 56 	movb   $0x56,0x9c(%rbx)
  4066d6:	ba 0c 00 00 00       	mov    $0xc,%edx
  4066db:	88 05 0f 39 25 00    	mov    %al,0x25390f(%rip)        # 659ff0 <current_stat_info+0x10>
  4066e1:	e8 fa 4b 00 00       	callq  40b2e0 <time_to_chars>
  4066e6:	48 89 de             	mov    %rbx,%rsi
  4066e9:	bf e0 9f 65 00       	mov    $0x659fe0,%edi
  4066ee:	48 c7 c2 ff ff ff ff 	mov    $0xffffffffffffffff,%rdx
  4066f5:	e8 c6 50 00 00       	callq  40b7c0 <finish_header>
  4066fa:	48 83 c4 08          	add    $0x8,%rsp
  4066fe:	48 89 df             	mov    %rbx,%rdi
  406701:	5b                   	pop    %rbx
  406702:	5d                   	pop    %rbp
  406703:	e9 68 f7 ff ff       	jmpq   405e70 <set_next_block_after>
  406708:	0f 1f 84 00 00 00 00 	nopl   0x0(%rax,%rax,1)
  40670f:	00 
  406710:	c6 07 00             	movb   $0x0,(%rdi)
  406713:	eb 83                	jmp    406698 <_write_volume_label+0x68>
  406715:	0f 1f 00             	nopl   (%rax)
  406718:	31 c0                	xor    %eax,%eax
  40671a:	48 83 c7 02          	add    $0x2,%rdi
  40671e:	66 89 47 fe          	mov    %ax,-0x2(%rdi)
  406722:	41 83 e1 01          	and    $0x1,%r9d
  406726:	0f 84 6c ff ff ff    	je     406698 <_write_volume_label+0x68>
  40672c:	eb e2                	jmp    406710 <_write_volume_label+0xe0>
  40672e:	66 90                	xchg   %ax,%ax
  406730:	c7 07 00 00 00 00    	movl   $0x0,(%rdi)
  406736:	48 83 c7 04          	add    $0x4,%rdi
  40673a:	41 f6 c1 02          	test   $0x2,%r9b
  40673e:	0f 84 4e ff ff ff    	je     406692 <_write_volume_label+0x62>
  406744:	eb d2                	jmp    406718 <_write_volume_label+0xe8>
  406746:	66 2e 0f 1f 84 00 00 	nopw   %cs:0x0(%rax,%rax,1)
  40674d:	00 00 00 
  406750:	48 83 c4 08          	add    $0x8,%rsp
  406754:	48 89 fa             	mov    %rdi,%rdx
  406757:	be 20 92 65 00       	mov    $0x659220,%esi
  40675c:	5b                   	pop    %rbx
  40675d:	5d                   	pop    %rbp
  40675e:	bf 16 e6 43 00       	mov    $0x43e616,%edi
  406763:	e9 28 d9 00 00       	jmpq   414090 <xheader_store>
  406768:	0f 1f 84 00 00 00 00 	nopl   0x0(%rax,%rax,1)
  40676f:	00 
  406770:	31 d2                	xor    %edx,%edx
  406772:	48 83 c7 02          	add    $0x2,%rdi
  406776:	41 83 e9 02          	sub    $0x2,%r9d
  40677a:	66 89 57 fe          	mov    %dx,-0x2(%rdi)
  40677e:	e9 e6 fe ff ff       	jmpq   406669 <_write_volume_label+0x39>
  406783:	0f 1f 44 00 00       	nopl   0x0(%rax,%rax,1)
  406788:	c7 07 00 00 00 00    	movl   $0x0,(%rdi)
  40678e:	41 83 e9 04          	sub    $0x4,%r9d
  406792:	48 83 c7 04          	add    $0x4,%rdi
  406796:	e9 d8 fe ff ff       	jmpq   406673 <_write_volume_label+0x43>
  40679b:	0f 1f 44 00 00       	nopl   0x0(%rax,%rax,1)
  4067a0:	c6 00 00             	movb   $0x0,(%rax)
  4067a3:	48 8d 78 01          	lea    0x1(%rax),%rdi
  4067a7:	66 41 b9 ff 01       	mov    $0x1ff,%r9w
  4067ac:	e9 ae fe ff ff       	jmpq   40665f <_write_volume_label+0x2f>
  4067b1:	66 66 66 66 66 66 2e 	data32 data32 data32 data32 data32 nopw %cs:0x0(%rax,%rax,1)
  4067b8:	0f 1f 84 00 00 00 00 
  4067bf:	00 

00000000004067c0 <add_volume_label>:
  4067c0:	55                   	push   %rbp
  4067c1:	53                   	push   %rbx
  4067c2:	48 83 ec 38          	sub    $0x38,%rsp
  4067c6:	48 63 3d 7f ff 24 00 	movslq 0x24ff7f(%rip),%rdi        # 65674c <volno>
  4067cd:	48 8d 74 24 10       	lea    0x10(%rsp),%rsi
  4067d2:	64 48 8b 04 25 28 00 	mov    %fs:0x28,%rax
  4067d9:	00 00 
  4067db:	48 89 44 24 28       	mov    %rax,0x28(%rsp)
  4067e0:	31 c0                	xor    %eax,%eax
  4067e2:	e8 29 eb 02 00       	callq  435310 <umaxtostr>
  4067e7:	48 8b 3d 1a 3a 25 00 	mov    0x253a1a(%rip),%rdi        # 65a208 <volume_label_option>
  4067ee:	48 89 c5             	mov    %rax,%rbp
  4067f1:	e8 0a cf ff ff       	callq  403700 <strlen@plt>
  4067f6:	48 89 ef             	mov    %rbp,%rdi
  4067f9:	48 89 c3             	mov    %rax,%rbx
  4067fc:	e8 ff ce ff ff       	callq  403700 <strlen@plt>
  406801:	48 8d 7c 03 09       	lea    0x9(%rbx,%rax,1),%rdi
  406806:	e8 05 42 03 00       	callq  43aa10 <xmalloc>
  40680b:	4c 8b 05 f6 39 25 00 	mov    0x2539f6(%rip),%r8        # 65a208 <volume_label_option>
  406812:	48 89 c7             	mov    %rax,%rdi
  406815:	48 89 c3             	mov    %rax,%rbx
  406818:	41 b9 27 e6 43 00    	mov    $0x43e627,%r9d
  40681e:	b9 2e e6 43 00       	mov    $0x43e62e,%ecx
  406823:	48 c7 c2 ff ff ff ff 	mov    $0xffffffffffffffff,%rdx
  40682a:	be 01 00 00 00       	mov    $0x1,%esi
  40682f:	31 c0                	xor    %eax,%eax
  406831:	48 89 2c 24          	mov    %rbp,(%rsp)
  406835:	e8 46 d7 ff ff       	callq  403f80 <__sprintf_chk@plt>
  40683a:	48 89 df             	mov    %rbx,%rdi
  40683d:	e8 ee fd ff ff       	callq  406630 <_write_volume_label>
  406842:	48 8b 44 24 28       	mov    0x28(%rsp),%rax
  406847:	64 48 33 04 25 28 00 	xor    %fs:0x28,%rax
  40684e:	00 00 
  406850:	75 0e                	jne    406860 <add_volume_label+0xa0>
  406852:	48 83 c4 38          	add    $0x38,%rsp
  406856:	48 89 df             	mov    %rbx,%rdi
  406859:	5b                   	pop    %rbx
  40685a:	5d                   	pop    %rbp
  40685b:	e9 d0 cb ff ff       	jmpq   403430 <free@plt>
  406860:	e8 db ce ff ff       	callq  403740 <__stack_chk_fail@plt>
  406865:	66 66 2e 0f 1f 84 00 	data32 nopw %cs:0x0(%rax,%rax,1)
  40686c:	00 00 00 00 

0000000000406870 <check_compressed_archive>:
  406870:	55                   	push   %rbp
  406871:	53                   	push   %rbx
  406872:	48 89 fb             	mov    %rdi,%rbx
  406875:	48 83 ec 18          	sub    $0x18,%rsp
  406879:	48 85 ff             	test   %rdi,%rdi
  40687c:	0f b6 2d 6d 2b 25 00 	movzbl 0x252b6d(%rip),%ebp        # 6593f0 <read_full_records>
  406883:	48 8d 44 24 0f       	lea    0xf(%rsp),%rax
  406888:	c6 05 61 2b 25 00 01 	movb   $0x1,0x252b61(%rip)        # 6593f0 <read_full_records>
  40688f:	48 0f 44 d8          	cmove  %rax,%rbx
  406893:	48 8b 05 36 36 25 00 	mov    0x253636(%rip),%rax        # 659ed0 <record_start>
  40689a:	48 89 05 07 36 25 00 	mov    %rax,0x253607(%rip)        # 659ea8 <record_end>
  4068a1:	e8 2a fd ff ff       	callq  4065d0 <find_next_block>
  4068a6:	48 8b 3d 23 36 25 00 	mov    0x253623(%rip),%rdi        # 659ed0 <record_start>
  4068ad:	48 85 c0             	test   %rax,%rax
  4068b0:	be 01 00 00 00       	mov    $0x1,%esi
  4068b5:	0f 94 03             	sete   (%rbx)
  4068b8:	40 88 2d 31 2b 25 00 	mov    %bpl,0x252b31(%rip)        # 6593f0 <read_full_records>
  4068bf:	e8 dc 1e 01 00       	callq  4187a0 <tar_checksum>
  4068c4:	83 f8 01             	cmp    $0x1,%eax
  4068c7:	74 3f                	je     406908 <check_compressed_archive+0x98>
  4068c9:	48 8b 2d 00 36 25 00 	mov    0x253600(%rip),%rbp        # 659ed0 <record_start>
  4068d0:	bb f0 ec 43 00       	mov    $0x43ecf0,%ebx
  4068d5:	0f 1f 00             	nopl   (%rax)
  4068d8:	48 8b 53 08          	mov    0x8(%rbx),%rdx
  4068dc:	48 8b 73 10          	mov    0x10(%rbx),%rsi
  4068e0:	48 89 ef             	mov    %rbp,%rdi
  4068e3:	e8 88 d0 ff ff       	callq  403970 <memcmp@plt>
  4068e8:	85 c0                	test   %eax,%eax
  4068ea:	74 2c                	je     406918 <check_compressed_archive+0xa8>
  4068ec:	48 83 c3 18          	add    $0x18,%rbx
  4068f0:	48 81 fb 98 ed 43 00 	cmp    $0x43ed98,%rbx
  4068f7:	72 df                	jb     4068d8 <check_compressed_archive+0x68>
  4068f9:	48 83 c4 18          	add    $0x18,%rsp
  4068fd:	31 c0                	xor    %eax,%eax
  4068ff:	5b                   	pop    %rbx
  406900:	5d                   	pop    %rbp
  406901:	c3                   	retq   
  406902:	66 0f 1f 44 00 00    	nopw   0x0(%rax,%rax,1)
  406908:	48 83 c4 18          	add    $0x18,%rsp
  40690c:	b8 01 00 00 00       	mov    $0x1,%eax
  406911:	5b                   	pop    %rbx
  406912:	5d                   	pop    %rbp
  406913:	c3                   	retq   
  406914:	0f 1f 40 00          	nopl   0x0(%rax)
  406918:	8b 03                	mov    (%rbx),%eax
  40691a:	48 83 c4 18          	add    $0x18,%rsp
  40691e:	5b                   	pop    %rbx
  40691f:	5d                   	pop    %rbp
  406920:	c3                   	retq   
  406921:	66 66 66 66 66 66 2e 	data32 data32 data32 data32 data32 nopw %cs:0x0(%rax,%rax,1)
  406928:	0f 1f 84 00 00 00 00 
  40692f:	00 

0000000000406930 <seek_archive>:
  406930:	55                   	push   %rbp
  406931:	53                   	push   %rbx
  406932:	48 83 ec 08          	sub    $0x8,%rsp
  406936:	48 8b 1d ab 35 25 00 	mov    0x2535ab(%rip),%rbx        # 659ee8 <current_block>
  40693d:	48 2b 1d 8c 35 25 00 	sub    0x25358c(%rip),%rbx        # 659ed0 <record_start>
  406944:	48 63 0d 29 39 25 00 	movslq 0x253929(%rip),%rcx        # 65a274 <blocking_factor>
  40694b:	48 8b 2d ae 2a 25 00 	mov    0x252aae(%rip),%rbp        # 659400 <record_start_block>
  406952:	48 89 d8             	mov    %rbx,%rax
  406955:	48 c1 f8 09          	sar    $0x9,%rax
  406959:	48 29 c1             	sub    %rax,%rcx
  40695c:	48 c1 e1 09          	shl    $0x9,%rcx
  406960:	48 39 f9             	cmp    %rdi,%rcx
  406963:	0f 8d a7 00 00 00    	jge    406a10 <seek_archive+0xe0>
  406969:	48 8b 35 b8 39 25 00 	mov    0x2539b8(%rip),%rsi        # 65a328 <record_size>
  406970:	48 89 f8             	mov    %rdi,%rax
  406973:	31 d2                	xor    %edx,%edx
  406975:	48 29 c8             	sub    %rcx,%rax
  406978:	48 f7 f6             	div    %rsi
  40697b:	48 85 c0             	test   %rax,%rax
  40697e:	0f 84 8c 00 00 00    	je     406a10 <seek_archive+0xe0>
  406984:	8b 3d de 39 25 00    	mov    0x2539de(%rip),%edi        # 65a368 <archive>
  40698a:	48 0f af f0          	imul   %rax,%rsi
  40698e:	81 ff ff ff ff 3f    	cmp    $0x3fffffff,%edi
  406994:	0f 8f 86 00 00 00    	jg     406a20 <seek_archive+0xf0>
  40699a:	ba 01 00 00 00       	mov    $0x1,%edx
  40699f:	e8 5c ce ff ff       	callq  403800 <lseek@plt>
  4069a4:	48 89 c1             	mov    %rax,%rcx
  4069a7:	48 85 c9             	test   %rcx,%rcx
  4069aa:	48 89 c8             	mov    %rcx,%rax
  4069ad:	78 63                	js     406a12 <seek_archive+0xe2>
  4069af:	31 d2                	xor    %edx,%edx
  4069b1:	48 f7 35 70 39 25 00 	divq   0x253970(%rip)        # 65a328 <record_size>
  4069b8:	48 85 d2             	test   %rdx,%rdx
  4069bb:	75 7b                	jne    406a38 <seek_archive+0x108>
  4069bd:	48 c1 f9 09          	sar    $0x9,%rcx
  4069c1:	48 c1 fb 09          	sar    $0x9,%rbx
  4069c5:	48 63 3d a8 38 25 00 	movslq 0x2538a8(%rip),%rdi        # 65a274 <blocking_factor>
  4069cc:	48 01 dd             	add    %rbx,%rbp
  4069cf:	48 89 ce             	mov    %rcx,%rsi
  4069d2:	48 29 ee             	sub    %rbp,%rsi
  4069d5:	48 89 f0             	mov    %rsi,%rax
  4069d8:	48 99                	cqto   
  4069da:	48 29 f9             	sub    %rdi,%rcx
  4069dd:	48 f7 ff             	idiv   %rdi
  4069e0:	48 89 0d 19 2a 25 00 	mov    %rcx,0x252a19(%rip)        # 659400 <record_start_block>
  4069e7:	48 01 05 b2 34 25 00 	add    %rax,0x2534b2(%rip)        # 659ea0 <records_read>
  4069ee:	48 8b 05 b3 34 25 00 	mov    0x2534b3(%rip),%rax        # 659ea8 <record_end>
  4069f5:	48 89 05 ec 34 25 00 	mov    %rax,0x2534ec(%rip)        # 659ee8 <current_block>
  4069fc:	48 83 c4 08          	add    $0x8,%rsp
  406a00:	48 89 f0             	mov    %rsi,%rax
  406a03:	5b                   	pop    %rbx
  406a04:	5d                   	pop    %rbp
  406a05:	c3                   	retq   
  406a06:	66 2e 0f 1f 84 00 00 	nopw   %cs:0x0(%rax,%rax,1)
  406a0d:	00 00 00 
  406a10:	31 c0                	xor    %eax,%eax
  406a12:	48 83 c4 08          	add    $0x8,%rsp
  406a16:	5b                   	pop    %rbx
  406a17:	5d                   	pop    %rbp
  406a18:	c3                   	retq   
  406a19:	0f 1f 80 00 00 00 00 	nopl   0x0(%rax)
  406a20:	81 ef 00 00 00 40    	sub    $0x40000000,%edi
  406a26:	ba 01 00 00 00       	mov    $0x1,%edx
  406a2b:	e8 d0 11 02 00       	callq  427c00 <rmt_lseek__>
  406a30:	48 89 c1             	mov    %rax,%rcx
  406a33:	e9 6f ff ff ff       	jmpq   4069a7 <seek_archive+0x77>
  406a38:	48 8b 05 49 39 25 00 	mov    0x253949(%rip),%rax        # 65a388 <error_hook>
  406a3f:	48 85 c0             	test   %rax,%rax
  406a42:	74 02                	je     406a46 <seek_archive+0x116>
  406a44:	ff d0                	callq  *%rax
  406a46:	ba 05 00 00 00       	mov    $0x5,%edx
  406a4b:	be 60 e8 43 00       	mov    $0x43e860,%esi
  406a50:	31 ff                	xor    %edi,%edi
  406a52:	e8 79 cc ff ff       	callq  4036d0 <dcgettext@plt>
  406a57:	31 f6                	xor    %esi,%esi
  406a59:	48 89 c2             	mov    %rax,%rdx
  406a5c:	31 ff                	xor    %edi,%edi
  406a5e:	31 c0                	xor    %eax,%eax
  406a60:	e8 7b d2 ff ff       	callq  403ce0 <error@plt>
  406a65:	e8 e6 80 00 00       	callq  40eb50 <fatal_exit>
  406a6a:	66 0f 1f 44 00 00    	nopw   0x0(%rax,%rax,1)

0000000000406a70 <close_archive>:
  406a70:	48 83 ec 08          	sub    $0x8,%rsp
  406a74:	80 3d fd 38 25 00 00 	cmpb   $0x0,0x2538fd(%rip)        # 65a378 <time_to_start_writing>
  406a7b:	0f 85 9f 00 00 00    	jne    406b20 <close_archive+0xb0>
  406a81:	83 3d 30 34 25 00 01 	cmpl   $0x1,0x253430(%rip)        # 659eb8 <access_mode>
  406a88:	0f 84 92 00 00 00    	je     406b20 <close_archive+0xb0>
  406a8e:	e8 fd ee ff ff       	callq  405990 <compute_duration>
  406a93:	80 3d 38 38 25 00 00 	cmpb   $0x0,0x253838(%rip)        # 65a2d2 <verify_option>
  406a9a:	0f 85 b0 00 00 00    	jne    406b50 <close_archive+0xe0>
  406aa0:	8b 3d c2 38 25 00    	mov    0x2538c2(%rip),%edi        # 65a368 <archive>
  406aa6:	81 ff ff ff ff 3f    	cmp    $0x3fffffff,%edi
  406aac:	7e 62                	jle    406b10 <close_archive+0xa0>
  406aae:	81 ef 00 00 00 40    	sub    $0x40000000,%edi
  406ab4:	e8 07 0f 02 00       	callq  4279c0 <rmt_close__>
  406ab9:	85 c0                	test   %eax,%eax
  406abb:	0f 95 c0             	setne  %al
  406abe:	84 c0                	test   %al,%al
  406ac0:	74 0f                	je     406ad1 <close_archive+0x61>
  406ac2:	48 8b 05 9f 37 25 00 	mov    0x25379f(%rip),%rax        # 65a268 <archive_name_cursor>
  406ac9:	48 8b 38             	mov    (%rax),%rdi
  406acc:	e8 df fb 01 00       	callq  4266b0 <close_error>
  406ad1:	0f b6 35 19 29 25 00 	movzbl 0x252919(%rip),%esi        # 6593f1 <hit_eof>
  406ad8:	8b 3d 1a 29 25 00    	mov    0x25291a(%rip),%edi        # 6593f8 <child_pid>
  406ade:	e8 cd 9b 01 00       	callq  4206b0 <sys_wait_for_child>
  406ae3:	bf e0 9f 65 00       	mov    $0x659fe0,%edi
  406ae8:	e8 53 d1 01 00       	callq  423c40 <tar_stat_destroy>
  406aed:	48 8b 3d 2c 29 25 00 	mov    0x25292c(%rip),%rdi        # 659420 <record_buffer>
  406af4:	e8 37 c9 ff ff       	callq  403430 <free@plt>
  406af9:	48 8b 3d 28 29 25 00 	mov    0x252928(%rip),%rdi        # 659428 <record_buffer+0x8>
  406b00:	e8 2b c9 ff ff       	callq  403430 <free@plt>
  406b05:	31 ff                	xor    %edi,%edi
  406b07:	48 83 c4 08          	add    $0x8,%rsp
  406b0b:	e9 40 e7 ff ff       	jmpq   405250 <bufmap_free>
  406b10:	e8 9b cd ff ff       	callq  4038b0 <close@plt>
  406b15:	85 c0                	test   %eax,%eax
  406b17:	0f 95 c0             	setne  %al
  406b1a:	eb a2                	jmp    406abe <close_archive+0x4e>
  406b1c:	0f 1f 40 00          	nopl   0x0(%rax)
  406b20:	e8 5b f8 ff ff       	callq  406380 <flush_archive>
  406b25:	48 8b 05 a4 33 25 00 	mov    0x2533a4(%rip),%rax        # 659ed0 <record_start>
  406b2c:	48 39 05 b5 33 25 00 	cmp    %rax,0x2533b5(%rip)        # 659ee8 <current_block>
  406b33:	0f 86 55 ff ff ff    	jbe    406a8e <close_archive+0x1e>
  406b39:	e8 42 f8 ff ff       	callq  406380 <flush_archive>
  406b3e:	e8 4d ee ff ff       	callq  405990 <compute_duration>
  406b43:	80 3d 88 37 25 00 00 	cmpb   $0x0,0x253788(%rip)        # 65a2d2 <verify_option>
  406b4a:	0f 84 50 ff ff ff    	je     406aa0 <close_archive+0x30>
  406b50:	e8 eb 38 00 00       	callq  40a440 <verify_volume>
  406b55:	e9 46 ff ff ff       	jmpq   406aa0 <close_archive+0x30>
  406b5a:	66 0f 1f 44 00 00    	nopw   0x0(%rax,%rax,1)

0000000000406b60 <init_volume_number>:
  406b60:	48 8b 3d b1 36 25 00 	mov    0x2536b1(%rip),%rdi        # 65a218 <volno_file_option>
  406b67:	53                   	push   %rbx
  406b68:	be da 1d 44 00       	mov    $0x441dda,%esi
  406b6d:	e8 fe d1 ff ff       	callq  403d70 <fopen@plt>
  406b72:	48 85 c0             	test   %rax,%rax
  406b75:	48 89 c3             	mov    %rax,%rbx
  406b78:	74 6e                	je     406be8 <init_volume_number+0x88>
  406b7a:	48 89 c7             	mov    %rax,%rdi
  406b7d:	ba 48 67 65 00       	mov    $0x656748,%edx
  406b82:	31 c0                	xor    %eax,%eax
  406b84:	be 7c 1b 44 00       	mov    $0x441b7c,%esi
  406b89:	e8 f2 cc ff ff       	callq  403880 <fscanf@plt>
  406b8e:	83 f8 01             	cmp    $0x1,%eax
  406b91:	75 6c                	jne    406bff <init_volume_number+0x9f>
  406b93:	8b 05 af fb 24 00    	mov    0x24fbaf(%rip),%eax        # 656748 <global_volno>
  406b99:	85 c0                	test   %eax,%eax
  406b9b:	78 62                	js     406bff <init_volume_number+0x9f>
  406b9d:	f6 03 20             	testb  $0x20,(%rbx)
  406ba0:	75 26                	jne    406bc8 <init_volume_number+0x68>
  406ba2:	48 89 df             	mov    %rbx,%rdi
  406ba5:	e8 b6 ca ff ff       	callq  403660 <fclose@plt>
  406baa:	85 c0                	test   %eax,%eax
  406bac:	75 0a                	jne    406bb8 <init_volume_number+0x58>
  406bae:	5b                   	pop    %rbx
  406baf:	90                   	nop
  406bb0:	c3                   	retq   
  406bb1:	0f 1f 80 00 00 00 00 	nopl   0x0(%rax)
  406bb8:	5b                   	pop    %rbx
  406bb9:	48 8b 3d 58 36 25 00 	mov    0x253658(%rip),%rdi        # 65a218 <volno_file_option>
  406bc0:	e9 eb fa 01 00       	jmpq   4266b0 <close_error>
  406bc5:	0f 1f 00             	nopl   (%rax)
  406bc8:	48 8b 3d 49 36 25 00 	mov    0x253649(%rip),%rdi        # 65a218 <volno_file_option>
  406bcf:	e8 fc fb 01 00       	callq  4267d0 <read_error>
  406bd4:	48 89 df             	mov    %rbx,%rdi
  406bd7:	e8 84 ca ff ff       	callq  403660 <fclose@plt>
  406bdc:	85 c0                	test   %eax,%eax
  406bde:	74 ce                	je     406bae <init_volume_number+0x4e>
  406be0:	eb d6                	jmp    406bb8 <init_volume_number+0x58>
  406be2:	66 0f 1f 44 00 00    	nopw   0x0(%rax,%rax,1)
  406be8:	e8 c3 c8 ff ff       	callq  4034b0 <__errno_location@plt>
  406bed:	83 38 02             	cmpl   $0x2,(%rax)
  406bf0:	74 bc                	je     406bae <init_volume_number+0x4e>
  406bf2:	5b                   	pop    %rbx
  406bf3:	48 8b 3d 1e 36 25 00 	mov    0x25361e(%rip),%rdi        # 65a218 <volno_file_option>
  406bfa:	e9 91 fb 01 00       	jmpq   426790 <open_error>
  406bff:	48 8b 05 82 37 25 00 	mov    0x253782(%rip),%rax        # 65a388 <error_hook>
  406c06:	48 85 c0             	test   %rax,%rax
  406c09:	74 02                	je     406c0d <init_volume_number+0xad>
  406c0b:	ff d0                	callq  *%rax
  406c0d:	48 8b 3d 04 36 25 00 	mov    0x253604(%rip),%rdi        # 65a218 <volno_file_option>
  406c14:	e8 97 30 03 00       	callq  439cb0 <quotearg_colon>
  406c19:	ba 05 00 00 00       	mov    $0x5,%edx
  406c1e:	48 89 c3             	mov    %rax,%rbx
  406c21:	be 90 e8 43 00       	mov    $0x43e890,%esi
  406c26:	31 ff                	xor    %edi,%edi
  406c28:	e8 a3 ca ff ff       	callq  4036d0 <dcgettext@plt>
  406c2d:	48 89 d9             	mov    %rbx,%rcx
  406c30:	48 89 c2             	mov    %rax,%rdx
  406c33:	31 f6                	xor    %esi,%esi
  406c35:	31 ff                	xor    %edi,%edi
  406c37:	31 c0                	xor    %eax,%eax
  406c39:	e8 a2 d0 ff ff       	callq  403ce0 <error@plt>
  406c3e:	e8 0d 7f 00 00       	callq  40eb50 <fatal_exit>
  406c43:	66 66 66 66 2e 0f 1f 	data32 data32 data32 nopw %cs:0x0(%rax,%rax,1)
  406c4a:	84 00 00 00 00 00 

0000000000406c50 <closeout_volume_number>:
  406c50:	48 8b 3d c1 35 25 00 	mov    0x2535c1(%rip),%rdi        # 65a218 <volno_file_option>
  406c57:	53                   	push   %rbx
  406c58:	be fc 1d 44 00       	mov    $0x441dfc,%esi
  406c5d:	e8 0e d1 ff ff       	callq  403d70 <fopen@plt>
  406c62:	48 85 c0             	test   %rax,%rax
  406c65:	48 89 c3             	mov    %rax,%rbx
  406c68:	74 5e                	je     406cc8 <closeout_volume_number+0x78>
  406c6a:	8b 0d d8 fa 24 00    	mov    0x24fad8(%rip),%ecx        # 656748 <global_volno>
  406c70:	48 89 c7             	mov    %rax,%rdi
  406c73:	ba ab 67 44 00       	mov    $0x4467ab,%edx
  406c78:	31 c0                	xor    %eax,%eax
  406c7a:	be 01 00 00 00       	mov    $0x1,%esi
  406c7f:	e8 fc d1 ff ff       	callq  403e80 <__fprintf_chk@plt>
  406c84:	f6 03 20             	testb  $0x20,(%rbx)
  406c87:	75 17                	jne    406ca0 <closeout_volume_number+0x50>
  406c89:	48 89 df             	mov    %rbx,%rdi
  406c8c:	e8 cf c9 ff ff       	callq  403660 <fclose@plt>
  406c91:	85 c0                	test   %eax,%eax
  406c93:	75 23                	jne    406cb8 <closeout_volume_number+0x68>
  406c95:	5b                   	pop    %rbx
  406c96:	c3                   	retq   
  406c97:	66 0f 1f 84 00 00 00 	nopw   0x0(%rax,%rax,1)
  406c9e:	00 00 
  406ca0:	48 8b 3d 71 35 25 00 	mov    0x253571(%rip),%rdi        # 65a218 <volno_file_option>
  406ca7:	e8 e4 ff 01 00       	callq  426c90 <write_error>
  406cac:	48 89 df             	mov    %rbx,%rdi
  406caf:	e8 ac c9 ff ff       	callq  403660 <fclose@plt>
  406cb4:	85 c0                	test   %eax,%eax
  406cb6:	74 dd                	je     406c95 <closeout_volume_number+0x45>
  406cb8:	5b                   	pop    %rbx
  406cb9:	48 8b 3d 58 35 25 00 	mov    0x253558(%rip),%rdi        # 65a218 <volno_file_option>
  406cc0:	e9 eb f9 01 00       	jmpq   4266b0 <close_error>
  406cc5:	0f 1f 00             	nopl   (%rax)
  406cc8:	5b                   	pop    %rbx
  406cc9:	48 8b 3d 48 35 25 00 	mov    0x253548(%rip),%rdi        # 65a218 <volno_file_option>
  406cd0:	e9 bb fa 01 00       	jmpq   426790 <open_error>
  406cd5:	66 66 2e 0f 1f 84 00 	data32 nopw %cs:0x0(%rax,%rax,1)
  406cdc:	00 00 00 00 

0000000000406ce0 <new_volume>:
  406ce0:	41 55                	push   %r13
  406ce2:	41 54                	push   %r12
  406ce4:	55                   	push   %rbp
  406ce5:	89 fd                	mov    %edi,%ebp
  406ce7:	53                   	push   %rbx
  406ce8:	48 83 ec 18          	sub    $0x18,%rsp
  406cec:	48 83 3d 14 25 25 00 	cmpq   $0x0,0x252514(%rip)        # 659208 <read_file.8482>
  406cf3:	00 
  406cf4:	0f 84 56 06 00 00    	je     407350 <new_volume+0x670>
  406cfa:	80 3d f7 31 25 00 00 	cmpb   $0x0,0x2531f7(%rip)        # 659ef8 <now_verifying>
  406d01:	0f 85 59 04 00 00    	jne    407160 <new_volume+0x480>
  406d07:	80 3d c4 35 25 00 00 	cmpb   $0x0,0x2535c4(%rip)        # 65a2d2 <verify_option>
  406d0e:	0f 85 5c 05 00 00    	jne    407270 <new_volume+0x590>
  406d14:	31 f6                	xor    %esi,%esi
  406d16:	bf c0 9e 65 00       	mov    $0x659ec0,%edi
  406d1b:	e8 60 3c 01 00       	callq  41a980 <assign_string>
  406d20:	31 f6                	xor    %esi,%esi
  406d22:	bf c8 9e 65 00       	mov    $0x659ec8,%edi
  406d27:	e8 54 3c 01 00       	callq  41a980 <assign_string>
  406d2c:	8b 3d 36 36 25 00    	mov    0x253636(%rip),%edi        # 65a368 <archive>
  406d32:	48 8b 05 97 31 25 00 	mov    0x253197(%rip),%rax        # 659ed0 <record_start>
  406d39:	48 c7 05 ac 31 25 00 	movq   $0x0,0x2531ac(%rip)        # 659ef0 <continued_file_offset>
  406d40:	00 00 00 00 
  406d44:	48 c7 05 91 31 25 00 	movq   $0x0,0x253191(%rip)        # 659ee0 <continued_file_size>
  406d4b:	00 00 00 00 
  406d4f:	81 ff ff ff ff 3f    	cmp    $0x3fffffff,%edi
  406d55:	48 89 05 8c 31 25 00 	mov    %rax,0x25318c(%rip)        # 659ee8 <current_block>
  406d5c:	0f 8f be 00 00 00    	jg     406e20 <new_volume+0x140>
  406d62:	e8 49 cb ff ff       	callq  4038b0 <close@plt>
  406d67:	85 c0                	test   %eax,%eax
  406d69:	0f 95 c0             	setne  %al
  406d6c:	84 c0                	test   %al,%al
  406d6e:	0f 85 c4 00 00 00    	jne    406e38 <new_volume+0x158>
  406d74:	48 8b 15 b5 34 25 00 	mov    0x2534b5(%rip),%rdx        # 65a230 <archive_name_array>
  406d7b:	48 8b 0d 56 35 25 00 	mov    0x253556(%rip),%rcx        # 65a2d8 <archive_names>
  406d82:	48 8b 05 df 34 25 00 	mov    0x2534df(%rip),%rax        # 65a268 <archive_name_cursor>
  406d89:	48 8d 0c ca          	lea    (%rdx,%rcx,8),%rcx
  406d8d:	48 83 c0 08          	add    $0x8,%rax
  406d91:	48 39 c8             	cmp    %rcx,%rax
  406d94:	48 89 05 cd 34 25 00 	mov    %rax,0x2534cd(%rip)        # 65a268 <archive_name_cursor>
  406d9b:	0f 84 df 05 00 00    	je     407380 <new_volume+0x6a0>
  406da1:	8b 05 59 24 25 00    	mov    0x252459(%rip),%eax        # 659200 <looped.8483>
  406da7:	85 c0                	test   %eax,%eax
  406da9:	74 3f                	je     406dea <new_volume+0x10a>
  406dab:	0f 1f 44 00 00       	nopl   0x0(%rax,%rax,1)
  406db0:	48 83 3d d0 34 25 00 	cmpq   $0x0,0x2534d0(%rip)        # 65a288 <info_script_option>
  406db7:	00 
  406db8:	0f 84 12 01 00 00    	je     406ed0 <new_volume+0x1f0>
  406dbe:	48 83 3d 52 34 25 00 	cmpq   $0x0,0x253452(%rip)        # 65a218 <volno_file_option>
  406dc5:	00 
  406dc6:	74 05                	je     406dcd <new_volume+0xed>
  406dc8:	e8 83 fe ff ff       	callq  406c50 <closeout_volume_number>
  406dcd:	8b 05 75 f9 24 00    	mov    0x24f975(%rip),%eax        # 656748 <global_volno>
  406dd3:	48 8b 3d 8e 34 25 00 	mov    0x25348e(%rip),%rdi        # 65a268 <archive_name_cursor>
  406dda:	8d 70 01             	lea    0x1(%rax),%esi
  406ddd:	e8 be a5 01 00       	callq  4213a0 <sys_exec_info_script>
  406de2:	85 c0                	test   %eax,%eax
  406de4:	0f 85 11 06 00 00    	jne    4073fb <new_volume+0x71b>
  406dea:	48 8b 1d 77 34 25 00 	mov    0x253477(%rip),%rbx        # 65a268 <archive_name_cursor>
  406df1:	48 8b 3b             	mov    (%rbx),%rdi
  406df4:	80 3f 2d             	cmpb   $0x2d,(%rdi)
  406df7:	75 57                	jne    406e50 <new_volume+0x170>
  406df9:	80 7f 01 00          	cmpb   $0x0,0x1(%rdi)
  406dfd:	75 51                	jne    406e50 <new_volume+0x170>
  406dff:	c6 05 ea 25 25 00 01 	movb   $0x1,0x2525ea(%rip)        # 6593f0 <read_full_records>
  406e06:	c7 05 58 35 25 00 00 	movl   $0x0,0x253558(%rip)        # 65a368 <archive>
  406e0d:	00 00 00 
  406e10:	b8 01 00 00 00       	mov    $0x1,%eax
  406e15:	48 83 c4 18          	add    $0x18,%rsp
  406e19:	5b                   	pop    %rbx
  406e1a:	5d                   	pop    %rbp
  406e1b:	41 5c                	pop    %r12
  406e1d:	41 5d                	pop    %r13
  406e1f:	c3                   	retq   
  406e20:	81 ef 00 00 00 40    	sub    $0x40000000,%edi
  406e26:	e8 95 0b 02 00       	callq  4279c0 <rmt_close__>
  406e2b:	85 c0                	test   %eax,%eax
  406e2d:	0f 95 c0             	setne  %al
  406e30:	84 c0                	test   %al,%al
  406e32:	0f 84 3c ff ff ff    	je     406d74 <new_volume+0x94>
  406e38:	48 8b 05 29 34 25 00 	mov    0x253429(%rip),%rax        # 65a268 <archive_name_cursor>
  406e3f:	48 8b 38             	mov    (%rax),%rdi
  406e42:	e8 69 f8 01 00       	callq  4266b0 <close_error>
  406e47:	e9 28 ff ff ff       	jmpq   406d74 <new_volume+0x94>
  406e4c:	0f 1f 40 00          	nopl   0x0(%rax)
  406e50:	80 3d 7b 34 25 00 00 	cmpb   $0x0,0x25347b(%rip)        # 65a2d2 <verify_option>
  406e57:	0f 85 cb 01 00 00    	jne    407028 <new_volume+0x348>
  406e5d:	83 fd 01             	cmp    $0x1,%ebp
  406e60:	0f 84 8a 02 00 00    	je     4070f0 <new_volume+0x410>
  406e66:	0f 82 2c 02 00 00    	jb     407098 <new_volume+0x3b8>
  406e6c:	83 fd 02             	cmp    $0x2,%ebp
  406e6f:	90                   	nop
  406e70:	0f 84 b2 01 00 00    	je     407028 <new_volume+0x348>
  406e76:	8b 05 ec 34 25 00    	mov    0x2534ec(%rip),%eax        # 65a368 <archive>
  406e7c:	85 c0                	test   %eax,%eax
  406e7e:	0f 89 e7 05 00 00    	jns    40746b <new_volume+0x78b>
  406e84:	48 8b 05 dd 33 25 00 	mov    0x2533dd(%rip),%rax        # 65a268 <archive_name_cursor>
  406e8b:	48 8b 38             	mov    (%rax),%rdi
  406e8e:	e8 2d f9 01 00       	callq  4267c0 <open_warn>
  406e93:	80 3d 38 34 25 00 00 	cmpb   $0x0,0x253438(%rip)        # 65a2d2 <verify_option>
  406e9a:	0f 85 10 ff ff ff    	jne    406db0 <new_volume+0xd0>
  406ea0:	83 fd 01             	cmp    $0x1,%ebp
  406ea3:	0f 85 07 ff ff ff    	jne    406db0 <new_volume+0xd0>
  406ea9:	80 3d cd 33 25 00 00 	cmpb   $0x0,0x2533cd(%rip)        # 65a27d <backup_option>
  406eb0:	0f 84 fa fe ff ff    	je     406db0 <new_volume+0xd0>
  406eb6:	e8 f5 46 01 00       	callq  41b5b0 <undo_last_backup>
  406ebb:	48 83 3d c5 33 25 00 	cmpq   $0x0,0x2533c5(%rip)        # 65a288 <info_script_option>
  406ec2:	00 
  406ec3:	0f 85 f5 fe ff ff    	jne    406dbe <new_volume+0xde>
  406ec9:	0f 1f 80 00 00 00 00 	nopl   0x0(%rax)
  406ed0:	48 8b 1d 31 23 25 00 	mov    0x252331(%rip),%rbx        # 659208 <read_file.8482>
  406ed7:	48 c7 04 24 00 00 00 	movq   $0x0,(%rsp)
  406ede:	00 
  406edf:	48 c7 44 24 08 00 00 	movq   $0x0,0x8(%rsp)
  406ee6:	00 00 
  406ee8:	48 8b 3d 01 23 25 00 	mov    0x252301(%rip),%rdi        # 6591f0 <stderr@@GLIBC_2.2.5>
  406eef:	48 8b 47 28          	mov    0x28(%rdi),%rax
  406ef3:	48 3b 47 30          	cmp    0x30(%rdi),%rax
  406ef7:	0f 83 42 05 00 00    	jae    40743f <new_volume+0x75f>
  406efd:	48 8d 50 01          	lea    0x1(%rax),%rdx
  406f01:	48 89 57 28          	mov    %rdx,0x28(%rdi)
  406f05:	c6 00 07             	movb   $0x7,(%rax)
  406f08:	48 8b 05 59 33 25 00 	mov    0x253359(%rip),%rax        # 65a268 <archive_name_cursor>
  406f0f:	48 8b 38             	mov    (%rax),%rdi
  406f12:	e8 f9 2e 03 00       	callq  439e10 <quote>
  406f17:	49 89 c5             	mov    %rax,%r13
  406f1a:	8b 05 28 f8 24 00    	mov    0x24f828(%rip),%eax        # 656748 <global_volno>
  406f20:	31 ff                	xor    %edi,%edi
  406f22:	ba 05 00 00 00       	mov    $0x5,%edx
  406f27:	be b8 e8 43 00       	mov    $0x43e8b8,%esi
  406f2c:	44 8d 60 01          	lea    0x1(%rax),%r12d
  406f30:	e8 9b c7 ff ff       	callq  4036d0 <dcgettext@plt>
  406f35:	48 8b 3d b4 22 25 00 	mov    0x2522b4(%rip),%rdi        # 6591f0 <stderr@@GLIBC_2.2.5>
  406f3c:	48 89 c2             	mov    %rax,%rdx
  406f3f:	4d 89 e8             	mov    %r13,%r8
  406f42:	44 89 e1             	mov    %r12d,%ecx
  406f45:	be 01 00 00 00       	mov    $0x1,%esi
  406f4a:	31 c0                	xor    %eax,%eax
  406f4c:	e8 2f cf ff ff       	callq  403e80 <__fprintf_chk@plt>
  406f51:	48 8b 3d 98 22 25 00 	mov    0x252298(%rip),%rdi        # 6591f0 <stderr@@GLIBC_2.2.5>
  406f58:	e8 53 cf ff ff       	callq  403eb0 <fflush_unlocked@plt>
  406f5d:	48 8d 74 24 08       	lea    0x8(%rsp),%rsi
  406f62:	48 89 d9             	mov    %rbx,%rcx
  406f65:	ba 0a 00 00 00       	mov    $0xa,%edx
  406f6a:	48 89 e7             	mov    %rsp,%rdi
  406f6d:	e8 3e ca ff ff       	callq  4039b0 <__getdelim@plt>
  406f72:	48 85 c0             	test   %rax,%rax
  406f75:	0f 8e d3 04 00 00    	jle    40744e <new_volume+0x76e>
  406f7b:	48 8b 14 24          	mov    (%rsp),%rdx
  406f7f:	0f b6 02             	movzbl (%rdx),%eax
  406f82:	3c 0a                	cmp    $0xa,%al
  406f84:	0f 84 55 04 00 00    	je     4073df <new_volume+0x6ff>
  406f8a:	89 c1                	mov    %eax,%ecx
  406f8c:	83 e1 df             	and    $0xffffffdf,%ecx
  406f8f:	80 f9 59             	cmp    $0x59,%cl
  406f92:	0f 84 47 04 00 00    	je     4073df <new_volume+0x6ff>
  406f98:	3c 3f                	cmp    $0x3f,%al
  406f9a:	0f 84 88 02 00 00    	je     407228 <new_volume+0x548>
  406fa0:	0f 8e ca 01 00 00    	jle    407170 <new_volume+0x490>
  406fa6:	3c 6e                	cmp    $0x6e,%al
  406fa8:	0f 84 02 02 00 00    	je     4071b0 <new_volume+0x4d0>
  406fae:	3c 71                	cmp    $0x71,%al
  406fb0:	0f 85 cb 01 00 00    	jne    407181 <new_volume+0x4a1>
  406fb6:	48 8b 05 cb 33 25 00 	mov    0x2533cb(%rip),%rax        # 65a388 <error_hook>
  406fbd:	48 85 c0             	test   %rax,%rax
  406fc0:	74 02                	je     406fc4 <new_volume+0x2e4>
  406fc2:	ff d0                	callq  *%rax
  406fc4:	ba 05 00 00 00       	mov    $0x5,%edx
  406fc9:	be 52 e6 43 00       	mov    $0x43e652,%esi
  406fce:	31 ff                	xor    %edi,%edi
  406fd0:	e8 fb c6 ff ff       	callq  4036d0 <dcgettext@plt>
  406fd5:	31 f6                	xor    %esi,%esi
  406fd7:	48 89 c2             	mov    %rax,%rdx
  406fda:	31 ff                	xor    %edi,%edi
  406fdc:	31 c0                	xor    %eax,%eax
  406fde:	e8 fd cc ff ff       	callq  403ce0 <error@plt>
  406fe3:	8b 05 fb 32 25 00    	mov    0x2532fb(%rip),%eax        # 65a2e4 <subcommand_option>
  406fe9:	83 e8 05             	sub    $0x5,%eax
  406fec:	83 f8 02             	cmp    $0x2,%eax
  406fef:	76 2d                	jbe    40701e <new_volume+0x33e>
  406ff1:	48 8b 05 90 33 25 00 	mov    0x253390(%rip),%rax        # 65a388 <error_hook>
  406ff8:	48 85 c0             	test   %rax,%rax
  406ffb:	74 02                	je     406fff <new_volume+0x31f>
  406ffd:	ff d0                	callq  *%rax
  406fff:	ba 05 00 00 00       	mov    $0x5,%edx
  407004:	be 10 e9 43 00       	mov    $0x43e910,%esi
  407009:	31 ff                	xor    %edi,%edi
  40700b:	e8 c0 c6 ff ff       	callq  4036d0 <dcgettext@plt>
  407010:	31 f6                	xor    %esi,%esi
  407012:	48 89 c2             	mov    %rax,%rdx
  407015:	31 ff                	xor    %edi,%edi
  407017:	31 c0                	xor    %eax,%eax
  407019:	e8 c2 cc ff ff       	callq  403ce0 <error@plt>
  40701e:	e8 2d 7b 00 00       	callq  40eb50 <fatal_exit>
  407023:	0f 1f 44 00 00       	nopl   0x0(%rax,%rax,1)
  407028:	80 3d 61 33 25 00 00 	cmpb   $0x0,0x253361(%rip)        # 65a390 <force_local_option>
  40702f:	75 5f                	jne    407090 <new_volume+0x3b0>
  407031:	be 3a 00 00 00       	mov    $0x3a,%esi
  407036:	e8 45 c7 ff ff       	callq  403780 <strchr@plt>
  40703b:	48 85 c0             	test   %rax,%rax
  40703e:	48 89 05 53 33 25 00 	mov    %rax,0x253353(%rip)        # 65a398 <rmt_dev_name__>
  407045:	48 8b 1b             	mov    (%rbx),%rbx
  407048:	74 21                	je     40706b <new_volume+0x38b>
  40704a:	48 39 d8             	cmp    %rbx,%rax
  40704d:	76 1c                	jbe    40706b <new_volume+0x38b>
  40704f:	48 29 d8             	sub    %rbx,%rax
  407052:	be 2f 00 00 00       	mov    $0x2f,%esi
  407057:	48 89 df             	mov    %rbx,%rdi
  40705a:	48 89 c2             	mov    %rax,%rdx
  40705d:	e8 ce c8 ff ff       	callq  403930 <memchr@plt>
  407062:	48 85 c0             	test   %rax,%rax
  407065:	0f 84 30 03 00 00    	je     40739b <new_volume+0x6bb>
  40706b:	ba b6 01 00 00       	mov    $0x1b6,%edx
  407070:	be 42 00 00 00       	mov    $0x42,%esi
  407075:	48 89 df             	mov    %rbx,%rdi
  407078:	31 c0                	xor    %eax,%eax
  40707a:	e8 b1 cc ff ff       	callq  403d30 <open@plt>
  40707f:	89 05 e3 32 25 00    	mov    %eax,0x2532e3(%rip)        # 65a368 <archive>
  407085:	e9 f2 fd ff ff       	jmpq   406e7c <new_volume+0x19c>
  40708a:	66 0f 1f 44 00 00    	nopw   0x0(%rax,%rax,1)
  407090:	48 89 fb             	mov    %rdi,%rbx
  407093:	eb d6                	jmp    40706b <new_volume+0x38b>
  407095:	0f 1f 00             	nopl   (%rax)
  407098:	80 3d f1 32 25 00 00 	cmpb   $0x0,0x2532f1(%rip)        # 65a390 <force_local_option>
  40709f:	0f 85 9b 02 00 00    	jne    407340 <new_volume+0x660>
  4070a5:	be 3a 00 00 00       	mov    $0x3a,%esi
  4070aa:	e8 d1 c6 ff ff       	callq  403780 <strchr@plt>
  4070af:	48 85 c0             	test   %rax,%rax
  4070b2:	48 89 05 df 32 25 00 	mov    %rax,0x2532df(%rip)        # 65a398 <rmt_dev_name__>
  4070b9:	48 8b 1b             	mov    (%rbx),%rbx
  4070bc:	74 09                	je     4070c7 <new_volume+0x3e7>
  4070be:	48 39 d8             	cmp    %rbx,%rax
  4070c1:	0f 87 b9 01 00 00    	ja     407280 <new_volume+0x5a0>
  4070c7:	ba b6 01 00 00       	mov    $0x1b6,%edx
  4070cc:	31 f6                	xor    %esi,%esi
  4070ce:	48 89 df             	mov    %rbx,%rdi
  4070d1:	31 c0                	xor    %eax,%eax
  4070d3:	e8 58 cc ff ff       	callq  403d30 <open@plt>
  4070d8:	89 05 8a 32 25 00    	mov    %eax,0x25328a(%rip)        # 65a368 <archive>
  4070de:	e8 8d e5 ff ff       	callq  405670 <guess_seekable_archive>
  4070e3:	e9 8e fd ff ff       	jmpq   406e76 <new_volume+0x196>
  4070e8:	0f 1f 84 00 00 00 00 	nopl   0x0(%rax,%rax,1)
  4070ef:	00 
  4070f0:	80 3d 86 31 25 00 00 	cmpb   $0x0,0x253186(%rip)        # 65a27d <backup_option>
  4070f7:	49 89 fc             	mov    %rdi,%r12
  4070fa:	0f 85 20 02 00 00    	jne    407320 <new_volume+0x640>
  407100:	80 3d 89 32 25 00 00 	cmpb   $0x0,0x253289(%rip)        # 65a390 <force_local_option>
  407107:	75 3d                	jne    407146 <new_volume+0x466>
  407109:	4c 89 e7             	mov    %r12,%rdi
  40710c:	be 3a 00 00 00       	mov    $0x3a,%esi
  407111:	e8 6a c6 ff ff       	callq  403780 <strchr@plt>
  407116:	48 85 c0             	test   %rax,%rax
  407119:	48 89 05 78 32 25 00 	mov    %rax,0x253278(%rip)        # 65a398 <rmt_dev_name__>
  407120:	4c 8b 23             	mov    (%rbx),%r12
  407123:	74 21                	je     407146 <new_volume+0x466>
  407125:	4c 39 e0             	cmp    %r12,%rax
  407128:	76 1c                	jbe    407146 <new_volume+0x466>
  40712a:	4c 29 e0             	sub    %r12,%rax
  40712d:	be 2f 00 00 00       	mov    $0x2f,%esi
  407132:	4c 89 e7             	mov    %r12,%rdi
  407135:	48 89 c2             	mov    %rax,%rdx
  407138:	e8 f3 c7 ff ff       	callq  403930 <memchr@plt>
  40713d:	48 85 c0             	test   %rax,%rax
  407140:	0f 84 7b 02 00 00    	je     4073c1 <new_volume+0x6e1>
  407146:	be b6 01 00 00       	mov    $0x1b6,%esi
  40714b:	4c 89 e7             	mov    %r12,%rdi
  40714e:	e8 ed cc ff ff       	callq  403e40 <creat@plt>
  407153:	e9 27 ff ff ff       	jmpq   40707f <new_volume+0x39f>
  407158:	0f 1f 84 00 00 00 00 	nopl   0x0(%rax,%rax,1)
  40715f:	00 
  407160:	48 83 c4 18          	add    $0x18,%rsp
  407164:	31 c0                	xor    %eax,%eax
  407166:	5b                   	pop    %rbx
  407167:	5d                   	pop    %rbp
  407168:	41 5c                	pop    %r12
  40716a:	41 5d                	pop    %r13
  40716c:	c3                   	retq   
  40716d:	0f 1f 00             	nopl   (%rax)
  407170:	3c 21                	cmp    $0x21,%al
  407172:	75 0d                	jne    407181 <new_volume+0x4a1>
  407174:	80 3d 15 31 25 00 00 	cmpb   $0x0,0x253115(%rip)        # 65a290 <restrict_option>
  40717b:	0f 84 90 01 00 00    	je     407311 <new_volume+0x631>
  407181:	ba 05 00 00 00       	mov    $0x5,%edx
  407186:	be 28 ea 43 00       	mov    $0x43ea28,%esi
  40718b:	31 ff                	xor    %edi,%edi
  40718d:	e8 3e c5 ff ff       	callq  4036d0 <dcgettext@plt>
  407192:	48 8b 3d 57 20 25 00 	mov    0x252057(%rip),%rdi        # 6591f0 <stderr@@GLIBC_2.2.5>
  407199:	48 89 c2             	mov    %rax,%rdx
  40719c:	be 01 00 00 00       	mov    $0x1,%esi
  4071a1:	31 c0                	xor    %eax,%eax
  4071a3:	e8 d8 cc ff ff       	callq  403e80 <__fprintf_chk@plt>
  4071a8:	e9 3b fd ff ff       	jmpq   406ee8 <new_volume+0x208>
  4071ad:	0f 1f 00             	nopl   (%rax)
  4071b0:	0f b6 42 01          	movzbl 0x1(%rdx),%eax
  4071b4:	48 8d 7a 01          	lea    0x1(%rdx),%rdi
  4071b8:	3c 09                	cmp    $0x9,%al
  4071ba:	75 0f                	jne    4071cb <new_volume+0x4eb>
  4071bc:	0f 1f 40 00          	nopl   0x0(%rax)
  4071c0:	48 83 c7 01          	add    $0x1,%rdi
  4071c4:	0f b6 07             	movzbl (%rdi),%eax
  4071c7:	3c 09                	cmp    $0x9,%al
  4071c9:	74 f5                	je     4071c0 <new_volume+0x4e0>
  4071cb:	3c 20                	cmp    $0x20,%al
  4071cd:	74 f1                	je     4071c0 <new_volume+0x4e0>
  4071cf:	84 c0                	test   %al,%al
  4071d1:	0f 84 e2 01 00 00    	je     4073b9 <new_volume+0x6d9>
  4071d7:	3c 0a                	cmp    $0xa,%al
  4071d9:	0f 84 da 01 00 00    	je     4073b9 <new_volume+0x6d9>
  4071df:	48 89 f8             	mov    %rdi,%rax
  4071e2:	eb 08                	jmp    4071ec <new_volume+0x50c>
  4071e4:	0f 1f 40 00          	nopl   0x0(%rax)
  4071e8:	84 d2                	test   %dl,%dl
  4071ea:	74 0c                	je     4071f8 <new_volume+0x518>
  4071ec:	48 83 c0 01          	add    $0x1,%rax
  4071f0:	0f b6 10             	movzbl (%rax),%edx
  4071f3:	80 fa 0a             	cmp    $0xa,%dl
  4071f6:	75 f0                	jne    4071e8 <new_volume+0x508>
  4071f8:	c6 00 00             	movb   $0x0,(%rax)
  4071fb:	80 3f 00             	cmpb   $0x0,(%rdi)
  4071fe:	0f 84 bc 00 00 00    	je     4072c0 <new_volume+0x5e0>
  407204:	48 8b 1d 5d 30 25 00 	mov    0x25305d(%rip),%rbx        # 65a268 <archive_name_cursor>
  40720b:	e8 f0 39 03 00       	callq  43ac00 <xstrdup>
  407210:	48 89 03             	mov    %rax,(%rbx)
  407213:	48 8b 3c 24          	mov    (%rsp),%rdi
  407217:	e8 14 c2 ff ff       	callq  403430 <free@plt>
  40721c:	e9 c9 fb ff ff       	jmpq   406dea <new_volume+0x10a>
  407221:	0f 1f 80 00 00 00 00 	nopl   0x0(%rax)
  407228:	31 ff                	xor    %edi,%edi
  40722a:	ba 05 00 00 00       	mov    $0x5,%edx
  40722f:	be 30 e9 43 00       	mov    $0x43e930,%esi
  407234:	e8 97 c4 ff ff       	callq  4036d0 <dcgettext@plt>
  407239:	48 8b 3d b0 1f 25 00 	mov    0x251fb0(%rip),%rdi        # 6591f0 <stderr@@GLIBC_2.2.5>
  407240:	48 89 c2             	mov    %rax,%rdx
  407243:	be 01 00 00 00       	mov    $0x1,%esi
  407248:	31 c0                	xor    %eax,%eax
  40724a:	e8 31 cc ff ff       	callq  403e80 <__fprintf_chk@plt>
  40724f:	80 3d 3a 30 25 00 00 	cmpb   $0x0,0x25303a(%rip)        # 65a290 <restrict_option>
  407256:	0f 84 89 00 00 00    	je     4072e5 <new_volume+0x605>
  40725c:	ba 05 00 00 00       	mov    $0x5,%edx
  407261:	be e0 e9 43 00       	mov    $0x43e9e0,%esi
  407266:	e9 20 ff ff ff       	jmpq   40718b <new_volume+0x4ab>
  40726b:	0f 1f 44 00 00       	nopl   0x0(%rax,%rax,1)
  407270:	e8 cb 31 00 00       	callq  40a440 <verify_volume>
  407275:	e9 9a fa ff ff       	jmpq   406d14 <new_volume+0x34>
  40727a:	66 0f 1f 44 00 00    	nopw   0x0(%rax,%rax,1)
  407280:	48 29 d8             	sub    %rbx,%rax
  407283:	be 2f 00 00 00       	mov    $0x2f,%esi
  407288:	48 89 df             	mov    %rbx,%rdi
  40728b:	48 89 c2             	mov    %rax,%rdx
  40728e:	e8 9d c6 ff ff       	callq  403930 <memchr@plt>
  407293:	48 85 c0             	test   %rax,%rax
  407296:	0f 85 2b fe ff ff    	jne    4070c7 <new_volume+0x3e7>
  40729c:	48 8b 0d 0d 30 25 00 	mov    0x25300d(%rip),%rcx        # 65a2b0 <rsh_command_option>
  4072a3:	ba 00 00 00 40       	mov    $0x40000000,%edx
  4072a8:	31 f6                	xor    %esi,%esi
  4072aa:	48 89 df             	mov    %rbx,%rdi
  4072ad:	e8 9e 00 02 00       	callq  427350 <rmt_open__>
  4072b2:	e9 21 fe ff ff       	jmpq   4070d8 <new_volume+0x3f8>
  4072b7:	66 0f 1f 84 00 00 00 	nopw   0x0(%rax,%rax,1)
  4072be:	00 00 
  4072c0:	31 ff                	xor    %edi,%edi
  4072c2:	ba 05 00 00 00       	mov    $0x5,%edx
  4072c7:	be 00 ea 43 00       	mov    $0x43ea00,%esi
  4072cc:	e8 ff c3 ff ff       	callq  4036d0 <dcgettext@plt>
  4072d1:	48 8b 35 18 1f 25 00 	mov    0x251f18(%rip),%rsi        # 6591f0 <stderr@@GLIBC_2.2.5>
  4072d8:	48 89 c7             	mov    %rax,%rdi
  4072db:	e8 50 c5 ff ff       	callq  403830 <fputs@plt>
  4072e0:	e9 03 fc ff ff       	jmpq   406ee8 <new_volume+0x208>
  4072e5:	31 ff                	xor    %edi,%edi
  4072e7:	ba 05 00 00 00       	mov    $0x5,%edx
  4072ec:	be b8 e9 43 00       	mov    $0x43e9b8,%esi
  4072f1:	e8 da c3 ff ff       	callq  4036d0 <dcgettext@plt>
  4072f6:	48 8b 3d f3 1e 25 00 	mov    0x251ef3(%rip),%rdi        # 6591f0 <stderr@@GLIBC_2.2.5>
  4072fd:	48 89 c2             	mov    %rax,%rdx
  407300:	be 01 00 00 00       	mov    $0x1,%esi
  407305:	31 c0                	xor    %eax,%eax
  407307:	e8 74 cb ff ff       	callq  403e80 <__fprintf_chk@plt>
  40730c:	e9 4b ff ff ff       	jmpq   40725c <new_volume+0x57c>
  407311:	e8 6a 94 01 00       	callq  420780 <sys_spawn_shell>
  407316:	e9 cd fb ff ff       	jmpq   406ee8 <new_volume+0x208>
  40731b:	0f 1f 44 00 00       	nopl   0x0(%rax,%rax,1)
  407320:	be 01 00 00 00       	mov    $0x1,%esi
  407325:	e8 46 40 01 00       	callq  41b370 <maybe_backup_file>
  40732a:	48 8b 1d 37 2f 25 00 	mov    0x252f37(%rip),%rbx        # 65a268 <archive_name_cursor>
  407331:	4c 8b 23             	mov    (%rbx),%r12
  407334:	e9 c7 fd ff ff       	jmpq   407100 <new_volume+0x420>
  407339:	0f 1f 80 00 00 00 00 	nopl   0x0(%rax)
  407340:	48 89 fb             	mov    %rdi,%rbx
  407343:	e9 7f fd ff ff       	jmpq   4070c7 <new_volume+0x3e7>
  407348:	0f 1f 84 00 00 00 00 	nopl   0x0(%rax,%rax,1)
  40734f:	00 
  407350:	48 83 3d 30 2f 25 00 	cmpq   $0x0,0x252f30(%rip)        # 65a288 <info_script_option>
  407357:	00 
  407358:	0f 85 9c f9 ff ff    	jne    406cfa <new_volume+0x1a>
  40735e:	8b 15 04 30 25 00    	mov    0x253004(%rip),%edx        # 65a368 <archive>
  407364:	48 8b 05 6d 1e 25 00 	mov    0x251e6d(%rip),%rax        # 6591d8 <stdin@@GLIBC_2.2.5>
  40736b:	85 d2                	test   %edx,%edx
  40736d:	74 78                	je     4073e7 <new_volume+0x707>
  40736f:	48 89 05 92 1e 25 00 	mov    %rax,0x251e92(%rip)        # 659208 <read_file.8482>
  407376:	e9 7f f9 ff ff       	jmpq   406cfa <new_volume+0x1a>
  40737b:	0f 1f 44 00 00       	nopl   0x0(%rax,%rax,1)
  407380:	48 89 15 e1 2e 25 00 	mov    %rdx,0x252ee1(%rip)        # 65a268 <archive_name_cursor>
  407387:	c7 05 6f 1e 25 00 01 	movl   $0x1,0x251e6f(%rip)        # 659200 <looped.8483>
  40738e:	00 00 00 
  407391:	b8 01 00 00 00       	mov    $0x1,%eax
  407396:	e9 0c fa ff ff       	jmpq   406da7 <new_volume+0xc7>
  40739b:	48 8b 0d 0e 2f 25 00 	mov    0x252f0e(%rip),%rcx        # 65a2b0 <rsh_command_option>
  4073a2:	ba 00 00 00 40       	mov    $0x40000000,%edx
  4073a7:	be 42 00 00 00       	mov    $0x42,%esi
  4073ac:	48 89 df             	mov    %rbx,%rdi
  4073af:	e8 9c ff 01 00       	callq  427350 <rmt_open__>
  4073b4:	e9 c6 fc ff ff       	jmpq   40707f <new_volume+0x39f>
  4073b9:	48 89 f8             	mov    %rdi,%rax
  4073bc:	e9 37 fe ff ff       	jmpq   4071f8 <new_volume+0x518>
  4073c1:	48 8b 0d e8 2e 25 00 	mov    0x252ee8(%rip),%rcx        # 65a2b0 <rsh_command_option>
  4073c8:	ba 00 00 00 40       	mov    $0x40000000,%edx
  4073cd:	be 41 00 00 00       	mov    $0x41,%esi
  4073d2:	4c 89 e7             	mov    %r12,%rdi
  4073d5:	e8 76 ff 01 00       	callq  427350 <rmt_open__>
  4073da:	e9 a0 fc ff ff       	jmpq   40707f <new_volume+0x39f>
  4073df:	48 89 d7             	mov    %rdx,%rdi
  4073e2:	e9 30 fe ff ff       	jmpq   407217 <new_volume+0x537>
  4073e7:	be da 1d 44 00       	mov    $0x441dda,%esi
  4073ec:	bf 37 e6 43 00       	mov    $0x43e637,%edi
  4073f1:	e8 7a c9 ff ff       	callq  403d70 <fopen@plt>
  4073f6:	e9 74 ff ff ff       	jmpq   40736f <new_volume+0x68f>
  4073fb:	48 8b 05 86 2f 25 00 	mov    0x252f86(%rip),%rax        # 65a388 <error_hook>
  407402:	48 85 c0             	test   %rax,%rax
  407405:	74 02                	je     407409 <new_volume+0x729>
  407407:	ff d0                	callq  *%rax
  407409:	48 8b 3d 78 2e 25 00 	mov    0x252e78(%rip),%rdi        # 65a288 <info_script_option>
  407410:	e8 fb 29 03 00       	callq  439e10 <quote>
  407415:	ba 05 00 00 00       	mov    $0x5,%edx
  40741a:	48 89 c3             	mov    %rax,%rbx
  40741d:	be 40 e6 43 00       	mov    $0x43e640,%esi
  407422:	31 ff                	xor    %edi,%edi
  407424:	e8 a7 c2 ff ff       	callq  4036d0 <dcgettext@plt>
  407429:	48 89 d9             	mov    %rbx,%rcx
  40742c:	48 89 c2             	mov    %rax,%rdx
  40742f:	31 f6                	xor    %esi,%esi
  407431:	31 ff                	xor    %edi,%edi
  407433:	31 c0                	xor    %eax,%eax
  407435:	e8 a6 c8 ff ff       	callq  403ce0 <error@plt>
  40743a:	e8 11 77 00 00       	callq  40eb50 <fatal_exit>
  40743f:	be 07 00 00 00       	mov    $0x7,%esi
  407444:	e8 77 c3 ff ff       	callq  4037c0 <__overflow@plt>
  407449:	e9 ba fa ff ff       	jmpq   406f08 <new_volume+0x228>
  40744e:	48 8b 05 33 2f 25 00 	mov    0x252f33(%rip),%rax        # 65a388 <error_hook>
  407455:	48 85 c0             	test   %rax,%rax
  407458:	74 02                	je     40745c <new_volume+0x77c>
  40745a:	ff d0                	callq  *%rax
  40745c:	ba 05 00 00 00       	mov    $0x5,%edx
  407461:	be e8 e8 43 00       	mov    $0x43e8e8,%esi
  407466:	e9 63 fb ff ff       	jmpq   406fce <new_volume+0x2ee>
  40746b:	b8 01 00 00 00       	mov    $0x1,%eax
  407470:	e9 a0 f9 ff ff       	jmpq   406e15 <new_volume+0x135>
  407475:	66 66 2e 0f 1f 84 00 	data32 nopw %cs:0x0(%rax,%rax,1)
  40747c:	00 00 00 00 

0000000000407480 <gnu_flush_write>:
  407480:	41 56                	push   %r14
  407482:	41 55                	push   %r13
  407484:	49 89 fd             	mov    %rdi,%r13
  407487:	41 54                	push   %r12
  407489:	55                   	push   %rbp
  40748a:	53                   	push   %rbx
  40748b:	48 83 ec 10          	sub    $0x10,%rsp
  40748f:	48 c7 05 4e 1f 25 00 	movq   $0x405fe0,0x251f4e(%rip)        # 6593e8 <flush_write_ptr>
  407496:	e0 5f 40 00 
  40749a:	e8 21 e0 ff ff       	callq  4054c0 <_flush_write>
  40749f:	48 89 c5             	mov    %rax,%rbp
  4074a2:	48 8b 05 7f 2e 25 00 	mov    0x252e7f(%rip),%rax        # 65a328 <record_size>
  4074a9:	48 39 c5             	cmp    %rax,%rbp
  4074ac:	74 0d                	je     4074bb <gnu_flush_write+0x3b>
  4074ae:	80 3d ff 2a 25 00 00 	cmpb   $0x0,0x252aff(%rip)        # 659fb4 <multi_volume_option>
  4074b5:	0f 84 b9 00 00 00    	je     407574 <gnu_flush_write+0xf4>
  4074bb:	48 85 ed             	test   %rbp,%rbp
  4074be:	74 08                	je     4074c8 <gnu_flush_write+0x48>
  4074c0:	48 83 05 e8 29 25 00 	addq   $0x1,0x2529e8(%rip)        # 659eb0 <records_written>
  4074c7:	01 
  4074c8:	f2 48 0f 2a c5       	cvtsi2sd %rbp,%xmm0
  4074cd:	48 39 c5             	cmp    %rax,%rbp
  4074d0:	f2 0f 58 05 58 1f 25 	addsd  0x251f58(%rip),%xmm0        # 659430 <bytes_written>
  4074d7:	00 
  4074d8:	f2 0f 11 05 50 1f 25 	movsd  %xmm0,0x251f50(%rip)        # 659430 <bytes_written>
  4074df:	00 
  4074e0:	74 65                	je     407547 <gnu_flush_write+0xc7>
  4074e2:	48 8b 15 ef 1e 25 00 	mov    0x251eef(%rip),%rdx        # 6593d8 <bufmap_head>
  4074e9:	48 85 d2             	test   %rdx,%rdx
  4074ec:	0f 84 ab 03 00 00    	je     40789d <gnu_flush_write+0x41d>
  4074f2:	48 8b 1a             	mov    (%rdx),%rbx
  4074f5:	48 85 db             	test   %rbx,%rbx
  4074f8:	0f 84 97 03 00 00    	je     407895 <gnu_flush_write+0x415>
  4074fe:	48 8b 43 08          	mov    0x8(%rbx),%rax
  407502:	48 c1 e0 09          	shl    $0x9,%rax
  407506:	48 39 c5             	cmp    %rax,%rbp
  407509:	73 15                	jae    407520 <gnu_flush_write+0xa0>
  40750b:	e9 85 03 00 00       	jmpq   407895 <gnu_flush_write+0x415>
  407510:	48 8b 4a 08          	mov    0x8(%rdx),%rcx
  407514:	48 c1 e1 09          	shl    $0x9,%rcx
  407518:	48 39 cd             	cmp    %rcx,%rbp
  40751b:	72 0b                	jb     407528 <gnu_flush_write+0xa8>
  40751d:	48 89 d3             	mov    %rdx,%rbx
  407520:	48 8b 13             	mov    (%rbx),%rdx
  407523:	48 85 d2             	test   %rdx,%rdx
  407526:	75 e8                	jne    407510 <gnu_flush_write+0x90>
  407528:	f7 c5 ff 01 00 00    	test   $0x1ff,%ebp
  40752e:	0f 85 a6 03 00 00    	jne    4078da <gnu_flush_write+0x45a>
  407534:	48 85 ed             	test   %rbp,%rbp
  407537:	78 27                	js     407560 <gnu_flush_write+0xe0>
  407539:	bf 01 00 00 00       	mov    $0x1,%edi
  40753e:	e8 9d f7 ff ff       	callq  406ce0 <new_volume>
  407543:	84 c0                	test   %al,%al
  407545:	75 39                	jne    407580 <gnu_flush_write+0x100>
  407547:	48 c7 05 96 1e 25 00 	movq   $0x407480,0x251e96(%rip)        # 6593e8 <flush_write_ptr>
  40754e:	80 74 40 00 
  407552:	48 83 c4 10          	add    $0x10,%rsp
  407556:	5b                   	pop    %rbx
  407557:	5d                   	pop    %rbp
  407558:	41 5c                	pop    %r12
  40755a:	41 5d                	pop    %r13
  40755c:	41 5e                	pop    %r14
  40755e:	c3                   	retq   
  40755f:	90                   	nop
  407560:	e8 4b bf ff ff       	callq  4034b0 <__errno_location@plt>
  407565:	8b 00                	mov    (%rax),%eax
  407567:	83 f8 1c             	cmp    $0x1c,%eax
  40756a:	74 cd                	je     407539 <gnu_flush_write+0xb9>
  40756c:	83 e8 05             	sub    $0x5,%eax
  40756f:	83 f8 01             	cmp    $0x1,%eax
  407572:	76 c5                	jbe    407539 <gnu_flush_write+0xb9>
  407574:	48 89 ef             	mov    %rbp,%rdi
  407577:	e8 04 ea ff ff       	callq  405f80 <archive_write_error>
  40757c:	0f 1f 40 00          	nopl   0x0(%rax)
  407580:	bf 20 92 65 00       	mov    $0x659220,%edi
  407585:	49 89 ec             	mov    %rbp,%r12
  407588:	49 29 ed             	sub    %rbp,%r13
  40758b:	e8 b0 c6 01 00       	callq  423c40 <tar_stat_destroy>
  407590:	e8 7b e1 ff ff       	callq  405710 <increase_volume_number>
  407595:	f2 0f 10 05 9b 1e 25 	movsd  0x251e9b(%rip),%xmm0        # 659438 <prev_written>
  40759c:	00 
  40759d:	8b 0d 65 1e 25 00    	mov    0x251e65(%rip),%ecx        # 659408 <record_index>
  4075a3:	4c 03 25 26 29 25 00 	add    0x252926(%rip),%r12        # 659ed0 <record_start>
  4075aa:	31 c0                	xor    %eax,%eax
  4075ac:	f2 0f 58 05 7c 1e 25 	addsd  0x251e7c(%rip),%xmm0        # 659430 <bytes_written>
  4075b3:	00 
  4075b4:	48 c7 05 71 1e 25 00 	movq   $0x0,0x251e71(%rip)        # 659430 <bytes_written>
  4075bb:	00 00 00 00 
  4075bf:	85 c9                	test   %ecx,%ecx
  4075c1:	0f 94 c0             	sete   %al
  4075c4:	89 05 3e 1e 25 00    	mov    %eax,0x251e3e(%rip)        # 659408 <record_index>
  4075ca:	f2 0f 11 05 66 1e 25 	movsd  %xmm0,0x251e66(%rip)        # 659438 <prev_written>
  4075d1:	00 
  4075d2:	e8 29 e0 ff ff       	callq  405600 <init_buffer>
  4075d7:	48 83 3d 29 2c 25 00 	cmpq   $0x0,0x252c29(%rip)        # 65a208 <volume_label_option>
  4075de:	00 
  4075df:	c7 05 df 1d 25 00 01 	movl   $0x1,0x251ddf(%rip)        # 6593c8 <inhibit_map>
  4075e6:	00 00 00 
  4075e9:	74 05                	je     4075f0 <gnu_flush_write+0x170>
  4075eb:	e8 d0 f1 ff ff       	callq  4067c0 <add_volume_label>
  4075f0:	48 85 db             	test   %rbx,%rbx
  4075f3:	0f 84 27 02 00 00    	je     407820 <gnu_flush_write+0x3a0>
  4075f9:	83 3d b8 2c 25 00 04 	cmpl   $0x4,0x252cb8(%rip)        # 65a2b8 <archive_format>
  407600:	0f 84 40 02 00 00    	je     407846 <gnu_flush_write+0x3c6>
  407606:	e8 c5 ef ff ff       	callq  4065d0 <find_next_block>
  40760b:	4c 8b 73 10          	mov    0x10(%rbx),%r14
  40760f:	48 89 c5             	mov    %rax,%rbp
  407612:	4c 89 f7             	mov    %r14,%rdi
  407615:	e8 e6 c0 ff ff       	callq  403700 <strlen@plt>
  40761a:	48 83 f8 64          	cmp    $0x64,%rax
  40761e:	76 3f                	jbe    40765f <gnu_flush_write+0x1df>
  407620:	48 8b 05 61 2d 25 00 	mov    0x252d61(%rip),%rax        # 65a388 <error_hook>
  407627:	48 85 c0             	test   %rax,%rax
  40762a:	74 06                	je     407632 <gnu_flush_write+0x1b2>
  40762c:	ff d0                	callq  *%rax
  40762e:	4c 8b 73 10          	mov    0x10(%rbx),%r14
  407632:	4c 89 f7             	mov    %r14,%rdi
  407635:	e8 76 26 03 00       	callq  439cb0 <quotearg_colon>
  40763a:	ba 05 00 00 00       	mov    $0x5,%edx
  40763f:	49 89 c6             	mov    %rax,%r14
  407642:	be 78 ea 43 00       	mov    $0x43ea78,%esi
  407647:	31 ff                	xor    %edi,%edi
  407649:	e8 82 c0 ff ff       	callq  4036d0 <dcgettext@plt>
  40764e:	4c 89 f1             	mov    %r14,%rcx
  407651:	48 89 c2             	mov    %rax,%rdx
  407654:	31 f6                	xor    %esi,%esi
  407656:	31 ff                	xor    %edi,%edi
  407658:	31 c0                	xor    %eax,%eax
  40765a:	e8 81 c6 ff ff       	callq  403ce0 <error@plt>
  40765f:	40 f6 c5 01          	test   $0x1,%bpl
  407663:	48 89 ef             	mov    %rbp,%rdi
  407666:	be 00 02 00 00       	mov    $0x200,%esi
  40766b:	0f 85 58 02 00 00    	jne    4078c9 <gnu_flush_write+0x449>
  407671:	40 f6 c7 02          	test   $0x2,%dil
  407675:	0f 85 3c 02 00 00    	jne    4078b7 <gnu_flush_write+0x437>
  40767b:	40 f6 c7 04          	test   $0x4,%dil
  40767f:	0f 85 20 02 00 00    	jne    4078a5 <gnu_flush_write+0x425>
  407685:	89 f1                	mov    %esi,%ecx
  407687:	31 c0                	xor    %eax,%eax
  407689:	c1 e9 03             	shr    $0x3,%ecx
  40768c:	40 f6 c6 04          	test   $0x4,%sil
  407690:	f3 48 ab             	rep stos %rax,%es:(%rdi)
  407693:	74 0a                	je     40769f <gnu_flush_write+0x21f>
  407695:	c7 07 00 00 00 00    	movl   $0x0,(%rdi)
  40769b:	48 83 c7 04          	add    $0x4,%rdi
  40769f:	40 f6 c6 02          	test   $0x2,%sil
  4076a3:	74 0a                	je     4076af <gnu_flush_write+0x22f>
  4076a5:	31 c0                	xor    %eax,%eax
  4076a7:	48 83 c7 02          	add    $0x2,%rdi
  4076ab:	66 89 47 fe          	mov    %ax,-0x2(%rdi)
  4076af:	83 e6 01             	and    $0x1,%esi
  4076b2:	74 03                	je     4076b7 <gnu_flush_write+0x237>
  4076b4:	c6 07 00             	movb   $0x0,(%rdi)
  4076b7:	48 8b 73 10          	mov    0x10(%rbx),%rsi
  4076bb:	48 89 ef             	mov    %rbp,%rdi
  4076be:	ba 64 00 00 00       	mov    $0x64,%edx
  4076c3:	e8 f8 bd ff ff       	callq  4034c0 <strncpy@plt>
  4076c8:	c6 85 9c 00 00 00 4d 	movb   $0x4d,0x9c(%rbp)
  4076cf:	48 8b 7b 20          	mov    0x20(%rbx),%rdi
  4076d3:	48 8d 75 7c          	lea    0x7c(%rbp),%rsi
  4076d7:	ba 0c 00 00 00       	mov    $0xc,%edx
  4076dc:	e8 cf 3b 00 00       	callq  40b2b0 <off_to_chars>
  4076e1:	48 8b 7b 18          	mov    0x18(%rbx),%rdi
  4076e5:	48 2b 7b 20          	sub    0x20(%rbx),%rdi
  4076e9:	48 8d b5 71 01 00 00 	lea    0x171(%rbp),%rsi
  4076f0:	ba 0c 00 00 00       	mov    $0xc,%edx
  4076f5:	e8 b6 3b 00 00       	callq  40b2b0 <off_to_chars>
  4076fa:	44 8b 35 03 2b 25 00 	mov    0x252b03(%rip),%r14d        # 65a204 <verbose_option>
  407701:	48 89 ee             	mov    %rbp,%rsi
  407704:	48 c7 c2 ff ff ff ff 	mov    $0xffffffffffffffff,%rdx
  40770b:	bf e0 9f 65 00       	mov    $0x659fe0,%edi
  407710:	c7 05 ea 2a 25 00 00 	movl   $0x0,0x252aea(%rip)        # 65a204 <verbose_option>
  407717:	00 00 00 
  40771a:	e8 a1 40 00 00       	callq  40b7c0 <finish_header>
  40771f:	48 89 ef             	mov    %rbp,%rdi
  407722:	48 8d 6b 20          	lea    0x20(%rbx),%rbp
  407726:	44 89 35 d7 2a 25 00 	mov    %r14d,0x252ad7(%rip)        # 65a204 <verbose_option>
  40772d:	e8 3e e7 ff ff       	callq  405e70 <set_next_block_after>
  407732:	e8 99 ee ff ff       	callq  4065d0 <find_next_block>
  407737:	be 20 92 65 00       	mov    $0x659220,%esi
  40773c:	48 89 c2             	mov    %rax,%rdx
  40773f:	bf 01 00 00 00       	mov    $0x1,%edi
  407744:	e8 67 3e 00 00       	callq  40b5b0 <write_extended>
  407749:	bf 20 92 65 00       	mov    $0x659220,%edi
  40774e:	e8 ed c4 01 00       	callq  423c40 <tar_stat_destroy>
  407753:	48 8d 7b 10          	lea    0x10(%rbx),%rdi
  407757:	48 89 ee             	mov    %rbp,%rsi
  40775a:	e8 01 e0 ff ff       	callq  405760 <add_chunk_header.isra.2>
  40775f:	e8 6c ee ff ff       	callq  4065d0 <find_next_block>
  407764:	48 89 c6             	mov    %rax,%rsi
  407767:	48 2b 35 62 27 25 00 	sub    0x252762(%rip),%rsi        # 659ed0 <record_start>
  40776e:	48 89 df             	mov    %rbx,%rdi
  407771:	48 89 c5             	mov    %rax,%rbp
  407774:	48 c1 fe 09          	sar    $0x9,%rsi
  407778:	e8 53 db ff ff       	callq  4052d0 <bufmap_reset>
  40777d:	48 8b 1d 24 27 25 00 	mov    0x252724(%rip),%rbx        # 659ea8 <record_end>
  407784:	c7 05 3a 1c 25 00 00 	movl   $0x0,0x251c3a(%rip)        # 6593c8 <inhibit_map>
  40778b:	00 00 00 
  40778e:	48 29 eb             	sub    %rbp,%rbx
  407791:	49 39 dd             	cmp    %rbx,%r13
  407794:	76 4a                	jbe    4077e0 <gnu_flush_write+0x360>
  407796:	66 2e 0f 1f 84 00 00 	nopw   %cs:0x0(%rax,%rax,1)
  40779d:	00 00 00 
  4077a0:	48 89 da             	mov    %rbx,%rdx
  4077a3:	4c 89 e6             	mov    %r12,%rsi
  4077a6:	49 29 dd             	sub    %rbx,%r13
  4077a9:	49 01 dc             	add    %rbx,%r12
  4077ac:	48 83 eb 01          	sub    $0x1,%rbx
  4077b0:	48 89 ef             	mov    %rbp,%rdi
