(dp0
S'name_to_handle_at'
p1
(lp2
S'int'
p3
aS'int'
p4
aS'const char *'
p5
aS'struct file_handle *'
p6
aS'int *'
p7
aS'int'
p8
asS'getc_unlocked'
p9
(lp10
S'int'
p11
aS'struct _IO_FILE *'
p12
asS'sleep'
p13
(lp14
S'unsigned int'
p15
aS'unsigned int'
p16
asS'group_member'
p17
(lp18
S'int'
p19
aS'unsigned int'
p20
asS'wcsncasecmp'
p21
(lp22
S'int'
p23
aS'const int *'
p24
aS'const int *'
p25
aS'unsigned long'
p26
asS'swab'
p27
(lp28
S'void'
p29
aS'const void *restrict'
p30
aS'void *restrict'
p31
aS'long'
p32
asS'pthread_attr_getscope'
p33
(lp34
S'int'
p35
aS'const union pthread_attr_t *restrict'
p36
aS'int *restrict'
p37
asS'umask'
p38
(lp39
S'unsigned int'
p40
aS'unsigned int'
p41
asS'hash_delete'
p42
(lp43
S'void *'
p44
aS'int *'
p45
aS'const void *'
p46
asS'addlists'
p47
(lp48
S'char **'
p49
aS'char **'
p50
aS'char **'
p51
asS'build_state'
p52
(lp53
S'void'
p54
aS'long'
p55
aS'struct dfa *'
p56
asS'__getpgid'
p57
(lp58
S'int'
p59
aS'int'
p60
asS'leave_dir'
p61
(lp62
S'void'
p63
aS'int *'
p64
aS'int *'
p65
asS'futimens'
p66
(lp67
S'int'
p68
aS'int'
p69
aS'struct timespec const[2]'
p70
asS'localtime'
p71
(lp72
S'struct tm *'
p73
aS'const long *'
p74
asS'rand_r'
p75
(lp76
S'int'
p77
aS'unsigned int *'
p78
asS'getpt'
p79
(lp80
S'int'
p81
asS'iswupper_l'
p82
(lp83
S'int'
p84
aS'unsigned int'
p85
aS'struct __locale_struct *'
p86
asS'ctime_r'
p87
(lp88
S'char *'
p89
aS'const long *restrict'
p90
aS'char *restrict'
p91
asS'verify_func'
p92
(lp93
S'void'
p94
aS'int'
p95
asS'getppid'
p96
(lp97
S'int'
p98
asS'longest_relative_suffix'
p99
(lp100
S'const char *'
p101
aS'const char *'
p102
asS'getloadavg'
p103
(lp104
S'int'
p105
aS'double []'
p106
aS'int'
p107
asS'iswblank_l'
p108
(lp109
S'int'
p110
aS'unsigned int'
p111
aS'struct __locale_struct *'
p112
asS'lchmod'
p113
(lp114
S'int'
p115
aS'const char *'
p116
aS'unsigned int'
p117
asS'dfastate'
p118
(lp119
S'void'
p120
aS'long'
p121
aS'struct dfa *'
p122
aS'long []'
p123
asS'addtok'
p124
(lp125
S'void'
p126
aS'long'
p127
asS'link_nfa_nodes'
p128
(lp129
S'reg_errcode_t'
p130
aS'void *'
p131
aS'int *'
p132
asS'unshare'
p133
(lp134
S'int'
p135
aS'int'
p136
asS'hash_lookup'
p137
(lp138
S'void *'
p139
aS'const int *'
p140
aS'const void *'
p141
asS'g_debug'
p142
(lp143
S'void'
p144
aS'const int *'
p145
asS'vwscanf'
p146
(lp147
S'int'
p148
aS'const int *restrict'
p149
aS'struct __va_list_tag [1]'
p150
asS'is_open'
p151
(lp152
S'int'
p153
aS'int'
p154
asS'gnu_dev_makedev'
p155
(lp156
S'unsigned long long'
p157
aS'unsigned int'
p158
aS'unsigned int'
p159
asS'pthread_spin_trylock'
p160
(lp161
S'int'
p162
aS'volatile int *'
p163
asS'getlogin_r'
p164
(lp165
S'int'
p166
aS'char *'
p167
aS'unsigned long'
p168
asS'mb_prev_wc'
p169
(lp170
S'unsigned int'
p171
aS'const char *'
p172
aS'const char *'
p173
aS'const char *'
p174
asS'wcschr'
p175
(lp176
S'int *'
p177
aS'const int *'
p178
aS'int'
p179
asS'gl_locale_name'
p180
(lp181
S'const char *'
p182
aS'int'
p183
aS'const char *'
p184
asS'swscanf'
p185
(lp186
S'int'
p187
aS'const int *restrict'
p188
aS'const int *restrict'
p189
asS'quotearg'
p190
(lp191
S'char *'
p192
aS'const char *'
p193
asS'wcrtomb'
p194
(lp195
S'unsigned long'
p196
aS'char *restrict'
p197
aS'int'
p198
aS'__mbstate_t *restrict'
p199
asS'dfambcache'
p200
(lp201
S'void'
p202
aS'struct dfa *'
p203
asS'xstrtol_fatal'
p204
(lp205
S'void'
p206
aS'enum strtol_error'
p207
aS'int'
p208
aS'char'
p209
aS'const struct option *'
p210
aS'const char *'
p211
asS'pr_sgr_start'
p212
(lp213
S'void'
p214
aS'const char *'
p215
asS'__fxstatat64'
p216
(lp217
S'int'
p218
aS'int'
p219
aS'int'
p220
aS'const char *'
p221
aS'struct stat64 *'
p222
aS'int'
p223
asS'__dcgettext'
p224
(lp225
S'char *'
p226
aS'const char *'
p227
aS'const char *'
p228
aS'int'
p229
asS'suppressible_error'
p230
(lp231
S'void'
p232
aS'const char *'
p233
aS'int'
p234
asS'ualarm'
p235
(lp236
S'unsigned int'
p237
aS'unsigned int'
p238
aS'unsigned int'
p239
asS'getdate_r'
p240
(lp241
S'int'
p242
aS'const char *restrict'
p243
aS'struct tm *restrict'
p244
asS'vwprintf'
p245
(lp246
S'int'
p247
aS'const int *restrict'
p248
aS'struct __va_list_tag [1]'
p249
asS'zeroset'
p250
(lp251
S'void'
p252
aS'unsigned int [0]'
p253
asS'pthread_attr_init'
p254
(lp255
S'int'
p256
aS'union pthread_attr_t *'
p257
asS'isctype'
p258
(lp259
S'int'
p260
aS'int'
p261
aS'int'
p262
asS'setstate_r'
p263
(lp264
S'int'
p265
aS'char *restrict'
p266
aS'struct random_data *restrict'
p267
asS'getsid'
p268
(lp269
S'int'
p270
aS'int'
p271
asS'pthread_mutex_setprioceiling'
p272
(lp273
S'int'
p274
aS'pthread_mutex_t *restrict'
p275
aS'int'
p276
aS'int *restrict'
p277
asS'wcsxfrm'
p278
(lp279
S'unsigned long'
p280
aS'int *restrict'
p281
aS'const int *restrict'
p282
aS'unsigned long'
p283
asS'pthread_mutexattr_getprotocol'
p284
(lp285
S'int'
p286
aS'const pthread_mutexattr_t *restrict'
p287
aS'int *restrict'
p288
asS'PAcompile'
p289
(lp290
S'void'
p291
aS'const char *'
p292
aS'unsigned long'
p293
asS'iswalnum'
p294
(lp295
S'int'
p296
aS'unsigned int'
p297
asS'ispunct_l'
p298
(lp299
S'int'
p300
aS'int'
p301
aS'struct __locale_struct *'
p302
asS'treefails'
p303
(lp304
S'void'
p305
aS'const struct tree *'
p306
aS'const struct trie *'
p307
aS'struct trie *'
p308
asS'do_lstat'
p309
(lp310
S'int'
p311
aS'const char *'
p312
aS'struct stat *'
p313
asS'wcstoq'
p314
(lp315
S'long long'
p316
aS'const int *restrict'
p317
aS'int **restrict'
p318
aS'int'
p319
asS're_match_2'
p320
(lp321
S'int'
p322
aS'struct re_pattern_buffer *'
p323
aS'const char *'
p324
aS'int'
p325
aS'const char *'
p326
aS'int'
p327
aS'int'
p328
aS'struct re_registers *'
p329
aS'int'
p330
asS'sigignore'
p331
(lp332
S'int'
p333
aS'int'
p334
asS'wcstok'
p335
(lp336
S'int *'
p337
aS'int *restrict'
p338
aS'const int *restrict'
p339
aS'int **restrict'
p340
asS'brk'
p341
(lp342
S'int'
p343
aS'void *'
p344
asS'printf'
p345
(lp346
S'int'
p347
aS'const char *restrict'
p348
asS'wcstod'
p349
(lp350
S'double'
p351
aS'const int *restrict'
p352
aS'int **restrict'
p353
asS'wcstof'
p354
(lp355
S'float'
p356
aS'const int *restrict'
p357
aS'int **restrict'
p358
asS'getchar'
p359
(lp360
S'int'
p361
asS'build_equiv_class'
p362
(lp363
S'reg_errcode_t'
p364
aS'int'
p365
aS'const unsigned char *'
p366
asS'do_open'
p367
(lp368
S'int'
p369
aS'const char *'
p370
aS'int'
p371
asS'fputs_unlocked'
p372
(lp373
S'int'
p374
aS'const char *restrict'
p375
aS'struct _IO_FILE *restrict'
p376
asS'getwchar_unlocked'
p377
(lp378
S'unsigned int'
p379
asS'isblank_l'
p380
(lp381
S'int'
p382
aS'int'
p383
aS'struct __locale_struct *'
p384
asS'_getopt_initialize'
p385
(lp386
S'const char *'
p387
aS'int'
p388
aS'char **'
p389
aS'const char *'
p390
aS'struct _getopt_data *'
p391
aS'int'
p392
asS'safe_read'
p393
(lp394
S'unsigned long'
p395
aS'int'
p396
aS'void *'
p397
aS'unsigned long'
p398
asS'ftello64'
p399
(lp400
S'long'
p401
aS'struct _IO_FILE *'
p402
asS'hash_get_n_entries'
p403
(lp404
S'unsigned long'
p405
aS'const int *'
p406
asS'eaccess'
p407
(lp408
S'int'
p409
aS'const char *'
p410
aS'int'
p411
asS'__libc_current_sigrtmax'
p412
(lp413
S'int'
p414
asS'sigaddset'
p415
(lp416
S'int'
p417
aS'__sigset_t *'
p418
aS'int'
p419
asS'do_stat'
p420
(lp421
S'int'
p422
aS'const char *'
p423
aS'struct stat *'
p424
asS'wcstoll_l'
p425
(lp426
S'long long'
p427
aS'const int *restrict'
p428
aS'int **restrict'
p429
aS'int'
p430
aS'struct __locale_struct *'
p431
asS'pthread_sigmask'
p432
(lp433
S'int'
p434
aS'int'
p435
aS'const __sigset_t *restrict'
p436
aS'__sigset_t *restrict'
p437
asS'wcstoull_l'
p438
(lp439
S'unsigned long long'
p440
aS'const int *restrict'
p441
aS'int **restrict'
p442
aS'int'
p443
aS'struct __locale_struct *'
p444
asS'set_quoting_flags'
p445
(lp446
S'int'
p447
aS'struct quoting_options *'
p448
aS'int'
p449
asS'_g_log_fallback_handler'
p450
(lp451
S'void'
p452
aS'const int *'
p453
aS'GLogLevelFlags'
p454
aS'const int *'
p455
aS'int'
p456
asS'strerror'
p457
(lp458
S'char *'
p459
aS'int'
p460
asS'hash_compare_strings'
p461
(lp462
S'_Bool'
p463
aS'const void *'
p464
aS'const void *'
p465
asS'utimensat'
p466
(lp467
S'int'
p468
aS'int'
p469
aS'const char *'
p470
aS'struct timespec const[2]'
p471
aS'int'
p472
asS'call_addfn'
p473
(lp474
S'void'
p475
aS'struct exclude *'
p476
aS'const char *'
p477
aS'int'
p478
aS'void *'
p479
asS'fnmatch'
p480
(lp481
S'int'
p482
aS'const char *'
p483
aS'const char *'
p484
aS'int'
p485
asS'pcre16_utf16_to_host_byte_order'
p486
(lp487
S'int'
p488
aS'unsigned short *'
p489
aS'const unsigned short *'
p490
aS'int'
p491
aS'int *'
p492
aS'int'
p493
asS'is_device_mode'
p494
(lp495
S'_Bool'
p496
aS'unsigned int'
p497
asS'internal_fnwmatch'
p498
(lp499
S'int'
p500
aS'const int *'
p501
aS'const int *'
p502
aS'const int *'
p503
aS'_Bool'
p504
aS'int'
p505
asS'ttyname_r'
p506
(lp507
S'int'
p508
aS'int'
p509
aS'char *'
p510
aS'unsigned long'
p511
asS'test_stat_func'
p512
(lp513
S'int'
p514
asS'using_simple_locale'
p515
(lp516
S'_Bool'
p517
asS'pthread_rwlockattr_setkind_np'
p518
(lp519
S'int'
p520
aS'pthread_rwlockattr_t *'
p521
aS'int'
p522
asS'c_isgraph'
p523
(lp524
S'int'
p525
asS'getgroups'
p526
(lp527
S'int'
p528
aS'int'
p529
aS'unsigned int []'
p530
asS'pcre_dfa_exec'
p531
(lp532
S'int'
p533
aS'const struct real_pcre *'
p534
aS'const struct pcre_extra *'
p535
aS'const char *'
p536
aS'int'
p537
aS'int'
p538
aS'int'
p539
aS'int *'
p540
aS'int'
p541
aS'int *'
p542
aS'int'
p543
asS'verify'
p544
(lp545
S'int'
p546
asS'lrand48'
p547
(lp548
S'long'
p549
asS'memfrob'
p550
(lp551
S'void *'
p552
aS'void *'
p553
aS'unsigned long'
p554
asS'__fxstatat'
p555
(lp556
S'int'
p557
aS'int'
p558
aS'int'
p559
aS'const char *'
p560
aS'struct stat *'
p561
aS'int'
p562
asS'rewind'
p563
(lp564
S'void'
p565
aS'struct _IO_FILE *'
p566
asS'wcsrchr'
p567
(lp568
S'int *'
p569
aS'const int *'
p570
aS'int'
p571
asS'__pthread_register_cancel'
p572
(lp573
S'void'
p574
aS'__pthread_unwind_buf_t *'
p575
asS'free_entry'
p576
(lp577
S'void'
p578
aS'int *'
p579
aS'struct hash_entry *'
p580
asS'open64'
p581
(lp582
S'int'
p583
aS'const char *'
p584
aS'int'
p585
asS'openat'
p586
(lp587
S'int'
p588
aS'int'
p589
aS'const char *'
p590
aS'int'
p591
asS'pwrite64'
p592
(lp593
S'long'
p594
aS'int'
p595
aS'const void *'
p596
aS'unsigned long'
p597
aS'long'
p598
asS'setkey'
p599
(lp600
S'void'
p601
aS'const char *'
p602
asS'INT_REMAINDER_OVERFLOW'
p603
(lp604
S'int'
p605
asS'valloc'
p606
(lp607
S'void *'
p608
aS'unsigned long'
p609
asS'at_quick_exit'
p610
(lp611
S'int'
p612
aS'void (*)(void)'
p613
asS'posix_fallocate64'
p614
(lp615
S'int'
p616
aS'int'
p617
aS'long'
p618
aS'long'
p619
asS'pthread_rwlockattr_getpshared'
p620
(lp621
S'int'
p622
aS'const pthread_rwlockattr_t *restrict'
p623
aS'int *restrict'
p624
asS'pthread_mutexattr_getprioceiling'
p625
(lp626
S'int'
p627
aS'const pthread_mutexattr_t *restrict'
p628
aS'int *restrict'
p629
asS'ext_match'
p630
(lp631
S'int'
p632
aS'int'
p633
aS'const char *'
p634
aS'const char *'
p635
aS'const char *'
p636
aS'_Bool'
p637
aS'int'
p638
asS'sigdelset'
p639
(lp640
S'int'
p641
aS'__sigset_t *'
p642
aS'int'
p643
asS'strerror_r'
p644
(lp645
S'char *'
p646
aS'int'
p647
aS'char *'
p648
aS'unsigned long'
p649
asS'iscntrl'
p650
(lp651
S'int'
p652
aS'int'
p653
asS'get_nondigit_option'
p654
(lp655
S'int'
p656
aS'int'
p657
aS'char *const *'
p658
aS'long *'
p659
asS'treedelta'
p660
(lp661
S'void'
p662
aS'const struct tree *'
p663
aS'unsigned int'
p664
aS'unsigned char []'
p665
asS'c_isblank'
p666
(lp667
S'int'
p668
asS'strerror_l'
p669
(lp670
S'char *'
p671
aS'int'
p672
aS'struct __locale_struct *'
p673
asS'setrlimit64'
p674
(lp675
S'int'
p676
aS'enum __rlimit_resource'
p677
aS'const struct rlimit64 *'
p678
asS'strtouq'
p679
(lp680
S'unsigned long long'
p681
aS'const char *restrict'
p682
aS'char **restrict'
p683
aS'int'
p684
asS'btowc'
p685
(lp686
S'unsigned int'
p687
aS'int'
p688
asS'strtoul'
p689
(lp690
S'unsigned long'
p691
aS'const char *restrict'
p692
aS'char **restrict'
p693
aS'int'
p694
asS'g_info'
p695
(lp696
S'void'
p697
aS'const int *'
p698
asS'string_compare'
p699
(lp700
S'_Bool'
p701
aS'const void *'
p702
aS'const void *'
p703
asS'strtol_l'
p704
(lp705
S'long'
p706
aS'const char *restrict'
p707
aS'char **restrict'
p708
aS'int'
p709
aS'struct __locale_struct *'
p710
asS'fwrite'
p711
(lp712
S'unsigned long'
p713
aS'const void *restrict'
p714
aS'unsigned long'
p715
aS'unsigned long'
p716
aS'struct _IO_FILE *restrict'
p717
asS'openat64'
p718
(lp719
S'int'
p720
aS'int'
p721
aS'const char *'
p722
aS'int'
p723
asS'setgid'
p724
(lp725
S'int'
p726
aS'unsigned int'
p727
asS'zap_nuls'
p728
(lp729
S'void'
p730
aS'char *'
p731
aS'char *'
p732
aS'char'
p733
asS'insert_new'
p734
(lp735
S'void'
p736
aS'int *'
p737
aS'const void *'
p738
asS'sched_get_priority_min'
p739
(lp740
S'int'
p741
aS'int'
p742
asS'fchown'
p743
(lp744
S'int'
p745
aS'int'
p746
aS'unsigned int'
p747
aS'unsigned int'
p748
asS'uinttostr'
p749
(lp750
S'int'
p751
asS'test_float'
p752
(lp753
S'void'
p754
asS'vasnprintf'
p755
(lp756
S'int'
p757
asS'get_seed'
p758
(lp759
S'int'
p760
aS'const char *'
p761
aS'unsigned int *'
p762
asS'vfwscanf'
p763
(lp764
S'int'
p765
aS'struct _IO_FILE *restrict'
p766
aS'const int *restrict'
p767
aS'struct __va_list_tag [1]'
p768
asS'quoting_options_from_style'
p769
(lp770
S'struct quoting_options'
p771
aS'enum quoting_style'
p772
asS'string_hash'
p773
(lp774
S'unsigned long'
p775
aS'const void *'
p776
asS'gcvt'
p777
(lp778
S'char *'
p779
aS'double'
p780
aS'int'
p781
aS'char *'
p782
asS'pthread_cancel'
p783
(lp784
S'int'
p785
aS'unsigned long'
p786
asS'string_hasher'
p787
(lp788
S'unsigned long'
p789
aS'const void *'
p790
aS'unsigned long'
p791
asS'MAX'
p792
(lp793
S'int'
p794
asS'test_all'
p795
(lp796
S'void'
p797
asS'vsscanf'
p798
(lp799
S'int'
p800
aS'const char *restrict'
p801
aS'const char *restrict'
p802
aS'struct __va_list_tag [1]'
p803
asS'calc_first'
p804
(lp805
S'reg_errcode_t'
p806
aS'void *'
p807
aS'int *'
p808
asS'pthread_attr_setstack'
p809
(lp810
S'int'
p811
aS'union pthread_attr_t *'
p812
aS'void *'
p813
aS'unsigned long'
p814
asS'fileno_unlocked'
p815
(lp816
S'int'
p817
aS'struct _IO_FILE *'
p818
asS'gsignal'
p819
(lp820
S'int'
p821
aS'int'
p822
asS'g_date_time_add_hours'
p823
(lp824
S'struct _GDateTime *'
p825
aS'struct _GDateTime *'
p826
aS'int'
p827
asS'putwc_unlocked'
p828
(lp829
S'unsigned int'
p830
aS'int'
p831
aS'struct _IO_FILE *'
p832
asS'close_stdout_set_file_name'
p833
(lp834
S'void'
p835
aS'const char *'
p836
asS'posix_fadvise'
p837
(lp838
S'int'
p839
aS'int'
p840
aS'long'
p841
aS'long'
p842
aS'int'
p843
asS'sched_get_priority_max'
p844
(lp845
S'int'
p846
aS'int'
p847
asS'vswscanf'
p848
(lp849
S'int'
p850
aS'const int *restrict'
p851
aS'const int *restrict'
p852
aS'struct __va_list_tag [1]'
p853
asS'sprintf'
p854
(lp855
S'int'
p856
aS'char *restrict'
p857
aS'const char *restrict'
p858
asS'__ctype_b_loc'
p859
(lp860
S'const unsigned short **'
p861
asS'iswspace_l'
p862
(lp863
S'int'
p864
aS'unsigned int'
p865
aS'struct __locale_struct *'
p866
asS'pthread_rwlock_destroy'
p867
(lp868
S'int'
p869
aS'pthread_rwlock_t *'
p870
asS'pcre16_get_stringtable_entries'
p871
(lp872
S'int'
p873
aS'const struct real_pcre16 *'
p874
aS'const unsigned short *'
p875
aS'unsigned short **'
p876
aS'unsigned short **'
p877
asS'catgets'
p878
(lp879
S'char *'
p880
aS'void *'
p881
aS'int'
p882
aS'int'
p883
aS'const char *'
p884
asS'strcspn'
p885
(lp886
S'unsigned long'
p887
aS'const char *'
p888
aS'const char *'
p889
asS'wcschrnul'
p890
(lp891
S'int *'
p892
aS'const int *'
p893
aS'int'
p894
asS'free'
p895
(lp896
S'void'
p897
aS'void *'
p898
asS'fts_alloc'
p899
(lp900
S'int *'
p901
aS'int *'
p902
aS'const char *'
p903
aS'unsigned long'
p904
asS'hash_rehash'
p905
(lp906
S'int'
p907
aS'int *'
p908
aS'unsigned long'
p909
asS'__strtol_internal'
p910
(lp911
S'long'
p912
aS'const char *'
p913
aS'char **'
p914
aS'int'
p915
aS'int'
p916
asS'pcre_assign_jit_stack'
p917
(lp918
S'void'
p919
aS'struct pcre_extra *'
p920
aS'struct real_pcre_jit_stack *(*)(void *)'
p921
aS'void *'
p922
asS'fdopendir'
p923
(lp924
S'struct __dirstream *'
p925
aS'int'
p926
asS'free_exclude'
p927
(lp928
S'void'
p929
aS'struct exclude *'
p930
asS'pcre16_free_substring_list'
p931
(lp932
S'void'
p933
aS'const unsigned short **'
p934
asS'rand'
p935
(lp936
S'int'
p937
asS'add_utf8_anychar'
p938
(lp939
S'void'
p940
asS'print_end_colorize'
p941
(lp942
S'void'
p943
aS'const char *'
p944
asS'strncpy'
p945
(lp946
S'char *'
p947
aS'char *restrict'
p948
aS'const char *restrict'
p949
aS'unsigned long'
p950
asS'pcre_free_substring'
p951
(lp952
S'void'
p953
aS'const char *'
p954
asS'isalnum'
p955
(lp956
S'int'
p957
aS'int'
p958
asS'dcgettext'
p959
(lp960
S'char *'
p961
aS'const char *'
p962
aS'const char *'
p963
aS'int'
p964
asS'qsort'
p965
(lp966
S'void'
p967
aS'void *'
p968
aS'unsigned long'
p969
aS'unsigned long'
p970
aS'int (*)(const void *, const void *)'
p971
asS'rpl_fdopendir'
p972
(lp973
S'struct __dirstream *'
p974
aS'int'
p975
asS'faccessat'
p976
(lp977
S'int'
p978
aS'int'
p979
aS'const char *'
p980
aS'int'
p981
aS'int'
p982
asS'isalpha'
p983
(lp984
S'int'
p985
aS'int'
p986
asS'memcmp'
p987
(lp988
S'int'
p989
aS'const void *'
p990
aS'const void *'
p991
aS'unsigned long'
p992
asS'charclass_context'
p993
(lp994
S'int'
p995
aS'unsigned int [0]'
p996
asS'dprintf'
p997
(lp998
S'int'
p999
aS'int'
p1000
aS'const char *restrict'
p1001
asS'ecvt_r'
p1002
(lp1003
S'int'
p1004
aS'double'
p1005
aS'int'
p1006
aS'int *restrict'
p1007
aS'int *restrict'
p1008
aS'char *restrict'
p1009
aS'unsigned long'
p1010
asS'SAME_INODE'
p1011
(lp1012
S'int'
p1013
asS'setbuffer'
p1014
(lp1015
S'void'
p1016
aS'struct _IO_FILE *restrict'
p1017
aS'char *restrict'
p1018
aS'unsigned long'
p1019
asS'sync'
p1020
(lp1021
S'void'
p1022
asS'fts_palloc'
p1023
(lp1024
S'_Bool'
p1025
aS'int *'
p1026
aS'unsigned long'
p1027
asS'mkostemp'
p1028
(lp1029
S'int'
p1030
aS'char *'
p1031
aS'int'
p1032
asS'scandirat64'
p1033
(lp1034
S'int'
p1035
aS'int'
p1036
aS'const char *restrict'
p1037
aS'struct dirent64 ***restrict'
p1038
aS'int (*)(const struct dirent64 *)'
p1039
aS'int (*)(const struct dirent64 **, const struct dirent64 **)'
p1040
asS'isascii'
p1041
(lp1042
S'int'
p1043
aS'int'
p1044
asS'safe_alloca'
p1045
(lp1046
S'int'
p1047
asS'to_uchar'
p1048
(lp1049
S'unsigned char'
p1050
aS'char'
p1051
asS'fstat64'
p1052
(lp1053
S'int'
p1054
aS'int'
p1055
aS'struct stat64 *'
p1056
asS'mknod'
p1057
(lp1058
S'int'
p1059
aS'const char *'
p1060
aS'unsigned int'
p1061
aS'unsigned long'
p1062
asS'dfainit'
p1063
(lp1064
S'void'
p1065
aS'struct dfa *'
p1066
asS'sigwait'
p1067
(lp1068
S'int'
p1069
aS'const __sigset_t *restrict'
p1070
aS'int *restrict'
p1071
asS'doChar'
p1072
(lp1073
S'char'
p1074
asS'pthread_once'
p1075
(lp1076
S'int'
p1077
aS'int *'
p1078
aS'void (*)(void)'
p1079
asS'pthread_atfork'
p1080
(lp1081
S'int'
p1082
aS'void (*)(void)'
p1083
aS'void (*)(void)'
p1084
aS'void (*)(void)'
p1085
asS'iswgraph'
p1086
(lp1087
S'int'
p1088
aS'unsigned int'
p1089
asS'putwchar'
p1090
(lp1091
S'unsigned int'
p1092
aS'int'
p1093
asS'get_current_dir_name'
p1094
(lp1095
S'char *'
p1096
asS'getrlimit64'
p1097
(lp1098
S'int'
p1099
aS'enum __rlimit_resource'
p1100
aS'struct rlimit64 *'
p1101
asS'grepdesc'
p1102
(lp1103
S'_Bool'
p1104
aS'int'
p1105
aS'_Bool'
p1106
asS'iswdigit_l'
p1107
(lp1108
S'int'
p1109
aS'unsigned int'
p1110
aS'struct __locale_struct *'
p1111
asS'iswalpha'
p1112
(lp1113
S'int'
p1114
aS'unsigned int'
p1115
asS'_getopt_long_only_r'
p1116
(lp1117
S'int'
p1118
aS'int'
p1119
aS'char **'
p1120
aS'const char *'
p1121
aS'const struct option *'
p1122
aS'int *'
p1123
aS'struct _getopt_data *'
p1124
asS'size_overflow_p'
p1125
(lp1126
S'int'
p1127
asS'timer_getoverrun'
p1128
(lp1129
S'int'
p1130
aS'void *'
p1131
asS'catopen'
p1132
(lp1133
S'void *'
p1134
aS'const char *'
p1135
aS'int'
p1136
asS'hash_get_n_buckets'
p1137
(lp1138
S'unsigned long'
p1139
aS'const int *'
p1140
asS'pthread_spin_unlock'
p1141
(lp1142
S'int'
p1143
aS'volatile int *'
p1144
asS'getwc_unlocked'
p1145
(lp1146
S'unsigned int'
p1147
aS'struct _IO_FILE *'
p1148
asS'pthread_rwlock_tryrdlock'
p1149
(lp1150
S'int'
p1151
aS'pthread_rwlock_t *'
p1152
asS'alarm'
p1153
(lp1154
S'unsigned int'
p1155
aS'unsigned int'
p1156
asS'readdir64_r'
p1157
(lp1158
S'int'
p1159
aS'struct __dirstream *restrict'
p1160
aS'struct dirent64 *restrict'
p1161
aS'struct dirent64 **restrict'
p1162
asS'fseeko64'
p1163
(lp1164
S'int'
p1165
aS'struct _IO_FILE *'
p1166
aS'long'
p1167
aS'int'
p1168
asS'xstrtol'
p1169
(lp1170
S'int'
p1171
aS'const char *'
p1172
aS'char **'
p1173
aS'int'
p1174
aS'long *'
p1175
aS'const char *'
p1176
asS'setlinebuf'
p1177
(lp1178
S'void'
p1179
aS'struct _IO_FILE *'
p1180
asS'setvbuf'
p1181
(lp1182
S'int'
p1183
aS'struct _IO_FILE *restrict'
p1184
aS'char *restrict'
p1185
aS'int'
p1186
aS'unsigned long'
p1187
asS'print_filename'
p1188
(lp1189
S'void'
p1190
asS'xnmalloc'
p1191
(lp1192
S'int'
p1193
asS'pthread_getattr_np'
p1194
(lp1195
S'int'
p1196
aS'unsigned long'
p1197
aS'union pthread_attr_t *'
p1198
asS'a64l'
p1199
(lp1200
S'long'
p1201
aS'const char *'
p1202
asS'random'
p1203
(lp1204
S'long'
p1205
asS'__xmknodat'
p1206
(lp1207
S'int'
p1208
aS'int'
p1209
aS'int'
p1210
aS'const char *'
p1211
aS'unsigned int'
p1212
aS'unsigned long *'
p1213
asS'find_non_slash'
p1214
(lp1215
S'char *'
p1216
aS'const char *'
p1217
asS'color_cap_mt_fct'
p1218
(lp1219
S'void'
p1220
asS'cwd_advance_fd'
p1221
(lp1222
S'void'
p1223
aS'int *'
p1224
aS'int'
p1225
aS'_Bool'
p1226
asS'opendir_safer'
p1227
(lp1228
S'int *'
p1229
aS'const char *'
p1230
asS'fts_read'
p1231
(lp1232
S'int *'
p1233
aS'int *'
p1234
asS'xalloc_die'
p1235
(lp1236
S'int'
p1237
asS'__underflow'
p1238
(lp1239
S'int'
p1240
aS'struct _IO_FILE *'
p1241
asS'glthread_recursive_lock_init_multithreaded'
p1242
(lp1243
S'int'
p1244
aS'int *'
p1245
asS'g_getenv'
p1246
(lp1247
S'const int *'
p1248
aS'const int *'
p1249
asS'fgetpos64'
p1250
(lp1251
S'int'
p1252
aS'struct _IO_FILE *restrict'
p1253
aS'_G_fpos64_t *restrict'
p1254
asS'lockf64'
p1255
(lp1256
S'int'
p1257
aS'int'
p1258
aS'int'
p1259
aS'long'
p1260
asS'kwsincr'
p1261
(lp1262
S'void'
p1263
aS'struct kwset *'
p1264
aS'const char *'
p1265
aS'unsigned long'
p1266
asS'AD_compare'
p1267
(lp1268
S'_Bool'
p1269
aS'const void *'
p1270
aS'const void *'
p1271
asS'xmem_cd_iconv'
p1272
(lp1273
S'int'
p1274
aS'const char *'
p1275
aS'int'
p1276
aS'int'
p1277
aS'char **'
p1278
aS'int *'
p1279
asS'wmemset'
p1280
(lp1281
S'int *'
p1282
aS'int *'
p1283
aS'int'
p1284
aS'unsigned long'
p1285
asS'iswctype'
p1286
(lp1287
S'int'
p1288
aS'unsigned int'
p1289
aS'unsigned long'
p1290
asS'dup2'
p1291
(lp1292
S'int'
p1293
aS'int'
p1294
aS'int'
p1295
asS'_obstack_allocated_p'
p1296
(lp1297
S'int'
p1298
aS'struct obstack *'
p1299
aS'void *'
p1300
asS'xmemdup'
p1301
(lp1302
S'void *'
p1303
aS'const void *'
p1304
aS'unsigned long'
p1305
asS'rawmemchr'
p1306
(lp1307
S'void *'
p1308
aS'const void *'
p1309
aS'int'
p1310
asS'pthread_mutexattr_setrobust'
p1311
(lp1312
S'int'
p1313
aS'pthread_mutexattr_t *'
p1314
aS'int'
p1315
asS'g_message'
p1316
(lp1317
S'void'
p1318
aS'const int *'
p1319
asS'ptsname_r'
p1320
(lp1321
S'int'
p1322
aS'int'
p1323
aS'char *'
p1324
aS'unsigned long'
p1325
asS'addtok_mb'
p1326
(lp1327
S'void'
p1328
aS'long'
p1329
aS'int'
p1330
asS'sigwaitinfo'
p1331
(lp1332
S'int'
p1333
aS'const __sigset_t *restrict'
p1334
aS'siginfo_t *restrict'
p1335
asS'perror'
p1336
(lp1337
S'void'
p1338
aS'const char *'
p1339
asS'srandom'
p1340
(lp1341
S'void'
p1342
aS'unsigned int'
p1343
asS'sigrelse'
p1344
(lp1345
S'int'
p1346
aS'int'
p1347
asS'_tolower'
p1348
(lp1349
S'int'
p1350
aS'int'
p1351
asS'fgetwc'
p1352
(lp1353
S'unsigned int'
p1354
aS'struct _IO_FILE *'
p1355
asS'pr_sgr_start_if'
p1356
(lp1357
S'void'
p1358
aS'const char *'
p1359
asS'dysize'
p1360
(lp1361
S'int'
p1362
aS'int'
p1363
asS'dfaoptimize'
p1364
(lp1365
S'void'
p1366
aS'struct dfa *'
p1367
asS'Acompile'
p1368
(lp1369
S'void'
p1370
aS'const char *'
p1371
aS'unsigned long'
p1372
asS'fgetws'
p1373
(lp1374
S'int *'
p1375
aS'int *restrict'
p1376
aS'int'
p1377
aS'struct _IO_FILE *restrict'
p1378
asS'strncmp'
p1379
(lp1380
S'int'
p1381
aS'const char *'
p1382
aS'const char *'
p1383
aS'unsigned long'
p1384
asS'add_exclude_fp'
p1385
(lp1386
S'int'
p1387
aS'void (*)(struct exclude *, const char *, int, void *)'
p1388
aS'struct exclude *'
p1389
aS'struct _IO_FILE *'
p1390
aS'int'
p1391
aS'char'
p1392
aS'void *'
p1393
asS'mkdtemp'
p1394
(lp1395
S'char *'
p1396
aS'char *'
p1397
asS'pthread_attr_getinheritsched'
p1398
(lp1399
S'int'
p1400
aS'const union pthread_attr_t *restrict'
p1401
aS'int *restrict'
p1402
asS'strcat'
p1403
(lp1404
S'char *'
p1405
aS'char *restrict'
p1406
aS'const char *restrict'
p1407
asS'putwc'
p1408
(lp1409
S'unsigned int'
p1410
aS'int'
p1411
aS'struct _IO_FILE *'
p1412
asS'g_warning'
p1413
(lp1414
S'void'
p1415
aS'const int *'
p1416
asS'pthread_barrier_wait'
p1417
(lp1418
S'int'
p1419
aS'pthread_barrier_t *'
p1420
asS'hash_free'
p1421
(lp1422
S'void'
p1423
aS'int *'
p1424
asS'fgetpos'
p1425
(lp1426
S'int'
p1427
aS'struct _IO_FILE *restrict'
p1428
aS'_G_fpos_t *restrict'
p1429
asS'pcre_refcount'
p1430
(lp1431
S'int'
p1432
aS'struct real_pcre *'
p1433
aS'int'
p1434
asS'posix_memalign'
p1435
(lp1436
S'int'
p1437
aS'void **'
p1438
aS'unsigned long'
p1439
aS'unsigned long'
p1440
asS'_IO_padn'
p1441
(lp1442
S'long'
p1443
aS'struct _IO_FILE *'
p1444
aS'int'
p1445
aS'long'
p1446
asS'print_start_colorize'
p1447
(lp1448
S'void'
p1449
aS'const char *'
p1450
aS'const char *'
p1451
asS're_set_syntax'
p1452
(lp1453
S'unsigned long'
p1454
aS'unsigned long'
p1455
asS'freelocale'
p1456
(lp1457
S'void'
p1458
aS'struct __locale_struct *'
p1459
asS'__overflow'
p1460
(lp1461
S'int'
p1462
aS'struct _IO_FILE *'
p1463
aS'int'
p1464
asS'timelocal'
p1465
(lp1466
S'long'
p1467
aS'struct tm *'
p1468
asS'seed48_r'
p1469
(lp1470
S'int'
p1471
aS'unsigned short [3]'
p1472
aS'struct drand48_data *'
p1473
asS'fstatat'
p1474
(lp1475
S'int'
p1476
aS'int'
p1477
aS'const char *restrict'
p1478
aS'struct stat *restrict'
p1479
aS'int'
p1480
asS're_match'
p1481
(lp1482
S'int'
p1483
aS'struct re_pattern_buffer *'
p1484
aS'const char *'
p1485
aS'int'
p1486
aS'int'
p1487
aS'struct re_registers *'
p1488
asS'grepfile'
p1489
(lp1490
S'_Bool'
p1491
aS'int'
p1492
aS'const char *'
p1493
aS'_Bool'
p1494
aS'_Bool'
p1495
asS'xmalloc'
p1496
(lp1497
S'int'
p1498
asS'wcstoumax'
p1499
(lp1500
S'unsigned long'
p1501
aS'const int *restrict'
p1502
aS'int **restrict'
p1503
aS'int'
p1504
asS'__tolower_l'
p1505
(lp1506
S'int'
p1507
aS'int'
p1508
aS'struct __locale_struct *'
p1509
asS'strdup'
p1510
(lp1511
S'char *'
p1512
aS'const char *'
p1513
asS'pthread_spin_init'
p1514
(lp1515
S'int'
p1516
aS'volatile int *'
p1517
aS'int'
p1518
asS'putw'
p1519
(lp1520
S'int'
p1521
aS'int'
p1522
aS'struct _IO_FILE *'
p1523
asS'S_ISPORT'
p1524
(lp1525
S'int'
p1526
asS'puts'
p1527
(lp1528
S'int'
p1529
aS'const char *'
p1530
asS'fallocate64'
p1531
(lp1532
S'int'
p1533
aS'int'
p1534
aS'int'
p1535
aS'long'
p1536
aS'long'
p1537
asS'gnu_dev_major'
p1538
(lp1539
S'unsigned int'
p1540
aS'unsigned long long'
p1541
asS'argmatch_to_argument'
p1542
(lp1543
S'const char *'
p1544
aS'const char *'
p1545
aS'const char *const *'
p1546
aS'const char *'
p1547
aS'unsigned long'
p1548
asS'putc'
p1549
(lp1550
S'int'
p1551
aS'int'
p1552
aS'struct _IO_FILE *'
p1553
asS'bmexec_trans'
p1554
(lp1555
S'unsigned long'
p1556
aS'struct kwset *'
p1557
aS'const char *'
p1558
aS'unsigned long'
p1559
asS'xtimes'
p1560
(lp1561
S'int'
p1562
asS'proper_name'
p1563
(lp1564
S'const char *'
p1565
aS'const char *'
p1566
asS'lchown'
p1567
(lp1568
S'int'
p1569
aS'const char *'
p1570
aS'unsigned int'
p1571
aS'unsigned int'
p1572
asS'pthread_setaffinity_np'
p1573
(lp1574
S'int'
p1575
aS'unsigned long'
p1576
aS'unsigned long'
p1577
aS'const cpu_set_t *'
p1578
asS'quotearg_style_mem'
p1579
(lp1580
S'char *'
p1581
aS'enum quoting_style'
p1582
aS'const char *'
p1583
aS'unsigned long'
p1584
asS'strsignal'
p1585
(lp1586
S'char *'
p1587
aS'int'
p1588
asS'mbsrtowcs'
p1589
(lp1590
S'unsigned long'
p1591
aS'int *restrict'
p1592
aS'const char **restrict'
p1593
aS'unsigned long'
p1594
aS'__mbstate_t *restrict'
p1595
asS'optimize_subexps'
p1596
(lp1597
S'reg_errcode_t'
p1598
aS'void *'
p1599
aS'int *'
p1600
asS'pthread_attr_setschedparam'
p1601
(lp1602
S'int'
p1603
aS'union pthread_attr_t *restrict'
p1604
aS'const struct sched_param *restrict'
p1605
asS'category_to_name'
p1606
(lp1607
S'const char *'
p1608
aS'int'
p1609
asS'pthread_getname_np'
p1610
(lp1611
S'int'
p1612
aS'unsigned long'
p1613
aS'char *'
p1614
aS'unsigned long'
p1615
asS'pthread_mutex_destroy'
p1616
(lp1617
S'int'
p1618
aS'pthread_mutex_t *'
p1619
asS'TYPE_MINIMUM'
p1620
(lp1621
S'int'
p1622
asS'dup_cloexec'
p1623
(lp1624
S'int'
p1625
aS'int'
p1626
asS'gl_locale_name_posix'
p1627
(lp1628
S'const char *'
p1629
aS'int'
p1630
aS'const char *'
p1631
asS'sigisemptyset'
p1632
(lp1633
S'int'
p1634
aS'const __sigset_t *'
p1635
asS'clearenv'
p1636
(lp1637
S'int'
p1638
asS'add_exclude_file'
p1639
(lp1640
S'int'
p1641
aS'void (*)(struct exclude *, const char *, int)'
p1642
aS'struct exclude *'
p1643
aS'const char *'
p1644
aS'int'
p1645
aS'char'
p1646
asS'chdir_long'
p1647
(lp1648
S'int'
p1649
aS'char *'
p1650
asS'wcwidth'
p1651
(lp1652
S'int'
p1653
aS'int'
p1654
asS'state_separate_contexts'
p1655
(lp1656
S'int'
p1657
aS'const position_set *'
p1658
asS'bm_delta2_search'
p1659
(lp1660
S'_Bool'
p1661
aS'const char **'
p1662
aS'const char *'
p1663
aS'const char *'
p1664
aS'int'
p1665
aS'const char *'
p1666
aS'char'
p1667
aS'char'
p1668
aS'const unsigned char *'
p1669
aS'struct kwset *'
p1670
asS'__pthread_unwind_next'
p1671
(lp1672
S'void'
p1673
aS'__pthread_unwind_buf_t *'
p1674
asS'dngettext'
p1675
(lp1676
S'char *'
p1677
aS'const char *'
p1678
aS'const char *'
p1679
aS'const char *'
p1680
aS'unsigned long'
p1681
asS'raw_hasher'
p1682
(lp1683
S'unsigned long'
p1684
aS'const void *'
p1685
aS'unsigned long'
p1686
asS'init_dfa'
p1687
(lp1688
S'reg_errcode_t'
p1689
aS'int *'
p1690
aS'unsigned long'
p1691
asS'_gl_register_fd'
p1692
(lp1693
S'int'
p1694
aS'int'
p1695
aS'const char *'
p1696
asS'pcre16_jit_stack_free'
p1697
(lp1698
S'void'
p1699
aS'struct real_pcre16_jit_stack *'
p1700
asS'fnmatch_pattern_has_wildcards'
p1701
(lp1702
S'_Bool'
p1703
aS'const char *'
p1704
aS'int'
p1705
asS'getusershell'
p1706
(lp1707
S'char *'
p1708
asS'isgraph'
p1709
(lp1710
S'int'
p1711
aS'int'
p1712
asS'pthread_attr_getstack'
p1713
(lp1714
S'int'
p1715
aS'const union pthread_attr_t *restrict'
p1716
aS'void **restrict'
p1717
aS'unsigned long *restrict'
p1718
asS'__ctype_tolower_loc'
p1719
(lp1720
S'const int **'
p1721
asS'nl_langinfo'
p1722
(lp1723
S'char *'
p1724
aS'int'
p1725
asS'call_freefun'
p1726
(lp1727
S'void'
p1728
aS'struct obstack *'
p1729
aS'void *'
p1730
asS'clock_adjtime'
p1731
(lp1732
S'int'
p1733
aS'int'
p1734
aS'struct timex *'
p1735
asS'textbin_is_binary'
p1736
(lp1737
S'_Bool'
p1738
aS'enum textbin'
p1739
asS'free_cwd'
p1740
(lp1741
S'void'
p1742
aS'struct saved_cwd *'
p1743
asS'wcstombs'
p1744
(lp1745
S'unsigned long'
p1746
aS'char *restrict'
p1747
aS'const int *restrict'
p1748
aS'unsigned long'
p1749
asS'hash_do_for_each'
p1750
(lp1751
S'unsigned long'
p1752
aS'const int *'
p1753
aS'int'
p1754
aS'void *'
p1755
asS'iswcntrl_l'
p1756
(lp1757
S'int'
p1758
aS'unsigned int'
p1759
aS'struct __locale_struct *'
p1760
asS'print_line_middle'
p1761
(lp1762
S'const char *'
p1763
aS'const char *'
p1764
aS'const char *'
p1765
aS'const char *'
p1766
aS'const char *'
p1767
asS'nrand48'
p1768
(lp1769
S'long'
p1770
aS'unsigned short [3]'
p1771
asS'seekdir'
p1772
(lp1773
S'void'
p1774
aS'struct __dirstream *'
p1775
aS'long'
p1776
asS'nsubtoks'
p1777
(lp1778
S'unsigned long'
p1779
aS'unsigned long'
p1780
asS'IsConsoleHandle'
p1781
(lp1782
S'int'
p1783
aS'int'
p1784
asS'pthread_mutexattr_setprioceiling'
p1785
(lp1786
S'int'
p1787
aS'pthread_mutexattr_t *'
p1788
aS'int'
p1789
asS'setdomainname'
p1790
(lp1791
S'int'
p1792
aS'const char *'
p1793
aS'unsigned long'
p1794
asS'versionsort'
p1795
(lp1796
S'int'
p1797
aS'const struct dirent **'
p1798
aS'const struct dirent **'
p1799
asS'opendirat'
p1800
(lp1801
S'struct __dirstream *'
p1802
aS'int'
p1803
aS'const char *'
p1804
aS'int'
p1805
aS'int *'
p1806
asS'all_zeros'
p1807
(lp1808
S'_Bool'
p1809
aS'const char *'
p1810
aS'unsigned long'
p1811
asS'__lxstat'
p1812
(lp1813
S'int'
p1814
aS'int'
p1815
aS'const char *'
p1816
aS'struct stat *'
p1817
asS'pthread_condattr_destroy'
p1818
(lp1819
S'int'
p1820
aS'pthread_condattr_t *'
p1821
asS'hasevery'
p1822
(lp1823
S'int'
p1824
aS'const struct tree *'
p1825
aS'const struct tree *'
p1826
asS'transit_state'
p1827
(lp1828
S'long'
p1829
aS'struct dfa *'
p1830
aS'long'
p1831
aS'const unsigned char **'
p1832
aS'const unsigned char *'
p1833
asS'inboth'
p1834
(lp1835
S'char **'
p1836
aS'char **'
p1837
aS'char **'
p1838
asS'__argmatch_die'
p1839
(lp1840
S'void'
p1841
asS'fts_build'
p1842
(lp1843
S'int *'
p1844
aS'int *'
p1845
aS'int'
p1846
asS'tmpnam'
p1847
(lp1848
S'char *'
p1849
aS'char *'
p1850
asS'iswalpha_l'
p1851
(lp1852
S'int'
p1853
aS'unsigned int'
p1854
aS'struct __locale_struct *'
p1855
asS'quotearg_n_custom'
p1856
(lp1857
S'char *'
p1858
aS'int'
p1859
aS'const char *'
p1860
aS'const char *'
p1861
aS'const char *'
p1862
asS'dfaparse'
p1863
(lp1864
S'void'
p1865
aS'const char *'
p1866
aS'unsigned long'
p1867
aS'struct dfa *'
p1868
asS'gnu_dev_minor'
p1869
(lp1870
S'unsigned int'
p1871
aS'unsigned long long'
p1872
asS'daemon'
p1873
(lp1874
S'int'
p1875
aS'int'
p1876
aS'int'
p1877
asS'ctime'
p1878
(lp1879
S'char *'
p1880
aS'const long *'
p1881
asS'newlocale'
p1882
(lp1883
S'struct __locale_struct *'
p1884
aS'int'
p1885
aS'const char *'
p1886
aS'struct __locale_struct *'
p1887
asS'close_stdout'
p1888
(lp1889
S'void'
p1890
asS'freopen'
p1891
(lp1892
S'struct _IO_FILE *'
p1893
aS'const char *restrict'
p1894
aS'const char *restrict'
p1895
aS'struct _IO_FILE *restrict'
p1896
asS'hash_pjw'
p1897
(lp1898
S'int'
p1899
aS'const void *'
p1900
aS'int'
p1901
asS'bsd_signal'
p1902
(lp1903
S'void (*)(int)'
p1904
aS'int'
p1905
aS'void (*)(int)'
p1906
asS'fread_unlocked'
p1907
(lp1908
S'unsigned long'
p1909
aS'void *restrict'
p1910
aS'unsigned long'
p1911
aS'unsigned long'
p1912
aS'struct _IO_FILE *restrict'
p1913
asS'fgetwc_unlocked'
p1914
(lp1915
S'unsigned int'
p1916
aS'struct _IO_FILE *'
p1917
asS'rotr16'
p1918
(lp1919
S'int'
p1920
asS'grep_command_line_arg'
p1921
(lp1922
S'_Bool'
p1923
aS'const char *'
p1924
asS'rpmatch'
p1925
(lp1926
S'int'
p1927
aS'const char *'
p1928
asS'SIZEOF'
p1929
(lp1930
S'int'
p1931
asS'mblen'
p1932
(lp1933
S'int'
p1934
aS'const char *'
p1935
aS'unsigned long'
p1936
asS'ctermid'
p1937
(lp1938
S'char *'
p1939
aS'char *'
p1940
asS'pthread_barrier_init'
p1941
(lp1942
S'int'
p1943
aS'pthread_barrier_t *restrict'
p1944
aS'const pthread_barrierattr_t *restrict'
p1945
aS'unsigned int'
p1946
asS'_IO_feof'
p1947
(lp1948
S'int'
p1949
aS'struct _IO_FILE *'
p1950
asS'pcre_get_stringtable_entries'
p1951
(lp1952
S'int'
p1953
aS'const struct real_pcre *'
p1954
aS'const char *'
p1955
aS'char **'
p1956
aS'char **'
p1957
asS'rpl_setenv'
p1958
(lp1959
S'int'
p1960
aS'const char *'
p1961
aS'const char *'
p1962
aS'int'
p1963
asS'pcre_study'
p1964
(lp1965
S'struct pcre_extra *'
p1966
aS'const struct real_pcre *'
p1967
aS'int'
p1968
aS'const char **'
p1969
asS'fts_maxarglen'
p1970
(lp1971
S'unsigned long'
p1972
aS'char *const *'
p1973
asS'test_locale_name_default'
p1974
(lp1975
S'void'
p1976
asS'sighold'
p1977
(lp1978
S'int'
p1979
aS'int'
p1980
asS'getpagesize'
p1981
(lp1982
S'int'
p1983
asS'fchmodat'
p1984
(lp1985
S'int'
p1986
aS'int'
p1987
aS'const char *'
p1988
aS'unsigned int'
p1989
aS'int'
p1990
asS'pthread_rwlock_trywrlock'
p1991
(lp1992
S'int'
p1993
aS'pthread_rwlock_t *'
p1994
asS'gmtime'
p1995
(lp1996
S'struct tm *'
p1997
aS'const long *'
p1998
asS'fgrep_to_grep_pattern'
p1999
(lp2000
S'void'
p2001
aS'unsigned long'
p2002
aS'const char *'
p2003
aS'unsigned long *'
p2004
aS'char **'
p2005
asS'fcloseall'
p2006
(lp2007
S'int'
p2008
asS'sigtimedwait'
p2009
(lp2010
S'int'
p2011
aS'const __sigset_t *restrict'
p2012
aS'siginfo_t *restrict'
p2013
aS'const struct timespec *restrict'
p2014
asS'printf_parse'
p2015
(lp2016
S'int'
p2017
aS'const char *'
p2018
aS'int *'
p2019
aS'int *'
p2020
asS'guess_type'
p2021
(lp2022
S'File_type'
p2023
aS'char *'
p2024
aS'unsigned long'
p2025
asS'set_quoting_style'
p2026
(lp2027
S'void'
p2028
aS'struct quoting_options *'
p2029
aS'enum quoting_style'
p2030
asS'wcsftime_l'
p2031
(lp2032
S'unsigned long'
p2033
aS'int *restrict'
p2034
aS'unsigned long'
p2035
aS'const int *restrict'
p2036
aS'const struct tm *restrict'
p2037
aS'struct __locale_struct *'
p2038
asS're_set_registers'
p2039
(lp2040
S'void'
p2041
aS'struct re_pattern_buffer *'
p2042
aS'struct re_registers *'
p2043
aS'unsigned int'
p2044
aS'int *'
p2045
aS'int *'
p2046
asS'add_to_interval'
p2047
(lp2048
S'void'
p2049
aS'int'
p2050
aS'char'
p2051
asS'pthread_sigqueue'
p2052
(lp2053
S'int'
p2054
aS'unsigned long'
p2055
aS'int'
p2056
aS'const union sigval'
p2057
asS'iswdigit'
p2058
(lp2059
S'int'
p2060
aS'unsigned int'
p2061
asS'file_name_matches'
p2062
(lp2063
S'_Bool'
p2064
aS'const struct exclude_segment *'
p2065
aS'const char *'
p2066
aS'char *'
p2067
asS'iswpunct_l'
p2068
(lp2069
S'int'
p2070
aS'unsigned int'
p2071
aS'struct __locale_struct *'
p2072
asS'quotearg_custom'
p2073
(lp2074
S'char *'
p2075
aS'const char *'
p2076
aS'const char *'
p2077
aS'const char *'
p2078
asS'copyset'
p2079
(lp2080
S'void'
p2081
aS'unsigned int const[0]'
p2082
aS'unsigned int [0]'
p2083
asS'Fcompile'
p2084
(lp2085
S'void'
p2086
aS'const char *'
p2087
aS'unsigned long'
p2088
asS'lower_subexps'
p2089
(lp2090
S'reg_errcode_t'
p2091
aS'void *'
p2092
aS'int *'
p2093
asS'pcre_get_named_substring'
p2094
(lp2095
S'int'
p2096
aS'const struct real_pcre *'
p2097
aS'const char *'
p2098
aS'int *'
p2099
aS'int'
p2100
aS'const char *'
p2101
aS'const char **'
p2102
asS'argmatch_invalid'
p2103
(lp2104
S'void'
p2105
aS'const char *'
p2106
aS'const char *'
p2107
aS'int'
p2108
asS'getpgid'
p2109
(lp2110
S'int'
p2111
aS'int'
p2112
asS'check_matching_with_multibyte_ops'
p2113
(lp2114
S'int *'
p2115
aS'struct dfa *'
p2116
aS'long'
p2117
aS'const char *'
p2118
aS'unsigned int'
p2119
aS'unsigned long'
p2120
asS'pthread_cond_init'
p2121
(lp2122
S'int'
p2123
aS'pthread_cond_t *restrict'
p2124
aS'const pthread_condattr_t *restrict'
p2125
asS'gl_locale_name_thread_unsafe'
p2126
(lp2127
S'const char *'
p2128
aS'int'
p2129
aS'const char *'
p2130
asS'g_date_time_add_minutes'
p2131
(lp2132
S'struct _GDateTime *'
p2133
aS'struct _GDateTime *'
p2134
aS'int'
p2135
asS'towctrans'
p2136
(lp2137
S'unsigned int'
p2138
aS'unsigned int'
p2139
aS'const int *'
p2140
asS'pcre_get_stringnumber'
p2141
(lp2142
S'int'
p2143
aS'const struct real_pcre *'
p2144
aS'const char *'
p2145
asS'fork'
p2146
(lp2147
S'int'
p2148
asS'dfassbuild'
p2149
(lp2150
S'void'
p2151
aS'struct dfa *'
p2152
asS'pthread_condattr_getclock'
p2153
(lp2154
S'int'
p2155
aS'const pthread_condattr_t *restrict'
p2156
aS'int *restrict'
p2157
asS'resetmust'
p2158
(lp2159
S'void'
p2160
aS'struct must *'
p2161
asS'kwsexec'
p2162
(lp2163
S'int'
p2164
asS'pthread_setschedprio'
p2165
(lp2166
S'int'
p2167
aS'unsigned long'
p2168
aS'int'
p2169
asS'c_isprint'
p2170
(lp2171
S'int'
p2172
asS'_obstack_memory_used'
p2173
(lp2174
S'int'
p2175
aS'struct obstack *'
p2176
asS'pthread_mutex_unlock'
p2177
(lp2178
S'int'
p2179
aS'pthread_mutex_t *'
p2180
asS'reset'
p2181
(lp2182
S'_Bool'
p2183
aS'int'
p2184
aS'const struct stat *'
p2185
asS'pcre16_copy_named_substring'
p2186
(lp2187
S'int'
p2188
aS'const struct real_pcre16 *'
p2189
aS'const unsigned short *'
p2190
aS'int *'
p2191
aS'int'
p2192
aS'const unsigned short *'
p2193
aS'unsigned short *'
p2194
aS'int'
p2195
asS'rpl_dup'
p2196
(lp2197
S'int'
p2198
aS'int'
p2199
asS'sched_setscheduler'
p2200
(lp2201
S'int'
p2202
aS'int'
p2203
aS'int'
p2204
aS'const struct sched_param *'
p2205
asS'dfamusts'
p2206
(lp2207
S'struct dfamust *'
p2208
aS'const struct dfa *'
p2209
asS'_gl_unregister_fd'
p2210
(lp2211
S'void'
p2212
aS'int'
p2213
asS'uselocale'
p2214
(lp2215
S'struct __locale_struct *'
p2216
aS'struct __locale_struct *'
p2217
asS'psiginfo'
p2218
(lp2219
S'void'
p2220
aS'const siginfo_t *'
p2221
aS'const char *'
p2222
asS'trim'
p2223
(lp2224
S'int'
p2225
asS'free_exclude_segment'
p2226
(lp2227
S'void'
p2228
aS'struct exclude_segment *'
p2229
asS'syscall'
p2230
(lp2231
S'long'
p2232
aS'long'
p2233
asS'mbrtowc'
p2234
(lp2235
S'unsigned long'
p2236
aS'int *restrict'
p2237
aS'const char *restrict'
p2238
aS'unsigned long'
p2239
aS'__mbstate_t *restrict'
p2240
asS'ftello'
p2241
(lp2242
S'long'
p2243
aS'struct _IO_FILE *'
p2244
asS'quotearg_n_style'
p2245
(lp2246
S'char *'
p2247
aS'int'
p2248
aS'enum quoting_style'
p2249
aS'const char *'
p2250
asS'wctype'
p2251
(lp2252
S'unsigned long'
p2253
aS'const char *'
p2254
asS'initstate'
p2255
(lp2256
S'char *'
p2257
aS'unsigned int'
p2258
aS'char *'
p2259
aS'unsigned long'
p2260
asS'isatty'
p2261
(lp2262
S'int'
p2263
aS'int'
p2264
asS'xzalloc'
p2265
(lp2266
S'void *'
p2267
aS'unsigned long'
p2268
asS'enlist'
p2269
(lp2270
S'char **'
p2271
aS'char **'
p2272
aS'char *'
p2273
aS'unsigned long'
p2274
asS'getgid'
p2275
(lp2276
S'unsigned int'
p2277
asS'encrypt'
p2278
(lp2279
S'void'
p2280
aS'char *'
p2281
aS'int'
p2282
asS'fillbuf'
p2283
(lp2284
S'_Bool'
p2285
aS'unsigned long'
p2286
aS'const struct stat *'
p2287
asS'creat_safer'
p2288
(lp2289
S'int'
p2290
aS'const char *'
p2291
aS'unsigned int'
p2292
asS'c_isupper'
p2293
(lp2294
S'int'
p2295
asS'memmem'
p2296
(lp2297
S'void *'
p2298
aS'const void *'
p2299
aS'unsigned long'
p2300
aS'const void *'
p2301
aS'unsigned long'
p2302
asS'hash_reset_tuning'
p2303
(lp2304
S'void'
p2305
aS'int *'
p2306
asS'setpriority'
p2307
(lp2308
S'int'
p2309
aS'enum __priority_which'
p2310
aS'unsigned int'
p2311
aS'int'
p2312
asS'build_charclass'
p2313
(lp2314
S'reg_errcode_t'
p2315
aS'unsigned char *'
p2316
aS'int'
p2317
aS'const char *'
p2318
aS'unsigned long'
p2319
asS'g_critical'
p2320
(lp2321
S'void'
p2322
aS'const int *'
p2323
asS'truncate'
p2324
(lp2325
S'int'
p2326
aS'const char *'
p2327
aS'long'
p2328
asS'getegid'
p2329
(lp2330
S'unsigned int'
p2331
asS'pcre16_exec'
p2332
(lp2333
S'int'
p2334
aS'const struct real_pcre16 *'
p2335
aS'const struct pcre16_extra *'
p2336
aS'const unsigned short *'
p2337
aS'int'
p2338
aS'int'
p2339
aS'int'
p2340
aS'int *'
p2341
aS'int'
p2342
asS'xcalloc'
p2343
(lp2344
S'void *'
p2345
aS'unsigned long'
p2346
aS'unsigned long'
p2347
asS'dir_len'
p2348
(lp2349
S'unsigned long'
p2350
aS'const char *'
p2351
asS'hash_insert_if_absent'
p2352
(lp2353
S'int'
p2354
aS'int *'
p2355
aS'const void *'
p2356
aS'const void **'
p2357
asS'time'
p2358
(lp2359
S'long'
p2360
aS'long *'
p2361
asS'rpl_unsetenv'
p2362
(lp2363
S'int'
p2364
aS'const char *'
p2365
asS'scandir'
p2366
(lp2367
S'int'
p2368
aS'const char *restrict'
p2369
aS'struct dirent ***restrict'
p2370
aS'int (*)(const struct dirent *)'
p2371
aS'int (*)(const struct dirent **, const struct dirent **)'
p2372
asS'copytoks'
p2373
(lp2374
S'void'
p2375
aS'unsigned long'
p2376
aS'unsigned long'
p2377
asS'g_get_user_name'
p2378
(lp2379
S'const int *'
p2380
asS'revoke'
p2381
(lp2382
S'int'
p2383
aS'const char *'
p2384
asS'u8_uctomb_aux'
p2385
(lp2386
S'int'
p2387
aS'int *'
p2388
aS'int'
p2389
aS'int'
p2390
asS'iscntrl_l'
p2391
(lp2392
S'int'
p2393
aS'int'
p2394
aS'struct __locale_struct *'
p2395
asS'pcre16_refcount'
p2396
(lp2397
S'int'
p2398
aS'struct real_pcre16 *'
p2399
aS'int'
p2400
asS'pthread_barrier_destroy'
p2401
(lp2402
S'int'
p2403
aS'pthread_barrier_t *'
p2404
asS'freopen64'
p2405
(lp2406
S'struct _IO_FILE *'
p2407
aS'const char *restrict'
p2408
aS'const char *restrict'
p2409
aS'struct _IO_FILE *restrict'
p2410
asS'fsetpos'
p2411
(lp2412
S'int'
p2413
aS'struct _IO_FILE *'
p2414
aS'const _G_fpos_t *'
p2415
asS'pthread_getconcurrency'
p2416
(lp2417
S'int'
p2418
asS'pthread_testcancel'
p2419
(lp2420
S'void'
p2421
asS'END_LONG_DOUBLE_ROUNDING'
p2422
(lp2423
S'int'
p2424
asS'quotearg_char'
p2425
(lp2426
S'char *'
p2427
aS'const char *'
p2428
aS'char'
p2429
asS'c_ispunct'
p2430
(lp2431
S'int'
p2432
asS'sched_getaffinity'
p2433
(lp2434
S'int'
p2435
aS'int'
p2436
aS'unsigned long'
p2437
aS'cpu_set_t *'
p2438
asS'sched_setparam'
p2439
(lp2440
S'int'
p2441
aS'int'
p2442
aS'const struct sched_param *'
p2443
asS'cdb_free'
p2444
(lp2445
S'void'
p2446
aS'const struct cd_buf *'
p2447
asS'icatalloc'
p2448
(lp2449
S'char *'
p2450
aS'char *'
p2451
aS'const char *'
p2452
asS'g_qsort_with_data'
p2453
(lp2454
S'void'
p2455
aS'int'
p2456
aS'int'
p2457
aS'int'
p2458
aS'int'
p2459
aS'int'
p2460
asS'pthread_setname_np'
p2461
(lp2462
S'int'
p2463
aS'unsigned long'
p2464
aS'const char *'
p2465
asS'__bzero'
p2466
(lp2467
S'void'
p2468
aS'void *'
p2469
aS'unsigned long'
p2470
asS'pthread_attr_getaffinity_np'
p2471
(lp2472
S'int'
p2473
aS'const union pthread_attr_t *'
p2474
aS'unsigned long'
p2475
aS'cpu_set_t *'
p2476
asS'c_iscntrl'
p2477
(lp2478
S'int'
p2479
asS'enqueue'
p2480
(lp2481
S'void'
p2482
aS'struct tree *'
p2483
aS'struct trie **'
p2484
asS'_isatty'
p2485
(lp2486
S'int'
p2487
asS'seteuid'
p2488
(lp2489
S'int'
p2490
aS'unsigned int'
p2491
asS'quotearg_n_style_mem'
p2492
(lp2493
S'char *'
p2494
aS'int'
p2495
aS'enum quoting_style'
p2496
aS'const char *'
p2497
aS'unsigned long'
p2498
asS'pcre16_compile2'
p2499
(lp2500
S'struct real_pcre16 *'
p2501
aS'const unsigned short *'
p2502
aS'int'
p2503
aS'int *'
p2504
aS'const char **'
p2505
aS'int *'
p2506
aS'const unsigned char *'
p2507
asS'bkm_scale'
p2508
(lp2509
S'int'
p2510
aS'long *'
p2511
aS'int'
p2512
asS'strnlen'
p2513
(lp2514
S'unsigned long'
p2515
aS'const char *'
p2516
aS'unsigned long'
p2517
asS'dfasyntax'
p2518
(lp2519
S'void'
p2520
aS'unsigned long'
p2521
aS'int'
p2522
aS'unsigned char'
p2523
asS'create_token_tree'
p2524
(lp2525
S'int *'
p2526
aS'int *'
p2527
aS'int *'
p2528
aS'int *'
p2529
aS'const int *'
p2530
asS'glthread_recursive_lock_destroy_multithreaded'
p2531
(lp2532
S'int'
p2533
aS'int *'
p2534
asS'mfile_name_concat'
p2535
(lp2536
S'int'
p2537
asS'div'
p2538
(lp2539
S'div_t'
p2540
aS'int'
p2541
aS'int'
p2542
asS'nrand48_r'
p2543
(lp2544
S'int'
p2545
aS'unsigned short [3]'
p2546
aS'struct drand48_data *restrict'
p2547
aS'long *restrict'
p2548
asS'ecvt'
p2549
(lp2550
S'char *'
p2551
aS'double'
p2552
aS'int'
p2553
aS'int *restrict'
p2554
aS'int *restrict'
p2555
asS'mem_cd_iconv'
p2556
(lp2557
S'int'
p2558
asS'doPtr'
p2559
(lp2560
S'void *'
p2561
asS'init_colorize'
p2562
(lp2563
S'void'
p2564
asS'obstack_free'
p2565
(lp2566
S'void'
p2567
aS'struct obstack *'
p2568
aS'void *'
p2569
asS'__stpcpy'
p2570
(lp2571
S'char *'
p2572
aS'char *restrict'
p2573
aS'const char *restrict'
p2574
asS'getchar_unlocked'
p2575
(lp2576
S'int'
p2577
asS'scandirat'
p2578
(lp2579
S'int'
p2580
aS'int'
p2581
aS'const char *restrict'
p2582
aS'struct dirent ***restrict'
p2583
aS'int (*)(const struct dirent *)'
p2584
aS'int (*)(const struct dirent **, const struct dirent **)'
p2585
asS'ffsll'
p2586
(lp2587
S'int'
p2588
aS'long long'
p2589
asS'lseek64'
p2590
(lp2591
S'long'
p2592
aS'int'
p2593
aS'long'
p2594
aS'int'
p2595
asS'fts_close'
p2596
(lp2597
S'int'
p2598
aS'int *'
p2599
asS'free_workarea_compile'
p2600
(lp2601
S'void'
p2602
aS'struct re_pattern_buffer *'
p2603
asS'localtime_r'
p2604
(lp2605
S'struct tm *'
p2606
aS'const long *restrict'
p2607
aS'struct tm *restrict'
p2608
asS'locale_charset'
p2609
(lp2610
S'int'
p2611
asS'open_memstream'
p2612
(lp2613
S'struct _IO_FILE *'
p2614
aS'char **'
p2615
aS'unsigned long *'
p2616
asS'setregid'
p2617
(lp2618
S'int'
p2619
aS'unsigned int'
p2620
aS'unsigned int'
p2621
asS'splice'
p2622
(lp2623
S'long'
p2624
aS'int'
p2625
aS'long *'
p2626
aS'int'
p2627
aS'long *'
p2628
aS'unsigned long'
p2629
aS'unsigned int'
p2630
asS'fsetpos64'
p2631
(lp2632
S'int'
p2633
aS'struct _IO_FILE *'
p2634
aS'const _G_fpos64_t *'
p2635
asS'preorder'
p2636
(lp2637
S'reg_errcode_t'
p2638
aS'int *'
p2639
aS'reg_errcode_t (void *, int *)'
p2640
aS'void *'
p2641
asS'fputws'
p2642
(lp2643
S'int'
p2644
aS'const int *restrict'
p2645
aS'struct _IO_FILE *restrict'
p2646
asS'open_wmemstream'
p2647
(lp2648
S'struct _IO_FILE *'
p2649
aS'int **'
p2650
aS'unsigned long *'
p2651
asS'pthread_setattr_default_np'
p2652
(lp2653
S'int'
p2654
aS'const union pthread_attr_t *'
p2655
asS'fputwc'
p2656
(lp2657
S'unsigned int'
p2658
aS'int'
p2659
aS'struct _IO_FILE *'
p2660
asS'wmempcpy'
p2661
(lp2662
S'int *'
p2663
aS'int *restrict'
p2664
aS'const int *restrict'
p2665
aS'unsigned long'
p2666
asS'compute_bucket_size'
p2667
(lp2668
S'unsigned long'
p2669
aS'unsigned long'
p2670
aS'const int *'
p2671
asS'parse_expression'
p2672
(lp2673
S'int *'
p2674
aS'int *'
p2675
aS'struct re_pattern_buffer *'
p2676
aS'int *'
p2677
aS'unsigned long'
p2678
aS'int'
p2679
aS'reg_errcode_t *'
p2680
asS'bzero'
p2681
(lp2682
S'void'
p2683
aS'void *'
p2684
aS'unsigned long'
p2685
asS'wcsncasecmp_l'
p2686
(lp2687
S'int'
p2688
aS'const int *'
p2689
aS'const int *'
p2690
aS'unsigned long'
p2691
aS'struct __locale_struct *'
p2692
asS'rpl_fstat'
p2693
(lp2694
S'int'
p2695
aS'int'
p2696
aS'struct stat *'
p2697
asS'fts_safe_changedir'
p2698
(lp2699
S'int'
p2700
aS'int *'
p2701
aS'int *'
p2702
aS'int'
p2703
aS'const char *'
p2704
asS'treenext'
p2705
(lp2706
S'void'
p2707
aS'const struct tree *'
p2708
aS'struct trie *[]'
p2709
asS'pthread_getaffinity_np'
p2710
(lp2711
S'int'
p2712
aS'unsigned long'
p2713
aS'unsigned long'
p2714
aS'cpu_set_t *'
p2715
asS'clock_settime'
p2716
(lp2717
S'int'
p2718
aS'int'
p2719
aS'const struct timespec *'
p2720
asS'pthread_equal'
p2721
(lp2722
S'int'
p2723
aS'unsigned long'
p2724
aS'unsigned long'
p2725
asS'scandir64'
p2726
(lp2727
S'int'
p2728
aS'const char *restrict'
p2729
aS'struct dirent64 ***restrict'
p2730
aS'int (*)(const struct dirent64 *)'
p2731
aS'int (*)(const struct dirent64 **, const struct dirent64 **)'
p2732
asS'rindex'
p2733
(lp2734
S'char *'
p2735
aS'const char *'
p2736
aS'int'
p2737
asS'fallocate'
p2738
(lp2739
S'int'
p2740
aS'int'
p2741
aS'int'
p2742
aS'long'
p2743
aS'long'
p2744
asS'S_ISNWK'
p2745
(lp2746
S'int'
p2747
asS'g_bit_lock'
p2748
(lp2749
S'void'
p2750
aS'volatile int *'
p2751
aS'int'
p2752
asS're_compile_fastmap_iter'
p2753
(lp2754
S'void'
p2755
aS'struct re_pattern_buffer *'
p2756
aS'const int *'
p2757
aS'char *'
p2758
asS'pathconf'
p2759
(lp2760
S'long'
p2761
aS'const char *'
p2762
aS'int'
p2763
asS'pthread_cond_broadcast'
p2764
(lp2765
S'int'
p2766
aS'pthread_cond_t *'
p2767
asS'calc_eclosure_iter'
p2768
(lp2769
S'reg_errcode_t'
p2770
aS'int *'
p2771
aS'int *'
p2772
aS'int'
p2773
aS'int'
p2774
asS'wcscspn'
p2775
(lp2776
S'unsigned long'
p2777
aS'const int *'
p2778
aS'const int *'
p2779
asS'__assert'
p2780
(lp2781
S'void'
p2782
aS'const char *'
p2783
aS'const char *'
p2784
aS'int'
p2785
asS'sigstack'
p2786
(lp2787
S'int'
p2788
aS'struct sigstack *'
p2789
aS'struct sigstack *'
p2790
asS'hash_get_entries'
p2791
(lp2792
S'unsigned long'
p2793
aS'const int *'
p2794
aS'void **'
p2795
aS'unsigned long'
p2796
asS'test_getopt_long'
p2797
(lp2798
S'int'
p2799
asS'fts_set'
p2800
(lp2801
S'int'
p2802
aS'int *'
p2803
aS'int *'
p2804
aS'int'
p2805
asS'ftrylockfile'
p2806
(lp2807
S'int'
p2808
aS'struct _IO_FILE *'
p2809
asS'parse_dup_op'
p2810
(lp2811
S'int *'
p2812
aS'int *'
p2813
aS'int *'
p2814
aS'int *'
p2815
aS'int *'
p2816
aS'unsigned long'
p2817
aS'reg_errcode_t *'
p2818
asS'setresuid'
p2819
(lp2820
S'int'
p2821
aS'unsigned int'
p2822
aS'unsigned int'
p2823
aS'unsigned int'
p2824
asS'argmatch_valid'
p2825
(lp2826
S'void'
p2827
aS'const char *const *'
p2828
aS'const char *'
p2829
aS'unsigned long'
p2830
asS'vfork'
p2831
(lp2832
S'int'
p2833
asS'lockf'
p2834
(lp2835
S'int'
p2836
aS'int'
p2837
aS'int'
p2838
aS'long'
p2839
asS'sysconf'
p2840
(lp2841
S'long'
p2842
aS'int'
p2843
asS'pcre_get_substring'
p2844
(lp2845
S'int'
p2846
aS'const char *'
p2847
aS'int *'
p2848
aS'int'
p2849
aS'int'
p2850
aS'const char **'
p2851
asS'pcre16_dfa_exec'
p2852
(lp2853
S'int'
p2854
aS'const struct real_pcre16 *'
p2855
aS'const struct pcre16_extra *'
p2856
aS'const unsigned short *'
p2857
aS'int'
p2858
aS'int'
p2859
aS'int'
p2860
aS'int *'
p2861
aS'int'
p2862
aS'int *'
p2863
aS'int'
p2864
asS'__mbrlen'
p2865
(lp2866
S'unsigned long'
p2867
aS'const char *restrict'
p2868
aS'unsigned long'
p2869
aS'__mbstate_t *restrict'
p2870
asS'strtold'
p2871
(lp2872
S'long double'
p2873
aS'const char *restrict'
p2874
aS'char **restrict'
p2875
asS'swprintf'
p2876
(lp2877
S'int'
p2878
aS'int *restrict'
p2879
aS'unsigned long'
p2880
aS'const int *restrict'
p2881
asS'xstrtol_error'
p2882
(lp2883
S'void'
p2884
aS'enum strtol_error'
p2885
aS'int'
p2886
aS'char'
p2887
aS'const struct option *'
p2888
aS'const char *'
p2889
aS'int'
p2890
asS'strtoll'
p2891
(lp2892
S'long long'
p2893
aS'const char *restrict'
p2894
aS'char **restrict'
p2895
aS'int'
p2896
asS'feof'
p2897
(lp2898
S'int'
p2899
aS'struct _IO_FILE *'
p2900
asS'strncat'
p2901
(lp2902
S'char *'
p2903
aS'char *restrict'
p2904
aS'const char *restrict'
p2905
aS'unsigned long'
p2906
asS'chroot'
p2907
(lp2908
S'int'
p2909
aS'const char *'
p2910
asS'clearerr'
p2911
(lp2912
S'void'
p2913
aS'struct _IO_FILE *'
p2914
asS'undossify_input'
p2915
(lp2916
S'unsigned long'
p2917
aS'char *'
p2918
aS'unsigned long'
p2919
asS'write'
p2920
(lp2921
S'long'
p2922
aS'int'
p2923
aS'const void *'
p2924
aS'unsigned long'
p2925
asS'Ecompile'
p2926
(lp2927
S'void'
p2928
aS'const char *'
p2929
aS'unsigned long'
p2930
asS'flockfile'
p2931
(lp2932
S'void'
p2933
aS'struct _IO_FILE *'
p2934
asS'memrchr'
p2935
(lp2936
S'void *'
p2937
aS'const void *'
p2938
aS'int'
p2939
aS'unsigned long'
p2940
asS'unsetenv'
p2941
(lp2942
S'int'
p2943
aS'const char *'
p2944
asS'clone'
p2945
(lp2946
S'int'
p2947
aS'int (*)(void *)'
p2948
aS'void *'
p2949
aS'int'
p2950
aS'void *'
p2951
asS'getdirentries64'
p2952
(lp2953
S'long'
p2954
aS'int'
p2955
aS'char *restrict'
p2956
aS'unsigned long'
p2957
aS'long *restrict'
p2958
asS'pthread_condattr_setpshared'
p2959
(lp2960
S'int'
p2961
aS'pthread_condattr_t *'
p2962
aS'int'
p2963
asS'orig_lstat'
p2964
(lp2965
S'int'
p2966
aS'const char *'
p2967
aS'struct stat *'
p2968
asS'strncasecmp_l'
p2969
(lp2970
S'int'
p2971
aS'const char *'
p2972
aS'const char *'
p2973
aS'unsigned long'
p2974
aS'struct __locale_struct *'
p2975
asS'strcasecmp'
p2976
(lp2977
S'int'
p2978
aS'const char *'
p2979
aS'const char *'
p2980
asS'Gcompile'
p2981
(lp2982
S'void'
p2983
aS'const char *'
p2984
aS'unsigned long'
p2985
asS'realloc_trans_if_necessary'
p2986
(lp2987
S'void'
p2988
aS'struct dfa *'
p2989
aS'long'
p2990
asS'malloca'
p2991
(lp2992
S'int'
p2993
asS'dfaexec_mb'
p2994
(lp2995
S'char *'
p2996
aS'struct dfa *'
p2997
aS'const char *'
p2998
aS'char *'
p2999
aS'int'
p3000
aS'unsigned long *'
p3001
aS'int *'
p3002
asS'pthread_attr_setschedpolicy'
p3003
(lp3004
S'int'
p3005
aS'union pthread_attr_t *'
p3006
aS'int'
p3007
asS'pthread_mutex_consistent'
p3008
(lp3009
S'int'
p3010
aS'pthread_mutex_t *'
p3011
asS'wctob'
p3012
(lp3013
S'int'
p3014
aS'unsigned int'
p3015
asS'setpgrp'
p3016
(lp3017
S'int'
p3018
asS'__xstat'
p3019
(lp3020
S'int'
p3021
aS'int'
p3022
aS'const char *'
p3023
aS'struct stat *'
p3024
asS'__mempcpy'
p3025
(lp3026
S'void *'
p3027
aS'void *restrict'
p3028
aS'const void *restrict'
p3029
aS'unsigned long'
p3030
asS'orig_openat'
p3031
(lp3032
S'int'
p3033
aS'int'
p3034
aS'const char *'
p3035
aS'int'
p3036
aS'unsigned int'
p3037
asS'mbrlen'
p3038
(lp3039
S'unsigned long'
p3040
aS'const char *restrict'
p3041
aS'unsigned long'
p3042
aS'__mbstate_t *restrict'
p3043
asS'parse_reg_exp'
p3044
(lp3045
S'int *'
p3046
aS'int *'
p3047
aS'struct re_pattern_buffer *'
p3048
aS'int *'
p3049
aS'unsigned long'
p3050
aS'int'
p3051
aS'reg_errcode_t *'
p3052
asS'wcsnrtombs'
p3053
(lp3054
S'unsigned long'
p3055
aS'char *restrict'
p3056
aS'const int **restrict'
p3057
aS'unsigned long'
p3058
aS'unsigned long'
p3059
aS'__mbstate_t *restrict'
p3060
asS'i_ring_pop'
p3061
(lp3062
S'int'
p3063
aS'int *'
p3064
asS'pcre16_get_stringnumber'
p3065
(lp3066
S'int'
p3067
aS'const struct real_pcre16 *'
p3068
aS'const unsigned short *'
p3069
asS'clrbit'
p3070
(lp3071
S'void'
p3072
aS'unsigned int'
p3073
aS'unsigned int [0]'
p3074
asS'pcre16_free_substring'
p3075
(lp3076
S'void'
p3077
aS'const unsigned short *'
p3078
asS'fts_stat'
p3079
(lp3080
S'unsigned short'
p3081
aS'int *'
p3082
aS'int *'
p3083
aS'_Bool'
p3084
asS'main'
p3085
(lp3086
S'int'
p3087
asS'dfaalloc'
p3088
(lp3089
S'struct dfa *'
p3090
asS'dfaerror'
p3091
(lp3092
S'void'
p3093
aS'const char *'
p3094
asS'strcoll_l'
p3095
(lp3096
S'int'
p3097
aS'const char *'
p3098
aS'const char *'
p3099
aS'struct __locale_struct *'
p3100
asS'isxdigit_l'
p3101
(lp3102
S'int'
p3103
aS'int'
p3104
aS'struct __locale_struct *'
p3105
asS'freemust'
p3106
(lp3107
S'void'
p3108
aS'struct must *'
p3109
asS'GAcompile'
p3110
(lp3111
S'void'
p3112
aS'const char *'
p3113
aS'unsigned long'
p3114
asS'siggetmask'
p3115
(lp3116
S'int'
p3117
asS'orig_fstat'
p3118
(lp3119
S'int'
p3120
aS'int'
p3121
aS'struct stat *'
p3122
asS'setreuid'
p3123
(lp3124
S'int'
p3125
aS'unsigned int'
p3126
aS'unsigned int'
p3127
asS'seed48'
p3128
(lp3129
S'unsigned short *'
p3130
aS'unsigned short [3]'
p3131
asS'internal_fnmatch'
p3132
(lp3133
S'int'
p3134
aS'const char *'
p3135
aS'const char *'
p3136
aS'const char *'
p3137
aS'_Bool'
p3138
aS'int'
p3139
asS'buffer_textbin'
p3140
(lp3141
S'enum textbin'
p3142
aS'char *'
p3143
aS'unsigned long'
p3144
asS'fts_children'
p3145
(lp3146
S'int *'
p3147
aS'int *'
p3148
aS'int'
p3149
asS'memchr'
p3150
(lp3151
S'void *'
p3152
aS'const void *'
p3153
aS'int'
p3154
aS'unsigned long'
p3155
asS'clock_gettime'
p3156
(lp3157
S'int'
p3158
aS'int'
p3159
aS'struct timespec *'
p3160
asS'pthread_cond_signal'
p3161
(lp3162
S'int'
p3163
aS'pthread_cond_t *'
p3164
asS'fts_compar'
p3165
(lp3166
S'int'
p3167
aS'const void *'
p3168
aS'const void *'
p3169
asS'initstate_r'
p3170
(lp3171
S'int'
p3172
aS'unsigned int'
p3173
aS'char *restrict'
p3174
aS'unsigned long'
p3175
aS'struct random_data *restrict'
p3176
asS'epsclosure'
p3177
(lp3178
S'void'
p3179
aS'position_set *'
p3180
aS'const struct dfa *'
p3181
aS'char *'
p3182
asS'nl_langinfo_l'
p3183
(lp3184
S'char *'
p3185
aS'int'
p3186
aS'struct __locale_struct *'
p3187
asS'profil'
p3188
(lp3189
S'int'
p3190
aS'unsigned short *'
p3191
aS'unsigned long'
p3192
aS'unsigned long'
p3193
aS'unsigned int'
p3194
asS'file_textbin'
p3195
(lp3196
S'enum textbin'
p3197
aS'char *'
p3198
aS'unsigned long'
p3199
aS'int'
p3200
aS'const struct stat *'
p3201
asS'pthread_barrierattr_setpshared'
p3202
(lp3203
S'int'
p3204
aS'pthread_barrierattr_t *'
p3205
aS'int'
p3206
asS'quotearg_buffer'
p3207
(lp3208
S'int'
p3209
asS'hash_get_max_bucket_length'
p3210
(lp3211
S'unsigned long'
p3212
aS'const int *'
p3213
asS'asprintf'
p3214
(lp3215
S'int'
p3216
aS'char **restrict'
p3217
aS'const char *restrict'
p3218
asS'ferror'
p3219
(lp3220
S'int'
p3221
aS'struct _IO_FILE *'
p3222
asS'getcwd'
p3223
(lp3224
S'char *'
p3225
aS'char *'
p3226
aS'unsigned long'
p3227
asS'asctime_r'
p3228
(lp3229
S'char *'
p3230
aS'const struct tm *restrict'
p3231
aS'char *restrict'
p3232
asS'sigreturn'
p3233
(lp3234
S'int'
p3235
aS'struct sigcontext *'
p3236
asS'toupper_l'
p3237
(lp3238
S'int'
p3239
aS'int'
p3240
aS'struct __locale_struct *'
p3241
asS'fwide'
p3242
(lp3243
S'int'
p3244
aS'struct _IO_FILE *'
p3245
aS'int'
p3246
asS'__uflow'
p3247
(lp3248
S'int'
p3249
aS'struct _IO_FILE *'
p3250
asS'sched_getcpu'
p3251
(lp3252
S'int'
p3253
asS'islower'
p3254
(lp3255
S'int'
p3256
aS'int'
p3257
asS'isupper'
p3258
(lp3259
S'int'
p3260
aS'int'
p3261
asS'pthread_condattr_init'
p3262
(lp3263
S'int'
p3264
aS'pthread_condattr_t *'
p3265
asS'build_charclass_op'
p3266
(lp3267
S'int *'
p3268
aS'int *'
p3269
aS'unsigned char *'
p3270
aS'const char *'
p3271
aS'const char *'
p3272
aS'int'
p3273
aS'reg_errcode_t *'
p3274
asS'fd_safer_flag'
p3275
(lp3276
S'int'
p3277
asS'pthread_join'
p3278
(lp3279
S'int'
p3280
aS'unsigned long'
p3281
aS'void **'
p3282
asS'rotr32'
p3283
(lp3284
S'int'
p3285
asS'pthread_attr_getstacksize'
p3286
(lp3287
S'int'
p3288
aS'const union pthread_attr_t *restrict'
p3289
aS'unsigned long *restrict'
p3290
asS'acct'
p3291
(lp3292
S'int'
p3293
aS'const char *'
p3294
asS'orig_open'
p3295
(lp3296
S'int'
p3297
aS'const char *'
p3298
aS'int'
p3299
aS'unsigned int'
p3300
asS'open'
p3301
(lp3302
S'int'
p3303
aS'const char *'
p3304
aS'int'
p3305
asS'xalloc_oversized'
p3306
(lp3307
S'int'
p3308
asS'clock_nanosleep'
p3309
(lp3310
S'int'
p3311
aS'int'
p3312
aS'int'
p3313
aS'const struct timespec *'
p3314
aS'struct timespec *'
p3315
asS'duplocale'
p3316
(lp3317
S'struct __locale_struct *'
p3318
aS'struct __locale_struct *'
p3319
asS'glthread_recursive_lock_unlock_multithreaded'
p3320
(lp3321
S'int'
p3322
aS'int *'
p3323
asS'strtoll_l'
p3324
(lp3325
S'long long'
p3326
aS'const char *restrict'
p3327
aS'char **restrict'
p3328
aS'int'
p3329
aS'struct __locale_struct *'
p3330
asS'parse_bracket_element'
p3331
(lp3332
S'reg_errcode_t'
p3333
aS'int *'
p3334
aS'int *'
p3335
aS'int *'
p3336
aS'int'
p3337
aS'int *'
p3338
aS'unsigned long'
p3339
aS'int'
p3340
asS'sigpending'
p3341
(lp3342
S'int'
p3343
aS'__sigset_t *'
p3344
asS'sigvec'
p3345
(lp3346
S'int'
p3347
aS'int'
p3348
aS'const struct sigvec *'
p3349
aS'struct sigvec *'
p3350
asS'strfry'
p3351
(lp3352
S'char *'
p3353
aS'char *'
p3354
asS'confstr'
p3355
(lp3356
S'unsigned long'
p3357
aS'int'
p3358
aS'char *'
p3359
aS'unsigned long'
p3360
asS'is_cloexec'
p3361
(lp3362
S'_Bool'
p3363
aS'int'
p3364
asS'setbit_wc'
p3365
(lp3366
S'_Bool'
p3367
aS'unsigned int'
p3368
aS'unsigned int [0]'
p3369
asS'funlockfile'
p3370
(lp3371
S'void'
p3372
aS'struct _IO_FILE *'
p3373
asS'safe_hasher'
p3374
(lp3375
S'struct hash_entry *'
p3376
aS'const int *'
p3377
aS'const void *'
p3378
asS'copy'
p3379
(lp3380
S'void'
p3381
aS'const position_set *'
p3382
aS'position_set *'
p3383
asS'STREQ_OPT'
p3384
(lp3385
S'int'
p3386
asS'__pthread_register_cancel_defer'
p3387
(lp3388
S'void'
p3389
aS'__pthread_unwind_buf_t *'
p3390
asS'rpl_stat'
p3391
(lp3392
S'int'
p3393
aS'const char *'
p3394
aS'struct stat *'
p3395
asS'iswlower_l'
p3396
(lp3397
S'int'
p3398
aS'unsigned int'
p3399
aS'struct __locale_struct *'
p3400
asS'is_prime'
p3401
(lp3402
S'int'
p3403
asS'statfs'
p3404
(lp3405
S'int'
p3406
aS'const char *'
p3407
aS'struct statfs *'
p3408
asS'pthread_setcanceltype'
p3409
(lp3410
S'int'
p3411
aS'int'
p3412
aS'int *'
p3413
asS'c_isalnum'
p3414
(lp3415
S'int'
p3416
asS'Pexecute'
p3417
(lp3418
S'unsigned long'
p3419
aS'const char *'
p3420
aS'unsigned long'
p3421
aS'unsigned long *'
p3422
aS'const char *'
p3423
asS'ARGMATCH'
p3424
(lp3425
S'int'
p3426
asS'getpass'
p3427
(lp3428
S'char *'
p3429
aS'const char *'
p3430
asS'sigfillset'
p3431
(lp3432
S'int'
p3433
aS'__sigset_t *'
p3434
asS'dfawarn'
p3435
(lp3436
S'void'
p3437
aS'const char *'
p3438
asS'wmemcpy'
p3439
(lp3440
S'int *'
p3441
aS'int *restrict'
p3442
aS'const int *restrict'
p3443
aS'unsigned long'
p3444
asS'glthread_rwlock_wrlock_multithreaded'
p3445
(lp3446
S'int'
p3447
aS'int *'
p3448
asS'gl_locale_name_default'
p3449
(lp3450
S'int'
p3451
asS'hash_get_next'
p3452
(lp3453
S'void *'
p3454
aS'const int *'
p3455
aS'const void *'
p3456
asS'flush_stdout'
p3457
(lp3458
S'void'
p3459
asS'end_wpattern'
p3460
(lp3461
S'const int *'
p3462
aS'const int *'
p3463
asS'iswctype_l'
p3464
(lp3465
S'int'
p3466
aS'unsigned int'
p3467
aS'unsigned long'
p3468
aS'struct __locale_struct *'
p3469
asS'parse_bracket_symbol'
p3470
(lp3471
S'reg_errcode_t'
p3472
aS'int *'
p3473
aS'int *'
p3474
aS'int *'
p3475
asS'doStruct'
p3476
(lp3477
S'struct s'
p3478
asS'realpath'
p3479
(lp3480
S'char *'
p3481
aS'const char *restrict'
p3482
aS'char *restrict'
p3483
asS'getlogin'
p3484
(lp3485
S'char *'
p3486
asS'__pthread_unregister_cancel_restore'
p3487
(lp3488
S'void'
p3489
aS'__pthread_unwind_buf_t *'
p3490
asS'last_component'
p3491
(lp3492
S'int'
p3493
asS'sched_yield'
p3494
(lp3495
S'int'
p3496
asS'rpl_close'
p3497
(lp3498
S'int'
p3499
aS'int'
p3500
asS'strpbrk'
p3501
(lp3502
S'char *'
p3503
aS'const char *'
p3504
aS'const char *'
p3505
asS'wcstold'
p3506
(lp3507
S'long double'
p3508
aS'const int *restrict'
p3509
aS'int **restrict'
p3510
asS'iswprint_l'
p3511
(lp3512
S'int'
p3513
aS'unsigned int'
p3514
aS'struct __locale_struct *'
p3515
asS'wcstoll'
p3516
(lp3517
S'long long'
p3518
aS'const int *restrict'
p3519
aS'int **restrict'
p3520
aS'int'
p3521
asS'srand48'
p3522
(lp3523
S'void'
p3524
aS'long'
p3525
asS'quotearg_n'
p3526
(lp3527
S'char *'
p3528
aS'int'
p3529
aS'const char *'
p3530
asS'strtold_l'
p3531
(lp3532
S'long double'
p3533
aS'const char *restrict'
p3534
aS'char **restrict'
p3535
aS'struct __locale_struct *'
p3536
asS'_IO_funlockfile'
p3537
(lp3538
S'void'
p3539
aS'struct _IO_FILE *'
p3540
asS'obstack_vprintf'
p3541
(lp3542
S'int'
p3543
aS'struct obstack *restrict'
p3544
aS'const char *restrict'
p3545
aS'struct __va_list_tag [1]'
p3546
asS'isprint_l'
p3547
(lp3548
S'int'
p3549
aS'int'
p3550
aS'struct __locale_struct *'
p3551
asS'new_exclude'
p3552
(lp3553
S'int'
p3554
asS'parse_sub_exp'
p3555
(lp3556
S'int *'
p3557
aS'int *'
p3558
aS'struct re_pattern_buffer *'
p3559
aS'int *'
p3560
aS'unsigned long'
p3561
aS'int'
p3562
aS'reg_errcode_t *'
p3563
asS'init_easy_encoding'
p3564
(lp3565
S'void'
p3566
asS'cycle_check'
p3567
(lp3568
S'_Bool'
p3569
aS'struct cycle_check_state *'
p3570
aS'const struct stat *'
p3571
asS'timegm'
p3572
(lp3573
S'long'
p3574
aS'struct tm *'
p3575
asS'putchar_unlocked'
p3576
(lp3577
S'int'
p3578
aS'int'
p3579
asS'strtoull'
p3580
(lp3581
S'unsigned long long'
p3582
aS'const char *restrict'
p3583
aS'char **restrict'
p3584
aS'int'
p3585
asS'towupper_l'
p3586
(lp3587
S'unsigned int'
p3588
aS'unsigned int'
p3589
aS'struct __locale_struct *'
p3590
asS'pthread_mutex_init'
p3591
(lp3592
S'int'
p3593
aS'pthread_mutex_t *'
p3594
aS'const pthread_mutexattr_t *'
p3595
asS'wcscmp'
p3596
(lp3597
S'int'
p3598
aS'const int *'
p3599
aS'const int *'
p3600
asS'is_inheritable'
p3601
(lp3602
S'int'
p3603
aS'int'
p3604
asS'pthread_mutex_trylock'
p3605
(lp3606
S'int'
p3607
aS'pthread_mutex_t *'
p3608
asS'l64a'
p3609
(lp3610
S'char *'
p3611
aS'long'
p3612
asS'__assert_perror_fail'
p3613
(lp3614
S'void'
p3615
aS'int'
p3616
aS'const char *'
p3617
aS'unsigned int'
p3618
aS'const char *'
p3619
asS'pcre_version'
p3620
(lp3621
S'const char *'
p3622
asS'quotearg_alloc'
p3623
(lp3624
S'char *'
p3625
aS'const char *'
p3626
aS'unsigned long'
p3627
aS'const struct quoting_options *'
p3628
asS'closure'
p3629
(lp3630
S'void'
p3631
asS'fileno'
p3632
(lp3633
S'int'
p3634
aS'struct _IO_FILE *'
p3635
asS'match_mb_charset'
p3636
(lp3637
S'int'
p3638
aS'struct dfa *'
p3639
aS'long'
p3640
aS'position'
p3641
aS'const char *'
p3642
aS'unsigned int'
p3643
aS'unsigned long'
p3644
asS'pthread_mutexattr_init'
p3645
(lp3646
S'int'
p3647
aS'pthread_mutexattr_t *'
p3648
asS'bind_textdomain_codeset'
p3649
(lp3650
S'char *'
p3651
aS'const char *'
p3652
aS'const char *'
p3653
asS'wcpncpy'
p3654
(lp3655
S'int *'
p3656
aS'int *restrict'
p3657
aS'const int *restrict'
p3658
aS'unsigned long'
p3659
asS'futimes'
p3660
(lp3661
S'int'
p3662
aS'int'
p3663
aS'struct timeval const[2]'
p3664
asS'wctrans_l'
p3665
(lp3666
S'const int *'
p3667
aS'const char *'
p3668
aS'struct __locale_struct *'
p3669
asS'g_error'
p3670
(lp3671
S'void'
p3672
aS'const int *'
p3673
asS'qgcvt'
p3674
(lp3675
S'char *'
p3676
aS'long double'
p3677
aS'int'
p3678
aS'char *'
p3679
asS'cdb_init'
p3680
(lp3681
S'void'
p3682
aS'struct cd_buf *'
p3683
asS'regcomp'
p3684
(lp3685
S'int'
p3686
aS'struct re_pattern_buffer *restrict'
p3687
aS'const char *restrict'
p3688
aS'int'
p3689
asS'vdprintf'
p3690
(lp3691
S'int'
p3692
aS'int'
p3693
aS'const char *restrict'
p3694
aS'struct __va_list_tag [1]'
p3695
asS'fcntl'
p3696
(lp3697
S'int'
p3698
aS'int'
p3699
aS'int'
p3700
asS'__getdelim'
p3701
(lp3702
S'long'
p3703
aS'char **restrict'
p3704
aS'unsigned long *restrict'
p3705
aS'int'
p3706
aS'struct _IO_FILE *restrict'
p3707
asS'pcre_compile'
p3708
(lp3709
S'struct real_pcre *'
p3710
aS'const char *'
p3711
aS'int'
p3712
aS'const char **'
p3713
aS'int *'
p3714
aS'const unsigned char *'
p3715
asS'S_TYPEISTMO'
p3716
(lp3717
S'int'
p3718
asS'stime'
p3719
(lp3720
S'int'
p3721
aS'const long *'
p3722
asS'pcre16_version'
p3723
(lp3724
S'const char *'
p3725
asS'i_ring_init'
p3726
(lp3727
S'void'
p3728
aS'int *'
p3729
aS'int'
p3730
asS'Fexecute'
p3731
(lp3732
S'unsigned long'
p3733
aS'const char *'
p3734
aS'unsigned long'
p3735
aS'unsigned long *'
p3736
aS'const char *'
p3737
asS'prlimit64'
p3738
(lp3739
S'int'
p3740
aS'int'
p3741
aS'enum __rlimit_resource'
p3742
aS'const struct rlimit64 *'
p3743
aS'struct rlimit64 *'
p3744
asS'parse_bracket_exp'
p3745
(lp3746
S'int *'
p3747
aS'int *'
p3748
aS'int *'
p3749
aS'int *'
p3750
aS'unsigned long'
p3751
aS'reg_errcode_t *'
p3752
asS'delete'
p3753
(lp3754
S'void'
p3755
aS'position'
p3756
aS'position_set *'
p3757
asS'rpl_mbrtowc'
p3758
(lp3759
S'unsigned long'
p3760
aS'int *'
p3761
aS'const char *'
p3762
aS'unsigned long'
p3763
aS'__mbstate_t *'
p3764
asS'tzset'
p3765
(lp3766
S'void'
p3767
asS'dfamust'
p3768
(lp3769
S'void'
p3770
aS'struct dfa *'
p3771
asS'strxfrm'
p3772
(lp3773
S'unsigned long'
p3774
aS'char *restrict'
p3775
aS'const char *restrict'
p3776
aS'unsigned long'
p3777
asS'toupper'
p3778
(lp3779
S'int'
p3780
aS'int'
p3781
asS'asnprintf'
p3782
(lp3783
S'char *'
p3784
aS'char *'
p3785
aS'int *'
p3786
aS'const char *'
p3787
asS'clearerr_unlocked'
p3788
(lp3789
S'void'
p3790
aS'struct _IO_FILE *'
p3791
asS'_obstack_begin_worker'
p3792
(lp3793
S'int'
p3794
aS'struct obstack *'
p3795
aS'int'
p3796
aS'int'
p3797
asS'aligned_alloc'
p3798
(lp3799
S'void *'
p3800
aS'unsigned long'
p3801
aS'unsigned long'
p3802
asS'strtoimax'
p3803
(lp3804
S'long'
p3805
aS'const char *restrict'
p3806
aS'char **restrict'
p3807
aS'int'
p3808
asS'fcvt_r'
p3809
(lp3810
S'int'
p3811
aS'double'
p3812
aS'int'
p3813
aS'int *restrict'
p3814
aS'int *restrict'
p3815
aS'char *restrict'
p3816
aS'unsigned long'
p3817
asS'test_lstat_func'
p3818
(lp3819
S'int'
p3820
asS'g_date_time_add_days'
p3821
(lp3822
S'struct _GDateTime *'
p3823
aS'struct _GDateTime *'
p3824
aS'int'
p3825
asS'mb_case_map_apply'
p3826
(lp3827
S'void'
p3828
aS'const signed char *'
p3829
aS'unsigned long *'
p3830
aS'unsigned long *'
p3831
asS'execvpe'
p3832
(lp3833
S'int'
p3834
aS'const char *'
p3835
aS'char *const[]'
p3836
aS'char *const[]'
p3837
asS'S_ISDOOR'
p3838
(lp3839
S'int'
p3840
asS'enter_dir'
p3841
(lp3842
S'_Bool'
p3843
aS'int *'
p3844
aS'int *'
p3845
asS'wcstoul_l'
p3846
(lp3847
S'unsigned long'
p3848
aS'const int *restrict'
p3849
aS'int **restrict'
p3850
aS'int'
p3851
aS'struct __locale_struct *'
p3852
asS'mmalloca'
p3853
(lp3854
S'void *'
p3855
aS'int'
p3856
asS'pr_sgr_end'
p3857
(lp3858
S'void'
p3859
aS'const char *'
p3860
asS'pcre_jit_stack_free'
p3861
(lp3862
S'void'
p3863
aS'struct real_pcre_jit_stack *'
p3864
asS'test_asnprintf'
p3865
(lp3866
S'void'
p3867
asS'pthread_attr_setstackaddr'
p3868
(lp3869
S'int'
p3870
aS'union pthread_attr_t *'
p3871
aS'void *'
p3872
asS'qfcvt'
p3873
(lp3874
S'char *'
p3875
aS'long double'
p3876
aS'int'
p3877
aS'int *restrict'
p3878
aS'int *restrict'
p3879
asS'telldir'
p3880
(lp3881
S'long'
p3882
aS'struct __dirstream *'
p3883
asS'pthread_rwlock_unlock'
p3884
(lp3885
S'int'
p3886
aS'pthread_rwlock_t *'
p3887
asS'setuid'
p3888
(lp3889
S'int'
p3890
aS'unsigned int'
p3891
asS'prpending'
p3892
(lp3893
S'void'
p3894
aS'const char *'
p3895
asS'string_hasher_ci'
p3896
(lp3897
S'unsigned long'
p3898
aS'const void *'
p3899
aS'unsigned long'
p3900
asS'parse'
p3901
(lp3902
S'int *'
p3903
aS'int *'
p3904
aS'struct re_pattern_buffer *'
p3905
aS'unsigned long'
p3906
aS'reg_errcode_t *'
p3907
asS'freelist'
p3908
(lp3909
S'void'
p3910
aS'char **'
p3911
asS'excluded_file_name'
p3912
(lp3913
S'int'
p3914
asS'pthread_attr_setscope'
p3915
(lp3916
S'int'
p3917
aS'union pthread_attr_t *'
p3918
aS'int'
p3919
asS'iswxdigit_l'
p3920
(lp3921
S'int'
p3922
aS'unsigned int'
p3923
aS'struct __locale_struct *'
p3924
asS'qfcvt_r'
p3925
(lp3926
S'int'
p3927
aS'long double'
p3928
aS'int'
p3929
aS'int *restrict'
p3930
aS'int *restrict'
p3931
aS'char *restrict'
p3932
aS'unsigned long'
p3933
asS'hash_print_statistics'
p3934
(lp3935
S'void'
p3936
aS'const int *'
p3937
aS'struct _IO_FILE *'
p3938
asS'kwsprep'
p3939
(lp3940
S'void'
p3941
aS'struct kwset *'
p3942
asS'sigandset'
p3943
(lp3944
S'int'
p3945
aS'__sigset_t *'
p3946
aS'const __sigset_t *'
p3947
aS'const __sigset_t *'
p3948
asS'calloc'
p3949
(lp3950
S'void *'
p3951
aS'unsigned long'
p3952
aS'unsigned long'
p3953
asS'isupper_l'
p3954
(lp3955
S'int'
p3956
aS'int'
p3957
aS'struct __locale_struct *'
p3958
asS'i_ring_push'
p3959
(lp3960
S'int'
p3961
aS'int *'
p3962
aS'int'
p3963
asS're_search_2'
p3964
(lp3965
S'int'
p3966
aS'struct re_pattern_buffer *'
p3967
aS'const char *'
p3968
aS'int'
p3969
aS'const char *'
p3970
aS'int'
p3971
aS'int'
p3972
aS'int'
p3973
aS'struct re_registers *'
p3974
aS'int'
p3975
asS'orig_stat'
p3976
(lp3977
S'int'
p3978
aS'const char *'
p3979
aS'struct stat *'
p3980
asS'sigblock'
p3981
(lp3982
S'int'
p3983
aS'int'
p3984
asS'fts_open'
p3985
(lp3986
S'int *'
p3987
aS'char *const *'
p3988
aS'int'
p3989
aS'int (*)(int)'
p3990
asS'fopen64'
p3991
(lp3992
S'struct _IO_FILE *'
p3993
aS'const char *restrict'
p3994
aS'const char *restrict'
p3995
asS'create_tree'
p3996
(lp3997
S'int *'
p3998
aS'int *'
p3999
aS'int *'
p4000
aS'int *'
p4001
aS'int'
p4002
asS'wmemcmp'
p4003
(lp4004
S'int'
p4005
aS'const int *'
p4006
aS'const int *'
p4007
aS'unsigned long'
p4008
asS'fputws_unlocked'
p4009
(lp4010
S'int'
p4011
aS'const int *restrict'
p4012
aS'struct _IO_FILE *restrict'
p4013
asS'wcsxfrm_l'
p4014
(lp4015
S'unsigned long'
p4016
aS'int *'
p4017
aS'const int *'
p4018
aS'unsigned long'
p4019
aS'struct __locale_struct *'
p4020
asS'kill'
p4021
(lp4022
S'int'
p4023
aS'int'
p4024
aS'int'
p4025
asS'link_count_optimize_ok'
p4026
(lp4027
S'_Bool'
p4028
aS'int'
p4029
asS'print_no_progname'
p4030
(lp4031
S'void'
p4032
asS'prlimit'
p4033
(lp4034
S'int'
p4035
aS'int'
p4036
aS'enum __rlimit_resource'
p4037
aS'const struct rlimit *'
p4038
aS'struct rlimit *'
p4039
asS'pthread_mutexattr_getrobust_np'
p4040
(lp4041
S'int'
p4042
aS'const pthread_mutexattr_t *'
p4043
aS'int *'
p4044
asS'__xmknod'
p4045
(lp4046
S'int'
p4047
aS'int'
p4048
aS'const char *'
p4049
aS'unsigned int'
p4050
aS'unsigned long *'
p4051
asS'timer_delete'
p4052
(lp4053
S'int'
p4054
aS'void *'
p4055
asS'ptsname'
p4056
(lp4057
S'char *'
p4058
aS'int'
p4059
asS'parse_grep_colors'
p4060
(lp4061
S'void'
p4062
asS'setenv'
p4063
(lp4064
S'int'
p4065
aS'const char *'
p4066
aS'const char *'
p4067
aS'int'
p4068
asS'quotearg_alloc_mem'
p4069
(lp4070
S'int'
p4071
asS'wcspbrk'
p4072
(lp4073
S'int *'
p4074
aS'const int *'
p4075
aS'const int *'
p4076
asS'read'
p4077
(lp4078
S'long'
p4079
aS'int'
p4080
aS'void *'
p4081
aS'unsigned long'
p4082
asS'_IO_sgetn'
p4083
(lp4084
S'unsigned long'
p4085
aS'struct _IO_FILE *'
p4086
aS'void *'
p4087
aS'unsigned long'
p4088
asS'mbtoupper'
p4089
(lp4090
S'char *'
p4091
aS'const char *'
p4092
aS'unsigned long *'
p4093
aS'signed char **'
p4094
asS'srandom_r'
p4095
(lp4096
S'int'
p4097
aS'unsigned int'
p4098
aS'struct random_data *'
p4099
asS'search_duplicated_node'
p4100
(lp4101
S'int'
p4102
aS'const int *'
p4103
aS'int'
p4104
aS'unsigned int'
p4105
asS'x2nrealloc'
p4106
(lp4107
S'int'
p4108
asS'__pthread_unregister_cancel'
p4109
(lp4110
S'void'
p4111
aS'__pthread_unwind_buf_t *'
p4112
asS'pthread_mutexattr_getrobust'
p4113
(lp4114
S'int'
p4115
aS'const pthread_mutexattr_t *'
p4116
aS'int *'
p4117
asS'strcmp'
p4118
(lp4119
S'int'
p4120
aS'const char *'
p4121
aS'const char *'
p4122
asS'lldiv'
p4123
(lp4124
S'lldiv_t'
p4125
aS'long long'
p4126
aS'long long'
p4127
asS'fgetc'
p4128
(lp4129
S'int'
p4130
aS'struct _IO_FILE *'
p4131
asS'readdir'
p4132
(lp4133
S'struct dirent *'
p4134
aS'struct __dirstream *'
p4135
asS'getresuid'
p4136
(lp4137
S'int'
p4138
aS'unsigned int *'
p4139
aS'unsigned int *'
p4140
aS'unsigned int *'
p4141
asS'fgets'
p4142
(lp4143
S'char *'
p4144
aS'char *restrict'
p4145
aS'int'
p4146
aS'struct _IO_FILE *restrict'
p4147
asS'pcre16_free_study'
p4148
(lp4149
S'void'
p4150
aS'struct pcre16_extra *'
p4151
asS'memchr_kwset'
p4152
(lp4153
S'const char *'
p4154
aS'const char *'
p4155
aS'unsigned long'
p4156
aS'struct kwset *'
p4157
asS'match_anychar'
p4158
(lp4159
S'int'
p4160
aS'struct dfa *'
p4161
aS'long'
p4162
aS'position'
p4163
aS'unsigned int'
p4164
aS'unsigned long'
p4165
asS'regfree'
p4166
(lp4167
S'void'
p4168
aS'struct re_pattern_buffer *'
p4169
asS'base_len'
p4170
(lp4171
S'int'
p4172
asS'print_line_tail'
p4173
(lp4174
S'const char *'
p4175
aS'const char *'
p4176
aS'const char *'
p4177
aS'const char *'
p4178
asS'ftell'
p4179
(lp4180
S'long'
p4181
aS'struct _IO_FILE *'
p4182
asS'exit'
p4183
(lp4184
S'void'
p4185
aS'int'
p4186
asS'SET_BINARY'
p4187
(lp4188
S'int'
p4189
asS'usable_st_size'
p4190
(lp4191
S'_Bool'
p4192
aS'const struct stat *'
p4193
asS'freea'
p4194
(lp4195
S'int'
p4196
asS'mbstowcs'
p4197
(lp4198
S'unsigned long'
p4199
aS'int *restrict'
p4200
aS'const char *restrict'
p4201
aS'unsigned long'
p4202
asS'close_stream'
p4203
(lp4204
S'int'
p4205
asS'version_etc_arn'
p4206
(lp4207
S'void'
p4208
aS'struct _IO_FILE *'
p4209
aS'const char *'
p4210
aS'const char *'
p4211
aS'const char *'
p4212
aS'const char *const *'
p4213
aS'unsigned long'
p4214
asS'getitimer'
p4215
(lp4216
S'int'
p4217
aS'enum __itimer_which'
p4218
aS'struct itimerval *'
p4219
asS'__dgettext'
p4220
(lp4221
S'char *'
p4222
aS'const char *'
p4223
aS'const char *'
p4224
asS'c_tolower'
p4225
(lp4226
S'int'
p4227
asS'dirfd'
p4228
(lp4229
S'int'
p4230
aS'struct __dirstream *'
p4231
asS'prepend_args'
p4232
(lp4233
S'unsigned long'
p4234
aS'const char *'
p4235
aS'char *'
p4236
aS'char **'
p4237
asS'sigprocmask'
p4238
(lp4239
S'int'
p4240
aS'int'
p4241
aS'const __sigset_t *restrict'
p4242
aS'__sigset_t *restrict'
p4243
asS'strverscmp'
p4244
(lp4245
S'int'
p4246
aS'const char *'
p4247
aS'const char *'
p4248
asS'fts_sort'
p4249
(lp4250
S'int *'
p4251
aS'int *'
p4252
aS'int *'
p4253
aS'unsigned long'
p4254
asS'quotearg_mem'
p4255
(lp4256
S'char *'
p4257
aS'const char *'
p4258
aS'unsigned long'
p4259
asS'state_index'
p4260
(lp4261
S'long'
p4262
aS'struct dfa *'
p4263
aS'const position_set *'
p4264
aS'int'
p4265
asS'wmemmove'
p4266
(lp4267
S'int *'
p4268
aS'int *'
p4269
aS'const int *'
p4270
aS'unsigned long'
p4271
asS'setlocale'
p4272
(lp4273
S'char *'
p4274
aS'int'
p4275
aS'const char *'
p4276
asS'wcscasecmp'
p4277
(lp4278
S'int'
p4279
aS'const int *'
p4280
aS'const int *'
p4281
asS'__fxstat64'
p4282
(lp4283
S'int'
p4284
aS'int'
p4285
aS'int'
p4286
aS'struct stat64 *'
p4287
asS'putenv'
p4288
(lp4289
S'int'
p4290
aS'char *'
p4291
asS'fdopen'
p4292
(lp4293
S'struct _IO_FILE *'
p4294
aS'int'
p4295
aS'const char *'
p4296
asS'pthread_key_create'
p4297
(lp4298
S'int'
p4299
aS'unsigned int *'
p4300
aS'void (*)(void *)'
p4301
asS'wcslen'
p4302
(lp4303
S'unsigned long'
p4304
aS'const int *'
p4305
asS'wcsncat'
p4306
(lp4307
S'int *'
p4308
aS'int *restrict'
p4309
aS'const int *restrict'
p4310
aS'unsigned long'
p4311
asS'rmdir'
p4312
(lp4313
S'int'
p4314
aS'const char *'
p4315
asS'pthread_mutexattr_destroy'
p4316
(lp4317
S'int'
p4318
aS'pthread_mutexattr_t *'
p4319
asS'pthread_cond_timedwait'
p4320
(lp4321
S'int'
p4322
aS'pthread_cond_t *restrict'
p4323
aS'pthread_mutex_t *restrict'
p4324
aS'const struct timespec *restrict'
p4325
asS'mbscasecmp'
p4326
(lp4327
S'int'
p4328
aS'const char *'
p4329
aS'const char *'
p4330
asS'pthread_rwlockattr_getkind_np'
p4331
(lp4332
S'int'
p4333
aS'const pthread_rwlockattr_t *restrict'
p4334
aS'int *restrict'
p4335
asS'strtoul_l'
p4336
(lp4337
S'unsigned long'
p4338
aS'const char *restrict'
p4339
aS'char **restrict'
p4340
aS'int'
p4341
aS'struct __locale_struct *'
p4342
asS'xstr_cd_iconv'
p4343
(lp4344
S'char *'
p4345
aS'const char *'
p4346
aS'int'
p4347
asS'ngettext'
p4348
(lp4349
S'char *'
p4350
aS'const char *'
p4351
aS'const char *'
p4352
aS'unsigned long'
p4353
asS'sigpause'
p4354
(lp4355
S'int'
p4356
aS'int'
p4357
asS'iswblank'
p4358
(lp4359
S'int'
p4360
aS'unsigned int'
p4361
asS'iswupper'
p4362
(lp4363
S'int'
p4364
aS'unsigned int'
p4365
asS'wcstold_l'
p4366
(lp4367
S'long double'
p4368
aS'const int *restrict'
p4369
aS'int **restrict'
p4370
aS'struct __locale_struct *'
p4371
asS'getdate'
p4372
(lp4373
S'struct tm *'
p4374
aS'const char *'
p4375
asS'fd_ring_clear'
p4376
(lp4377
S'void'
p4378
aS'int *'
p4379
asS'sbrk'
p4380
(lp4381
S'void *'
p4382
aS'long'
p4383
asS'tolower_l'
p4384
(lp4385
S'int'
p4386
aS'int'
p4387
aS'struct __locale_struct *'
p4388
asS'dfaexec_main'
p4389
(lp4390
S'char *'
p4391
aS'struct dfa *'
p4392
aS'const char *'
p4393
aS'char *'
p4394
aS'int'
p4395
aS'unsigned long *'
p4396
aS'int *'
p4397
aS'_Bool'
p4398
asS'mbsstr_trimmed_wordbounded'
p4399
(lp4400
S'_Bool'
p4401
aS'const char *'
p4402
aS'const char *'
p4403
asS'_IO_vfscanf'
p4404
(lp4405
S'int'
p4406
aS'struct _IO_FILE *restrict'
p4407
aS'const char *restrict'
p4408
aS'struct __va_list_tag [1]'
p4409
aS'int *restrict'
p4410
asS'mbsstr'
p4411
(lp4412
S'int'
p4413
asS'doOff'
p4414
(lp4415
S'long'
p4416
asS'wcstoull'
p4417
(lp4418
S'unsigned long long'
p4419
aS'const int *restrict'
p4420
aS'int **restrict'
p4421
aS'int'
p4422
asS'creat'
p4423
(lp4424
S'int'
p4425
aS'const char *'
p4426
aS'unsigned int'
p4427
asS'__sigdelset'
p4428
(lp4429
S'int'
p4430
aS'__sigset_t *'
p4431
aS'int'
p4432
asS'pthread_mutexattr_settype'
p4433
(lp4434
S'int'
p4435
aS'pthread_mutexattr_t *'
p4436
aS'int'
p4437
asS'pthread_cond_destroy'
p4438
(lp4439
S'int'
p4440
aS'pthread_cond_t *'
p4441
asS'ispunct'
p4442
(lp4443
S'int'
p4444
aS'int'
p4445
asS'glthread_rwlock_rdlock_multithreaded'
p4446
(lp4447
S'int'
p4448
aS'int *'
p4449
asS'fstatfs'
p4450
(lp4451
S'int'
p4452
aS'int'
p4453
aS'struct statfs *'
p4454
asS'pthread_attr_setaffinity_np'
p4455
(lp4456
S'int'
p4457
aS'union pthread_attr_t *'
p4458
aS'unsigned long'
p4459
aS'const cpu_set_t *'
p4460
asS'fchmod'
p4461
(lp4462
S'int'
p4463
aS'int'
p4464
aS'unsigned int'
p4465
asS'dfaisfast'
p4466
(lp4467
S'_Bool'
p4468
aS'const struct dfa *'
p4469
asS'gettext_quote'
p4470
(lp4471
S'const char *'
p4472
aS'const char *'
p4473
aS'enum quoting_style'
p4474
asS'fwscanf'
p4475
(lp4476
S'int'
p4477
aS'struct _IO_FILE *restrict'
p4478
aS'const int *restrict'
p4479
asS'pr_sgr_end_if'
p4480
(lp4481
S'void'
p4482
aS'const char *'
p4483
asS'gettext'
p4484
(lp4485
S'int'
p4486
asS'pthread_attr_setguardsize'
p4487
(lp4488
S'int'
p4489
aS'union pthread_attr_t *'
p4490
aS'unsigned long'
p4491
asS'mkstemp'
p4492
(lp4493
S'int'
p4494
aS'char *'
p4495
asS'wcsrtombs'
p4496
(lp4497
S'unsigned long'
p4498
aS'char *restrict'
p4499
aS'const int **restrict'
p4500
aS'unsigned long'
p4501
aS'__mbstate_t *restrict'
p4502
asS'vfscanf'
p4503
(lp4504
S'int'
p4505
aS'struct _IO_FILE *restrict'
p4506
aS'const char *restrict'
p4507
aS'struct __va_list_tag [1]'
p4508
asS'error_at_line'
p4509
(lp4510
S'void'
p4511
aS'int'
p4512
aS'int'
p4513
aS'const char *'
p4514
aS'unsigned int'
p4515
aS'const char *'
p4516
asS'add_count'
p4517
(lp4518
S'unsigned long'
p4519
aS'unsigned long'
p4520
aS'unsigned long'
p4521
asS'readdir_r'
p4522
(lp4523
S'int'
p4524
aS'struct __dirstream *restrict'
p4525
aS'struct dirent *restrict'
p4526
aS'struct dirent **restrict'
p4527
asS'open_symlink_nofollow_error'
p4528
(lp4529
S'_Bool'
p4530
aS'int'
p4531
asS'pthread_attr_setinheritsched'
p4532
(lp4533
S'int'
p4534
aS'union pthread_attr_t *'
p4535
aS'int'
p4536
asS'wcsdup'
p4537
(lp4538
S'int *'
p4539
aS'const int *'
p4540
asS'getuid'
p4541
(lp4542
S'unsigned int'
p4543
asS'open_by_handle_at'
p4544
(lp4545
S'int'
p4546
aS'int'
p4547
aS'struct file_handle *'
p4548
aS'int'
p4549
asS'difftime'
p4550
(lp4551
S'double'
p4552
aS'long'
p4553
aS'long'
p4554
asS'kwsalloc'
p4555
(lp4556
S'struct kwset *'
p4557
aS'const char *'
p4558
asS'chown'
p4559
(lp4560
S'int'
p4561
aS'const char *'
p4562
aS'unsigned int'
p4563
aS'unsigned int'
p4564
asS'close_stdout_set_ignore_EPIPE'
p4565
(lp4566
S'void'
p4567
aS'_Bool'
p4568
asS'wcsftime'
p4569
(lp4570
S'unsigned long'
p4571
aS'int *restrict'
p4572
aS'unsigned long'
p4573
aS'const int *restrict'
p4574
aS'const struct tm *restrict'
p4575
asS'wctomb'
p4576
(lp4577
S'int'
p4578
aS'char *'
p4579
aS'int'
p4580
asS'pthread_condattr_getpshared'
p4581
(lp4582
S'int'
p4583
aS'const pthread_condattr_t *restrict'
p4584
aS'int *restrict'
p4585
asS'iconv'
p4586
(lp4587
S'unsigned long'
p4588
aS'void *'
p4589
aS'char **restrict'
p4590
aS'unsigned long *restrict'
p4591
aS'char **restrict'
p4592
aS'unsigned long *restrict'
p4593
asS'transit_state_singlebyte'
p4594
(lp4595
S'status_transit_state'
p4596
aS'struct dfa *'
p4597
aS'long'
p4598
aS'const unsigned char *'
p4599
aS'long *'
p4600
asS'getresgid'
p4601
(lp4602
S'int'
p4603
aS'unsigned int *'
p4604
aS'unsigned int *'
p4605
aS'unsigned int *'
p4606
asS'mdir_name'
p4607
(lp4608
S'char *'
p4609
aS'const char *'
p4610
asS'nlscan'
p4611
(lp4612
S'void'
p4613
aS'const char *'
p4614
asS'strptime'
p4615
(lp4616
S'char *'
p4617
aS'const char *restrict'
p4618
aS'const char *restrict'
p4619
aS'struct tm *'
p4620
asS'qecvt'
p4621
(lp4622
S'char *'
p4623
aS'long double'
p4624
aS'int'
p4625
aS'int *restrict'
p4626
aS'int *restrict'
p4627
asS'memchr2'
p4628
(lp4629
S'int'
p4630
asS'mktime'
p4631
(lp4632
S'long'
p4633
aS'struct tm *'
p4634
asS'str_cd_iconv'
p4635
(lp4636
S'int'
p4637
asS'__fxstat'
p4638
(lp4639
S'int'
p4640
aS'int'
p4641
aS'int'
p4642
aS'struct stat *'
p4643
asS'save_cwd'
p4644
(lp4645
S'int'
p4646
aS'struct saved_cwd *'
p4647
asS'setbit_case_fold_c'
p4648
(lp4649
S'void'
p4650
aS'int'
p4651
aS'unsigned int [0]'
p4652
asS'calc_eclosure'
p4653
(lp4654
S'reg_errcode_t'
p4655
aS'int *'
p4656
asS'fclose'
p4657
(lp4658
S'int'
p4659
aS'struct _IO_FILE *'
p4660
asS'vswprintf'
p4661
(lp4662
S'int'
p4663
aS'int *restrict'
p4664
aS'unsigned long'
p4665
aS'const int *restrict'
p4666
aS'struct __va_list_tag [1]'
p4667
asS'EXPECTED_ERRNO'
p4668
(lp4669
S'int'
p4670
asS'pcre_copy_substring'
p4671
(lp4672
S'int'
p4673
aS'const char *'
p4674
aS'int *'
p4675
aS'int'
p4676
aS'int'
p4677
aS'char *'
p4678
aS'int'
p4679
asS'__sched_cpucount'
p4680
(lp4681
S'int'
p4682
aS'unsigned long'
p4683
aS'const cpu_set_t *'
p4684
asS'c_isdigit'
p4685
(lp4686
S'int'
p4687
asS'tcsetpgrp'
p4688
(lp4689
S'int'
p4690
aS'int'
p4691
aS'int'
p4692
asS'pthread_mutex_consistent_np'
p4693
(lp4694
S'int'
p4695
aS'pthread_mutex_t *'
p4696
asS'opendir'
p4697
(lp4698
S'struct __dirstream *'
p4699
aS'const char *'
p4700
asS'pthread_timedjoin_np'
p4701
(lp4702
S'int'
p4703
aS'unsigned long'
p4704
aS'void **'
p4705
aS'const struct timespec *'
p4706
asS'posix_fallocate'
p4707
(lp4708
S'int'
p4709
aS'int'
p4710
aS'long'
p4711
aS'long'
p4712
asS'fts_compare_ino'
p4713
(lp4714
S'int'
p4715
aS'const struct _ftsent **'
p4716
aS'const struct _ftsent **'
p4717
asS'fputc_unlocked'
p4718
(lp4719
S'int'
p4720
aS'int'
p4721
aS'struct _IO_FILE *'
p4722
asS'hash_clear'
p4723
(lp4724
S'void'
p4725
aS'int *'
p4726
asS'tee'
p4727
(lp4728
S'long'
p4729
aS'int'
p4730
aS'int'
p4731
aS'unsigned long'
p4732
aS'unsigned int'
p4733
asS'skip_easy_bytes'
p4734
(lp4735
S'const char *'
p4736
aS'const char *'
p4737
asS'zero'
p4738
(lp4739
S'int'
p4740
asS'clock'
p4741
(lp4742
S'long'
p4743
asS'pthread_spin_destroy'
p4744
(lp4745
S'int'
p4746
aS'volatile int *'
p4747
asS'abs'
p4748
(lp4749
S'int'
p4750
aS'int'
p4751
asS'comsubs'
p4752
(lp4753
S'char **'
p4754
aS'char *'
p4755
aS'const char *'
p4756
asS'quotearg_buffer_restyled'
p4757
(lp4758
S'unsigned long'
p4759
aS'char *'
p4760
aS'unsigned long'
p4761
aS'const char *'
p4762
aS'unsigned long'
p4763
aS'enum quoting_style'
p4764
aS'int'
p4765
aS'const unsigned int *'
p4766
aS'const char *'
p4767
aS'const char *'
p4768
asS'hash_insert'
p4769
(lp4770
S'void *'
p4771
aS'int *'
p4772
aS'const void *'
p4773
asS'pthread_detach'
p4774
(lp4775
S'int'
p4776
aS'unsigned long'
p4777
asS'set_stat_type'
p4778
(lp4779
S'void'
p4780
aS'struct stat *'
p4781
aS'unsigned int'
p4782
asS'setpgid'
p4783
(lp4784
S'int'
p4785
aS'int'
p4786
aS'int'
p4787
asS'fchdir'
p4788
(lp4789
S'int'
p4790
aS'int'
p4791
asS'stpncpy'
p4792
(lp4793
S'char *'
p4794
aS'char *restrict'
p4795
aS'const char *restrict'
p4796
aS'unsigned long'
p4797
asS'verify_expr'
p4798
(lp4799
S'int'
p4800
asS'wordchar'
p4801
(lp4802
S'_Bool'
p4803
aS'unsigned int'
p4804
asS'popen'
p4805
(lp4806
S'struct _IO_FILE *'
p4807
aS'const char *'
p4808
aS'const char *'
p4809
asS'_IO_ferror'
p4810
(lp4811
S'int'
p4812
aS'struct _IO_FILE *'
p4813
asS'isspace_l'
p4814
(lp4815
S'int'
p4816
aS'int'
p4817
aS'struct __locale_struct *'
p4818
asS'posix_fadvise64'
p4819
(lp4820
S'int'
p4821
aS'int'
p4822
aS'long'
p4823
aS'long'
p4824
aS'int'
p4825
asS'check_character'
p4826
(lp4827
S'void'
p4828
aS'const char *'
p4829
aS'unsigned long'
p4830
asS'pthread_mutexattr_gettype'
p4831
(lp4832
S'int'
p4833
aS'const pthread_mutexattr_t *restrict'
p4834
aS'int *restrict'
p4835
asS'restore_initial_cwd'
p4836
(lp4837
S'int'
p4838
aS'int *'
p4839
asS'free_token'
p4840
(lp4841
S'void'
p4842
aS'int *'
p4843
asS'dossified_pos'
p4844
(lp4845
S'long'
p4846
aS'long'
p4847
asS'unlockpt'
p4848
(lp4849
S'int'
p4850
aS'int'
p4851
asS'pcre_fullinfo'
p4852
(lp4853
S'int'
p4854
aS'const struct real_pcre *'
p4855
aS'const struct pcre_extra *'
p4856
aS'int'
p4857
aS'void *'
p4858
asS'mbs_to_wchar'
p4859
(lp4860
S'unsigned long'
p4861
aS'unsigned int *'
p4862
aS'const char *'
p4863
aS'unsigned long'
p4864
aS'struct dfa *'
p4865
asS'select'
p4866
(lp4867
S'int'
p4868
aS'int'
p4869
aS'fd_set *restrict'
p4870
aS'fd_set *restrict'
p4871
aS'fd_set *restrict'
p4872
aS'struct timeval *restrict'
p4873
asS'canonicalize_file_name'
p4874
(lp4875
S'char *'
p4876
aS'const char *'
p4877
asS'fdatasync'
p4878
(lp4879
S'int'
p4880
aS'int'
p4881
asS'setns'
p4882
(lp4883
S'int'
p4884
aS'int'
p4885
aS'int'
p4886
asS'wcsncpy'
p4887
(lp4888
S'int *'
p4889
aS'int *restrict'
p4890
aS'const int *restrict'
p4891
aS'unsigned long'
p4892
asS'wcscat'
p4893
(lp4894
S'int *'
p4895
aS'int *restrict'
p4896
aS'const int *restrict'
p4897
asS'XARGMATCH'
p4898
(lp4899
S'int'
p4900
asS'INT_BITS_STRLEN_BOUND'
p4901
(lp4902
S'int'
p4903
asS'pthread_rwlockattr_setpshared'
p4904
(lp4905
S'int'
p4906
aS'pthread_rwlockattr_t *'
p4907
aS'int'
p4908
asS'ASSERT'
p4909
(lp4910
S'int'
p4911
asS'fopencookie'
p4912
(lp4913
S'struct _IO_FILE *'
p4914
aS'void *restrict'
p4915
aS'const char *restrict'
p4916
aS'_IO_cookie_io_functions_t'
p4917
asS'LCO_hash'
p4918
(lp4919
S'unsigned long'
p4920
aS'const void *'
p4921
aS'unsigned long'
p4922
asS'isspace'
p4923
(lp4924
S'int'
p4925
aS'int'
p4926
asS'catclose'
p4927
(lp4928
S'int'
p4929
aS'void *'
p4930
asS'x2realloc'
p4931
(lp4932
S'void *'
p4933
aS'void *'
p4934
aS'unsigned long *'
p4935
asS'ftruncate'
p4936
(lp4937
S'int'
p4938
aS'int'
p4939
aS'long'
p4940
asS'dfaexec'
p4941
(lp4942
S'char *'
p4943
aS'struct dfa *'
p4944
aS'const char *'
p4945
aS'char *'
p4946
aS'int'
p4947
aS'unsigned long *'
p4948
aS'int *'
p4949
asS'openat_safer'
p4950
(lp4951
S'int'
p4952
asS'pthread_mutex_getprioceiling'
p4953
(lp4954
S'int'
p4955
aS'const pthread_mutex_t *restrict'
p4956
aS'int *restrict'
p4957
asS'cdb_fchdir'
p4958
(lp4959
S'int'
p4960
aS'const struct cd_buf *'
p4961
asS'kwsmusts'
p4962
(lp4963
S'void'
p4964
asS'rpl_realloc'
p4965
(lp4966
S'void *'
p4967
aS'void *'
p4968
aS'unsigned long'
p4969
asS'strlen'
p4970
(lp4971
S'unsigned long'
p4972
aS'const char *'
p4973
asS'pthread_getspecific'
p4974
(lp4975
S'void *'
p4976
aS'unsigned int'
p4977
asS'allocmust'
p4978
(lp4979
S'struct must *'
p4980
aS'struct must *'
p4981
asS'kwsinit'
p4982
(lp4983
S'void'
p4984
aS'struct kwset **'
p4985
asS'file_pattern_matches'
p4986
(lp4987
S'_Bool'
p4988
aS'const struct exclude_segment *'
p4989
aS'const char *'
p4990
asS'dup_safer_flag'
p4991
(lp4992
S'int'
p4993
aS'int'
p4994
aS'int'
p4995
asS'putc_unlocked'
p4996
(lp4997
S'int'
p4998
aS'int'
p4999
aS'struct _IO_FILE *'
p5000
asS'test_double'
p5001
(lp5002
S'void'
p5003
asS'prline'
p5004
(lp5005
S'void'
p5006
aS'const char *'
p5007
aS'const char *'
p5008
aS'char'
p5009
asS'mrand48_r'
p5010
(lp5011
S'int'
p5012
aS'struct drand48_data *restrict'
p5013
aS'long *restrict'
p5014
asS'Pcompile'
p5015
(lp5016
S'void'
p5017
aS'const char *'
p5018
aS'unsigned long'
p5019
asS'srand48_r'
p5020
(lp5021
S'int'
p5022
aS'long'
p5023
aS'struct drand48_data *'
p5024
asS'rpl_symlink'
p5025
(lp5026
S'int'
p5027
aS'const char *'
p5028
aS'const char *'
p5029
asS'unlink'
p5030
(lp5031
S'int'
p5032
aS'const char *'
p5033
asS'tcgetpgrp'
p5034
(lp5035
S'int'
p5036
aS'int'
p5037
asS'fn'
p5038
(lp5039
S'reg_errcode_t'
p5040
asS'postorder'
p5041
(lp5042
S'reg_errcode_t'
p5043
aS'int *'
p5044
aS'reg_errcode_t (void *, int *)'
p5045
aS'void *'
p5046
asS'pcre16_pattern_to_host_byte_order'
p5047
(lp5048
S'int'
p5049
aS'struct real_pcre16 *'
p5050
aS'struct pcre16_extra *'
p5051
aS'const unsigned char *'
p5052
asS'__toupper_l'
p5053
(lp5054
S'int'
p5055
aS'int'
p5056
aS'struct __locale_struct *'
p5057
asS'free_dir'
p5058
(lp5059
S'void'
p5060
aS'int *'
p5061
asS'c_islower'
p5062
(lp5063
S'int'
p5064
asS'pthread_tryjoin_np'
p5065
(lp5066
S'int'
p5067
aS'unsigned long'
p5068
aS'void **'
p5069
asS'pthread_rwlock_timedwrlock'
p5070
(lp5071
S'int'
p5072
aS'pthread_rwlock_t *restrict'
p5073
aS'const struct timespec *restrict'
p5074
asS'version_etc_va'
p5075
(lp5076
S'void'
p5077
aS'struct _IO_FILE *'
p5078
aS'const char *'
p5079
aS'const char *'
p5080
aS'const char *'
p5081
aS'struct __va_list_tag [1]'
p5082
asS'MIN'
p5083
(lp5084
S'int'
p5085
asS'basename'
p5086
(lp5087
S'char *'
p5088
aS'const char *'
p5089
asS'__sigsetjmp'
p5090
(lp5091
S'int'
p5092
aS'struct __jmp_buf_tag *'
p5093
aS'int'
p5094
asS'ffs'
p5095
(lp5096
S'int'
p5097
aS'int'
p5098
asS'argmatch'
p5099
(lp5100
S'int'
p5101
aS'const char *'
p5102
aS'const char *const *'
p5103
aS'const char *'
p5104
aS'unsigned long'
p5105
asS'ferror_unlocked'
p5106
(lp5107
S'int'
p5108
aS'struct _IO_FILE *'
p5109
asS'readahead'
p5110
(lp5111
S'long'
p5112
aS'int'
p5113
aS'long'
p5114
aS'unsigned long'
p5115
asS'addtok_wc'
p5116
(lp5117
S'void'
p5118
aS'unsigned int'
p5119
asS'_IO_ftrylockfile'
p5120
(lp5121
S'int'
p5122
aS'struct _IO_FILE *'
p5123
asS'getpid'
p5124
(lp5125
S'int'
p5126
asS'mkostemps64'
p5127
(lp5128
S'int'
p5129
aS'char *'
p5130
aS'int'
p5131
aS'int'
p5132
asS'feof_unlocked'
p5133
(lp5134
S'int'
p5135
aS'struct _IO_FILE *'
p5136
asS'sched_setaffinity'
p5137
(lp5138
S'int'
p5139
aS'int'
p5140
aS'unsigned long'
p5141
aS'const cpu_set_t *'
p5142
asS're_set_fastmap'
p5143
(lp5144
S'void'
p5145
aS'char *'
p5146
aS'int'
p5147
aS'int'
p5148
asS'print_errno_message'
p5149
(lp5150
S'void'
p5151
aS'int'
p5152
asS'strcoll'
p5153
(lp5154
S'int'
p5155
aS'const char *'
p5156
aS'const char *'
p5157
asS'execl'
p5158
(lp5159
S'int'
p5160
aS'const char *'
p5161
aS'const char *'
p5162
asS'gets'
p5163
(lp5164
S'char *'
p5165
aS'char *'
p5166
asS'execv'
p5167
(lp5168
S'int'
p5169
aS'const char *'
p5170
aS'char *const[]'
p5171
asS'getw'
p5172
(lp5173
S'int'
p5174
aS'struct _IO_FILE *'
p5175
asS'dgettext'
p5176
(lp5177
S'char *'
p5178
aS'const char *'
p5179
aS'const char *'
p5180
asS'linkat'
p5181
(lp5182
S'int'
p5183
aS'int'
p5184
aS'const char *'
p5185
aS'int'
p5186
aS'const char *'
p5187
aS'int'
p5188
asS'fd_safer'
p5189
(lp5190
S'int'
p5191
aS'int'
p5192
asS'test_getopt_long_posix'
p5193
(lp5194
S'int'
p5195
asS'pcre_free_substring_list'
p5196
(lp5197
S'void'
p5198
aS'const char **'
p5199
asS'pthread_getattr_default_np'
p5200
(lp5201
S'int'
p5202
aS'union pthread_attr_t *'
p5203
asS'isalnum_l'
p5204
(lp5205
S'int'
p5206
aS'int'
p5207
aS'struct __locale_struct *'
p5208
asS'pcre_jit_stack_alloc'
p5209
(lp5210
S'struct real_pcre_jit_stack *'
p5211
aS'int'
p5212
aS'int'
p5213
asS'setsid'
p5214
(lp5215
S'int'
p5216
asS'vfwprintf'
p5217
(lp5218
S'int'
p5219
aS'struct _IO_FILE *restrict'
p5220
aS'const int *restrict'
p5221
aS'struct __va_list_tag [1]'
p5222
asS'vscanf'
p5223
(lp5224
S'int'
p5225
aS'const char *restrict'
p5226
aS'struct __va_list_tag [1]'
p5227
asS'strrchr'
p5228
(lp5229
S'char *'
p5230
aS'const char *'
p5231
aS'int'
p5232
asS'regexec'
p5233
(lp5234
S'int'
p5235
aS'const struct re_pattern_buffer *restrict'
p5236
aS'const char *restrict'
p5237
aS'unsigned long'
p5238
aS'regmatch_t []'
p5239
aS'int'
p5240
asS'pthread_attr_setstacksize'
p5241
(lp5242
S'int'
p5243
aS'union pthread_attr_t *'
p5244
aS'unsigned long'
p5245
asS'pthread_setcancelstate'
p5246
(lp5247
S'int'
p5248
aS'int'
p5249
aS'int *'
p5250
asS'strtoull_l'
p5251
(lp5252
S'unsigned long long'
p5253
aS'const char *restrict'
p5254
aS'char **restrict'
p5255
aS'int'
p5256
aS'struct __locale_struct *'
p5257
asS'strchrnul'
p5258
(lp5259
S'char *'
p5260
aS'const char *'
p5261
aS'int'
p5262
asS'free_tree'
p5263
(lp5264
S'reg_errcode_t'
p5265
aS'void *'
p5266
aS'int *'
p5267
asS'iswspace'
p5268
(lp5269
S'int'
p5270
aS'unsigned int'
p5271
asS'context_length_arg'
p5272
(lp5273
S'void'
p5274
aS'const char *'
p5275
aS'long *'
p5276
asS'labs'
p5277
(lp5278
S'long'
p5279
aS'long'
p5280
asS'qsort_r'
p5281
(lp5282
S'void'
p5283
aS'void *'
p5284
aS'unsigned long'
p5285
aS'unsigned long'
p5286
aS'int (*)(const void *, const void *, void *)'
p5287
aS'void *'
p5288
asS'mknodat'
p5289
(lp5290
S'int'
p5291
aS'int'
p5292
aS'const char *'
p5293
aS'unsigned int'
p5294
aS'unsigned long'
p5295
asS'putchar'
p5296
(lp5297
S'int'
p5298
aS'int'
p5299
asS'wcsspn'
p5300
(lp5301
S'unsigned long'
p5302
aS'const int *'
p5303
aS'const int *'
p5304
asS'pcre_pattern_to_host_byte_order'
p5305
(lp5306
S'int'
p5307
aS'struct real_pcre *'
p5308
aS'struct pcre_extra *'
p5309
aS'const unsigned char *'
p5310
asS'__xstat64'
p5311
(lp5312
S'int'
p5313
aS'int'
p5314
aS'const char *'
p5315
aS'struct stat64 *'
p5316
asS'xstrtoul'
p5317
(lp5318
S'int'
p5319
aS'const char *'
p5320
aS'char **'
p5321
aS'int'
p5322
aS'unsigned long *'
p5323
aS'const char *'
p5324
asS'_IO_seekoff'
p5325
(lp5326
S'long'
p5327
aS'struct _IO_FILE *'
p5328
aS'long'
p5329
aS'int'
p5330
aS'int'
p5331
asS'case_folded_counterparts'
p5332
(lp5333
S'int'
p5334
aS'int'
p5335
aS'int [21]'
p5336
asS'usleep'
p5337
(lp5338
S'int'
p5339
aS'unsigned int'
p5340
asS'wcsnlen'
p5341
(lp5342
S'unsigned long'
p5343
aS'const int *'
p5344
aS'unsigned long'
p5345
asS'pthread_setschedparam'
p5346
(lp5347
S'int'
p5348
aS'unsigned long'
p5349
aS'int'
p5350
aS'const struct sched_param *'
p5351
asS'rotr_sz'
p5352
(lp5353
S'int'
p5354
asS'unlinkat'
p5355
(lp5356
S'int'
p5357
aS'int'
p5358
aS'const char *'
p5359
aS'int'
p5360
asS'__asprintf'
p5361
(lp5362
S'int'
p5363
aS'char **restrict'
p5364
aS'const char *restrict'
p5365
asS'quotearg_n_custom_mem'
p5366
(lp5367
S'int'
p5368
asS'SIGNATURE_CHECK'
p5369
(lp5370
S'int'
p5371
asS'test_open'
p5372
(lp5373
S'int'
p5374
asS'__libc_current_sigrtmin'
p5375
(lp5376
S'int'
p5377
asS'quotearg_style'
p5378
(lp5379
S'char *'
p5380
aS'enum quoting_style'
p5381
aS'const char *'
p5382
asS'_Exit'
p5383
(lp5384
S'void'
p5385
aS'int'
p5386
asS'alphasort64'
p5387
(lp5388
S'int'
p5389
aS'const struct dirent64 **'
p5390
aS'const struct dirent64 **'
p5391
asS'grep'
p5392
(lp5393
S'long'
p5394
aS'int'
p5395
aS'const struct stat *'
p5396
asS'should_colorize'
p5397
(lp5398
S'int'
p5399
asS'isalpha_l'
p5400
(lp5401
S'int'
p5402
aS'int'
p5403
aS'struct __locale_struct *'
p5404
asS'orig_fstatat'
p5405
(lp5406
S'int'
p5407
aS'int'
p5408
aS'const char *'
p5409
aS'struct stat *'
p5410
aS'int'
p5411
asS'wcscpy'
p5412
(lp5413
S'int *'
p5414
aS'int *restrict'
p5415
aS'const int *restrict'
p5416
asS'hash_get_first'
p5417
(lp5418
S'void *'
p5419
aS'const int *'
p5420
asS'sigqueue'
p5421
(lp5422
S'int'
p5423
aS'int'
p5424
aS'int'
p5425
aS'const union sigval'
p5426
asS'vsnprintf'
p5427
(lp5428
S'int'
p5429
aS'char *restrict'
p5430
aS'unsigned long'
p5431
aS'const char *restrict'
p5432
aS'struct __va_list_tag [1]'
p5433
asS'_IO_peekc_locked'
p5434
(lp5435
S'int'
p5436
aS'struct _IO_FILE *'
p5437
asS'print_offset'
p5438
(lp5439
S'void'
p5440
aS'unsigned long'
p5441
aS'int'
p5442
aS'const char *'
p5443
asS'pthread_attr_getstackaddr'
p5444
(lp5445
S'int'
p5446
aS'const union pthread_attr_t *restrict'
p5447
aS'void **restrict'
p5448
asS'strtok_r'
p5449
(lp5450
S'char *'
p5451
aS'char *restrict'
p5452
aS'const char *restrict'
p5453
aS'char **restrict'
p5454
asS'pselect'
p5455
(lp5456
S'int'
p5457
aS'int'
p5458
aS'fd_set *restrict'
p5459
aS'fd_set *restrict'
p5460
aS'fd_set *restrict'
p5461
aS'const struct timespec *restrict'
p5462
aS'const __sigset_t *restrict'
p5463
asS'_gl_register_dup'
p5464
(lp5465
S'int'
p5466
aS'int'
p5467
aS'int'
p5468
asS'euidaccess'
p5469
(lp5470
S'int'
p5471
aS'const char *'
p5472
aS'int'
p5473
asS'geteuid'
p5474
(lp5475
S'unsigned int'
p5476
asS'hash_initialize'
p5477
(lp5478
S'int *'
p5479
aS'unsigned long'
p5480
aS'const int *'
p5481
aS'int'
p5482
aS'int'
p5483
aS'int'
p5484
asS'pthread_attr_destroy'
p5485
(lp5486
S'int'
p5487
aS'union pthread_attr_t *'
p5488
asS'gl_locale_name_thread'
p5489
(lp5490
S'const char *'
p5491
aS'int'
p5492
aS'const char *'
p5493
asS'getrlimit'
p5494
(lp5495
S'int'
p5496
aS'enum __rlimit_resource'
p5497
aS'struct rlimit *'
p5498
asS'notset'
p5499
(lp5500
S'void'
p5501
aS'unsigned int [0]'
p5502
asS'dfa_charclass_index'
p5503
(lp5504
S'unsigned long'
p5505
aS'struct dfa *'
p5506
aS'unsigned int const[0]'
p5507
asS'quote'
p5508
(lp5509
S'int'
p5510
asS'u8_mbtoucr'
p5511
(lp5512
S'int'
p5513
aS'int *'
p5514
aS'const int *'
p5515
aS'int'
p5516
asS'FILE_SYSTEM_PREFIX_LEN'
p5517
(lp5518
S'int'
p5519
asS'wcswcs'
p5520
(lp5521
S'int *'
p5522
aS'const int *'
p5523
aS'const int *'
p5524
asS'ARGMATCH_VERIFY'
p5525
(lp5526
S'int'
p5527
asS'pthread_attr_getdetachstate'
p5528
(lp5529
S'int'
p5530
aS'const union pthread_attr_t *'
p5531
aS'int *'
p5532
asS'my_asnprintf'
p5533
(lp5534
S'char *'
p5535
aS'char *'
p5536
aS'unsigned long *'
p5537
aS'const char *'
p5538
asS'gboolean'
p5539
(lp5540
S'int'
p5541
asS'strncasecmp'
p5542
(lp5543
S'int'
p5544
aS'const char *'
p5545
aS'const char *'
p5546
aS'unsigned long'
p5547
asS're_compile_pattern'
p5548
(lp5549
S'const char *'
p5550
aS'const char *'
p5551
aS'unsigned long'
p5552
aS'struct re_pattern_buffer *'
p5553
asS're_compile_fastmap'
p5554
(lp5555
S'int'
p5556
aS'struct re_pattern_buffer *'
p5557
asS'contains_encoding_error'
p5558
(lp5559
S'_Bool'
p5560
aS'const char *'
p5561
aS'unsigned long'
p5562
asS'glthread_recursive_lock_lock_multithreaded'
p5563
(lp5564
S'int'
p5565
aS'int *'
p5566
asS'hash_string'
p5567
(lp5568
S'unsigned long'
p5569
aS'const char *'
p5570
aS'unsigned long'
p5571
asS'iconv_open'
p5572
(lp5573
S'void *'
p5574
aS'const char *'
p5575
aS'const char *'
p5576
asS'__sysv_signal'
p5577
(lp5578
S'void (*)(int)'
p5579
aS'int'
p5580
aS'void (*)(int)'
p5581
asS'version_etc_ar'
p5582
(lp5583
S'void'
p5584
aS'struct _IO_FILE *'
p5585
aS'const char *'
p5586
aS'const char *'
p5587
aS'const char *'
p5588
aS'const char *const *'
p5589
asS'fputs'
p5590
(lp5591
S'int'
p5592
aS'const char *restrict'
p5593
aS'struct _IO_FILE *restrict'
p5594
asS'versionsort64'
p5595
(lp5596
S'int'
p5597
aS'const struct dirent64 **'
p5598
aS'const struct dirent64 **'
p5599
asS'strtof_l'
p5600
(lp5601
S'float'
p5602
aS'const char *restrict'
p5603
aS'char **restrict'
p5604
aS'struct __locale_struct *'
p5605
asS'grepbuf'
p5606
(lp5607
S'long'
p5608
aS'const char *'
p5609
aS'const char *'
p5610
asS'wcscasecmp_l'
p5611
(lp5612
S'int'
p5613
aS'const int *'
p5614
aS'const int *'
p5615
aS'struct __locale_struct *'
p5616
asS'setmatcher'
p5617
(lp5618
S'void'
p5619
aS'const char *'
p5620
asS'iswxdigit'
p5621
(lp5622
S'int'
p5623
aS'unsigned int'
p5624
asS'wcsncmp'
p5625
(lp5626
S'int'
p5627
aS'const int *'
p5628
aS'const int *'
p5629
aS'unsigned long'
p5630
asS'strsep'
p5631
(lp5632
S'char *'
p5633
aS'char **restrict'
p5634
aS'const char *restrict'
p5635
asS'strtod_l'
p5636
(lp5637
S'double'
p5638
aS'const char *restrict'
p5639
aS'char **restrict'
p5640
aS'struct __locale_struct *'
p5641
asS'dfacomp'
p5642
(lp5643
S'void'
p5644
aS'const char *'
p5645
aS'unsigned long'
p5646
aS'struct dfa *'
p5647
aS'int'
p5648
asS'pcre16_get_substring'
p5649
(lp5650
S'int'
p5651
aS'const unsigned short *'
p5652
aS'int *'
p5653
aS'int'
p5654
aS'int'
p5655
aS'const unsigned short **'
p5656
asS'pthread_getschedparam'
p5657
(lp5658
S'int'
p5659
aS'unsigned long'
p5660
aS'int *restrict'
p5661
aS'struct sched_param *restrict'
p5662
asS'remove'
p5663
(lp5664
S'int'
p5665
aS'const char *'
p5666
asS'pthread_cond_wait'
p5667
(lp5668
S'int'
p5669
aS'pthread_cond_t *restrict'
p5670
aS'pthread_mutex_t *restrict'
p5671
asS'vhangup'
p5672
(lp5673
S'int'
p5674
asS'posix_openpt'
p5675
(lp5676
S'int'
p5677
aS'int'
p5678
asS'fetch_number'
p5679
(lp5680
S'int'
p5681
aS'int *'
p5682
aS'int *'
p5683
aS'unsigned long'
p5684
asS'mkdirat'
p5685
(lp5686
S'int'
p5687
aS'int'
p5688
aS'const char *'
p5689
aS'unsigned int'
p5690
asS'mbtowc'
p5691
(lp5692
S'int'
p5693
aS'int *restrict'
p5694
aS'const char *restrict'
p5695
aS'unsigned long'
p5696
asS'fputc'
p5697
(lp5698
S'int'
p5699
aS'int'
p5700
aS'struct _IO_FILE *'
p5701
asS'iswgraph_l'
p5702
(lp5703
S'int'
p5704
aS'unsigned int'
p5705
aS'struct __locale_struct *'
p5706
asS'__fpending'
p5707
(lp5708
S'int'
p5709
asS'maybe_realloc'
p5710
(lp5711
S'void *'
p5712
aS'void *'
p5713
aS'unsigned long'
p5714
aS'unsigned long *'
p5715
aS'unsigned long'
p5716
asS'atexit'
p5717
(lp5718
S'int'
p5719
aS'void (*)(void)'
p5720
asS'fchownat'
p5721
(lp5722
S'int'
p5723
aS'int'
p5724
aS'const char *'
p5725
aS'unsigned int'
p5726
aS'unsigned int'
p5727
aS'int'
p5728
asS'gpointer'
p5729
(lp5730
S'int'
p5731
asS'close'
p5732
(lp5733
S'int'
p5734
aS'int'
p5735
asS'jrand48'
p5736
(lp5737
S'long'
p5738
aS'unsigned short [3]'
p5739
asS'strchr'
p5740
(lp5741
S'char *'
p5742
aS'const char *'
p5743
aS'int'
p5744
asS're_compile_internal'
p5745
(lp5746
S'int'
p5747
asS'pthread_attr_setdetachstate'
p5748
(lp5749
S'int'
p5750
aS'union pthread_attr_t *'
p5751
aS'int'
p5752
asS'sigaltstack'
p5753
(lp5754
S'int'
p5755
aS'const struct sigaltstack *restrict'
p5756
aS'struct sigaltstack *restrict'
p5757
asS'allocate_entry'
p5758
(lp5759
S'struct hash_entry *'
p5760
aS'int *'
p5761
asS'atoll'
p5762
(lp5763
S'long long'
p5764
aS'const char *'
p5765
asS'w32_sgr2attr'
p5766
(lp5767
S'int'
p5768
aS'const char *'
p5769
asS'sync_file_range'
p5770
(lp5771
S'int'
p5772
aS'int'
p5773
aS'long'
p5774
aS'long'
p5775
aS'unsigned int'
p5776
asS'__lxstat64'
p5777
(lp5778
S'int'
p5779
aS'int'
p5780
aS'const char *'
p5781
aS'struct stat64 *'
p5782
asS'rpl_malloc'
p5783
(lp5784
S'void *'
p5785
aS'unsigned long'
p5786
asS'setresgid'
p5787
(lp5788
S'int'
p5789
aS'unsigned int'
p5790
aS'unsigned int'
p5791
aS'unsigned int'
p5792
asS'rotl32'
p5793
(lp5794
S'int'
p5795
asS'glthread_once_singlethreaded'
p5796
(lp5797
S'int'
p5798
aS'int *'
p5799
asS'getdirentries'
p5800
(lp5801
S'long'
p5802
aS'int'
p5803
aS'char *restrict'
p5804
aS'unsigned long'
p5805
aS'long *restrict'
p5806
asS'ungetwc'
p5807
(lp5808
S'unsigned int'
p5809
aS'unsigned int'
p5810
aS'struct _IO_FILE *'
p5811
asS'set_cloexec_flag'
p5812
(lp5813
S'int'
p5814
aS'int'
p5815
aS'int'
p5816
asS'setbit'
p5817
(lp5818
S'void'
p5819
aS'unsigned int'
p5820
aS'unsigned int [0]'
p5821
asS'futimesat'
p5822
(lp5823
S'int'
p5824
aS'int'
p5825
aS'const char *'
p5826
aS'struct timeval const[2]'
p5827
asS'lstat64'
p5828
(lp5829
S'int'
p5830
aS'const char *restrict'
p5831
aS'struct stat64 *restrict'
p5832
asS'rpl_iconv_close'
p5833
(lp5834
S'int'
p5835
aS'void *'
p5836
asS'sysv_signal'
p5837
(lp5838
S'void (*)(int)'
p5839
aS'int'
p5840
aS'void (*)(int)'
p5841
asS'timer_settime'
p5842
(lp5843
S'int'
p5844
aS'void *'
p5845
aS'int'
p5846
aS'const struct itimerspec *restrict'
p5847
aS'struct itimerspec *restrict'
p5848
asS'gmtime_r'
p5849
(lp5850
S'struct tm *'
p5851
aS'const long *restrict'
p5852
aS'struct tm *restrict'
p5853
asS'_IO_flockfile'
p5854
(lp5855
S'void'
p5856
aS'struct _IO_FILE *'
p5857
asS'fflush_unlocked'
p5858
(lp5859
S'int'
p5860
aS'struct _IO_FILE *'
p5861
asS'putwchar_unlocked'
p5862
(lp5863
S'unsigned int'
p5864
aS'int'
p5865
asS'alloca'
p5866
(lp5867
S'void *'
p5868
aS'unsigned long'
p5869
asS'symlinkat'
p5870
(lp5871
S'int'
p5872
aS'const char *'
p5873
aS'int'
p5874
aS'const char *'
p5875
asS'pread'
p5876
(lp5877
S'long'
p5878
aS'int'
p5879
aS'void *'
p5880
aS'unsigned long'
p5881
aS'long'
p5882
asS'gethostname'
p5883
(lp5884
S'int'
p5885
aS'char *'
p5886
aS'unsigned long'
p5887
asS'raise'
p5888
(lp5889
S'int'
p5890
aS'int'
p5891
asS'gl_locale_name_environ'
p5892
(lp5893
S'int'
p5894
asS'wcscoll_l'
p5895
(lp5896
S'int'
p5897
aS'const int *'
p5898
aS'const int *'
p5899
aS'struct __locale_struct *'
p5900
asS'test_locale_name_thread'
p5901
(lp5902
S'void'
p5903
asS'dup'
p5904
(lp5905
S'int'
p5906
aS'int'
p5907
asS'readdir64'
p5908
(lp5909
S'struct dirent64 *'
p5910
aS'struct __dirstream *'
p5911
asS'strtoumax'
p5912
(lp5913
S'unsigned long'
p5914
aS'const char *restrict'
p5915
aS'char **restrict'
p5916
aS'int'
p5917
asS'execvp'
p5918
(lp5919
S'int'
p5920
aS'const char *'
p5921
aS'char *const[]'
p5922
asS'adjtime'
p5923
(lp5924
S'int'
p5925
aS'const struct timeval *'
p5926
aS'struct timeval *'
p5927
asS'prepend_default_options'
p5928
(lp5929
S'int'
p5930
aS'const char *'
p5931
aS'int *'
p5932
aS'char ***'
p5933
asS'dup_safer'
p5934
(lp5935
S'int'
p5936
aS'int'
p5937
asS'clone_quoting_options'
p5938
(lp5939
S'struct quoting_options *'
p5940
aS'struct quoting_options *'
p5941
asS'execve'
p5942
(lp5943
S'int'
p5944
aS'const char *'
p5945
aS'char *const[]'
p5946
aS'char *const[]'
p5947
asS'quotearg_n_options'
p5948
(lp5949
S'char *'
p5950
aS'int'
p5951
aS'const char *'
p5952
aS'unsigned long'
p5953
aS'const struct quoting_options *'
p5954
asS'pcre16_assign_jit_stack'
p5955
(lp5956
S'void'
p5957
aS'struct pcre16_extra *'
p5958
aS'struct real_pcre16_jit_stack *(*)(void *)'
p5959
aS'void *'
p5960
asS'pcre_config'
p5961
(lp5962
S'int'
p5963
aS'int'
p5964
aS'void *'
p5965
asS'error'
p5966
(lp5967
S'void'
p5968
aS'int'
p5969
aS'int'
p5970
aS'const char *'
p5971
asS'fputwc_unlocked'
p5972
(lp5973
S'unsigned int'
p5974
aS'int'
p5975
aS'struct _IO_FILE *'
p5976
asS'pthread_mutexattr_setprotocol'
p5977
(lp5978
S'int'
p5979
aS'pthread_mutexattr_t *'
p5980
aS'int'
p5981
asS'malloc'
p5982
(lp5983
S'void *'
p5984
aS'unsigned long'
p5985
asS'IS_ABSOLUTE_FILE_NAME'
p5986
(lp5987
S'int'
p5988
asS'fts_load'
p5989
(lp5990
S'void'
p5991
aS'int *'
p5992
aS'int *'
p5993
asS'pthread_spin_lock'
p5994
(lp5995
S'int'
p5996
aS'volatile int *'
p5997
asS'c_isascii'
p5998
(lp5999
S'int'
p6000
asS'sched_getparam'
p6001
(lp6002
S'int'
p6003
aS'int'
p6004
aS'struct sched_param *'
p6005
asS'prtext'
p6006
(lp6007
S'void'
p6008
aS'const char *'
p6009
aS'const char *'
p6010
asS'pcre_maketables'
p6011
(lp6012
S'const unsigned char *'
p6013
asS'test_locale_name_environ'
p6014
(lp6015
S'void'
p6016
asS'skip_remains_mb'
p6017
(lp6018
S'const unsigned char *'
p6019
aS'struct dfa *'
p6020
aS'const unsigned char *'
p6021
aS'const unsigned char *'
p6022
aS'const char *'
p6023
aS'unsigned int *'
p6024
asS'towlower'
p6025
(lp6026
S'unsigned int'
p6027
aS'unsigned int'
p6028
asS'xcharalloc'
p6029
(lp6030
S'int'
p6031
asS'raw_comparator'
p6032
(lp6033
S'int'
p6034
aS'const void *'
p6035
aS'const void *'
p6036
asS'xstr_iconv'
p6037
(lp6038
S'char *'
p6039
aS'const char *'
p6040
aS'const char *'
p6041
aS'const char *'
p6042
asS'pthread_mutexattr_setrobust_np'
p6043
(lp6044
S'int'
p6045
aS'pthread_mutexattr_t *'
p6046
aS'int'
p6047
asS'uc_width'
p6048
(lp6049
S'int'
p6050
asS'quotearg_colon'
p6051
(lp6052
S'int'
p6053
asS'pcre_compile2'
p6054
(lp6055
S'struct real_pcre *'
p6056
aS'const char *'
p6057
aS'int'
p6058
aS'int *'
p6059
aS'const char **'
p6060
aS'int *'
p6061
aS'const unsigned char *'
p6062
asS'clock_getcpuclockid'
p6063
(lp6064
S'int'
p6065
aS'int'
p6066
aS'int *'
p6067
asS'print_line_head'
p6068
(lp6069
S'void'
p6070
aS'const char *'
p6071
aS'const char *'
p6072
aS'char'
p6073
asS'ttyslot'
p6074
(lp6075
S'int'
p6076
asS'leaf_optimization_applies'
p6077
(lp6078
S'_Bool'
p6079
aS'int'
p6080
asS'glthread_rwlock_destroy_multithreaded'
p6081
(lp6082
S'int'
p6083
aS'int *'
p6084
asS'iswprint'
p6085
(lp6086
S'int'
p6087
aS'unsigned int'
p6088
asS'setitimer'
p6089
(lp6090
S'int'
p6091
aS'enum __itimer_which'
p6092
aS'const struct itimerval *restrict'
p6093
aS'struct itimerval *restrict'
p6094
asS'gl_lock_define_initialized'
p6095
(lp6096
S'int'
p6097
aS'int'
p6098
aS'int'
p6099
asS'textdomain'
p6100
(lp6101
S'int'
p6102
asS'truncate64'
p6103
(lp6104
S'int'
p6105
aS'const char *'
p6106
aS'long'
p6107
asS'mempcpy'
p6108
(lp6109
S'void *'
p6110
aS'void *restrict'
p6111
aS'const void *restrict'
p6112
aS'unsigned long'
p6113
asS'check_flags'
p6114
(lp6115
S'void'
p6116
asS'wcpcpy'
p6117
(lp6118
S'int *'
p6119
aS'int *restrict'
p6120
aS'const int *restrict'
p6121
asS'print_and_abort'
p6122
(lp6123
S'void'
p6124
asS'mkstemps64'
p6125
(lp6126
S'int'
p6127
aS'char *'
p6128
aS'int'
p6129
asS'wctrans'
p6130
(lp6131
S'const int *'
p6132
aS'const char *'
p6133
asS'rpl_getcwd'
p6134
(lp6135
S'char *'
p6136
aS'char *'
p6137
aS'unsigned long'
p6138
asS'pthread_mutexattr_getpshared'
p6139
(lp6140
S'int'
p6141
aS'const pthread_mutexattr_t *restrict'
p6142
aS'int *restrict'
p6143
asS'fflush'
p6144
(lp6145
S'int'
p6146
aS'struct _IO_FILE *'
p6147
asS'pcre_get_substring_list'
p6148
(lp6149
S'int'
p6150
aS'const char *'
p6151
aS'int *'
p6152
aS'int'
p6153
aS'const char ***'
p6154
asS'w32_clreol'
p6155
(lp6156
S'void'
p6157
asS'ldiv'
p6158
(lp6159
S'ldiv_t'
p6160
aS'long'
p6161
aS'long'
p6162
asS'set_program_name'
p6163
(lp6164
S'int'
p6165
asS'proper_name_utf8'
p6166
(lp6167
S'const char *'
p6168
aS'const char *'
p6169
aS'const char *'
p6170
asS'strptime_l'
p6171
(lp6172
S'char *'
p6173
aS'const char *restrict'
p6174
aS'const char *restrict'
p6175
aS'struct tm *'
p6176
aS'struct __locale_struct *'
p6177
asS'pthread_rwlockattr_init'
p6178
(lp6179
S'int'
p6180
aS'pthread_rwlockattr_t *'
p6181
asS're_search'
p6182
(lp6183
S'int'
p6184
aS'struct re_pattern_buffer *'
p6185
aS'const char *'
p6186
aS'int'
p6187
aS'int'
p6188
aS'int'
p6189
aS'struct re_registers *'
p6190
asS'_getopt_internal_r'
p6191
(lp6192
S'int'
p6193
asS'toascii'
p6194
(lp6195
S'int'
p6196
aS'int'
p6197
asS'ensure_dirs_slot'
p6198
(lp6199
S'_Bool'
p6200
aS'unsigned long'
p6201
asS'strstr'
p6202
(lp6203
S'char *'
p6204
aS'const char *'
p6205
aS'const char *'
p6206
asS'renameat'
p6207
(lp6208
S'int'
p6209
aS'int'
p6210
aS'const char *'
p6211
aS'int'
p6212
aS'const char *'
p6213
asS'__sched_cpualloc'
p6214
(lp6215
S'cpu_set_t *'
p6216
aS'unsigned long'
p6217
asS'signal'
p6218
(lp6219
S'void (*)(int)'
p6220
aS'int'
p6221
aS'void (*)(int)'
p6222
asS'memmove'
p6223
(lp6224
S'void *'
p6225
aS'void *'
p6226
aS'const void *'
p6227
aS'unsigned long'
p6228
asS'test_long_double'
p6229
(lp6230
S'void'
p6231
asS'setegid'
p6232
(lp6233
S'int'
p6234
aS'unsigned int'
p6235
asS'_IO_vfprintf'
p6236
(lp6237
S'int'
p6238
aS'struct _IO_FILE *restrict'
p6239
aS'const char *restrict'
p6240
aS'struct __va_list_tag [1]'
p6241
asS'tempnam'
p6242
(lp6243
S'char *'
p6244
aS'const char *'
p6245
aS'const char *'
p6246
asS'tmpfile'
p6247
(lp6248
S'struct _IO_FILE *'
p6249
asS'c_isspace'
p6250
(lp6251
S'int'
p6252
asS'mrand48'
p6253
(lp6254
S'long'
p6255
asS'ftruncate64'
p6256
(lp6257
S'int'
p6258
aS'int'
p6259
aS'long'
p6260
asS'_unsetenv'
p6261
(lp6262
S'int'
p6263
aS'const char *'
p6264
asS'end_pattern'
p6265
(lp6266
S'const char *'
p6267
aS'const char *'
p6268
asS'openat_proc_name'
p6269
(lp6270
S'char *'
p6271
aS'char'
p6272
aS'int'
p6273
aS'const char *'
p6274
asS'qecvt_r'
p6275
(lp6276
S'int'
p6277
aS'long double'
p6278
aS'int'
p6279
aS'int *restrict'
p6280
aS'int *restrict'
p6281
aS'char *restrict'
p6282
aS'unsigned long'
p6283
asS'strip_trailing_slashes'
p6284
(lp6285
S'int'
p6286
aS'char *'
p6287
asS'using_utf8'
p6288
(lp6289
S'int'
p6290
asS'is_char_class'
p6291
(lp6292
S'unsigned long'
p6293
aS'const int *'
p6294
asS'bmexec'
p6295
(lp6296
S'unsigned long'
p6297
aS'struct kwset *'
p6298
aS'const char *'
p6299
aS'unsigned long'
p6300
asS'calc_next'
p6301
(lp6302
S'reg_errcode_t'
p6303
aS'void *'
p6304
aS'int *'
p6305
asS'timer_gettime'
p6306
(lp6307
S'int'
p6308
aS'void *'
p6309
aS'struct itimerspec *'
p6310
asS'mkfifoat'
p6311
(lp6312
S'int'
p6313
aS'int'
p6314
aS'const char *'
p6315
aS'unsigned int'
p6316
asS'_Qp_itoq'
p6317
(lp6318
S'void'
p6319
aS'long double *'
p6320
aS'int'
p6321
asS'_gl_directory_name'
p6322
(lp6323
S'const char *'
p6324
aS'int'
p6325
asS'TYPE_MAXIMUM'
p6326
(lp6327
S'int'
p6328
asS'rpl_getdtablesize'
p6329
(lp6330
S'int'
p6331
asS'bsearch'
p6332
(lp6333
S'void *'
p6334
aS'const void *'
p6335
aS'const void *'
p6336
aS'unsigned long'
p6337
aS'unsigned long'
p6338
aS'int (*)(const void *, const void *)'
p6339
asS'open_safer'
p6340
(lp6341
S'int'
p6342
aS'const char *'
p6343
aS'int'
p6344
asS'gethostid'
p6345
(lp6346
S'long'
p6347
asS'fopen'
p6348
(lp6349
S'struct _IO_FILE *'
p6350
aS'const char *restrict'
p6351
aS'const char *restrict'
p6352
asS'memccpy'
p6353
(lp6354
S'void *'
p6355
aS'void *restrict'
p6356
aS'const void *restrict'
p6357
aS'int'
p6358
aS'unsigned long'
p6359
asS'__xargmatch_internal'
p6360
(lp6361
S'int'
p6362
aS'const char *'
p6363
aS'const char *'
p6364
aS'const char *const *'
p6365
aS'const char *'
p6366
aS'unsigned long'
p6367
aS'int'
p6368
asS'analyze'
p6369
(lp6370
S'reg_errcode_t'
p6371
aS'struct re_pattern_buffer *'
p6372
asS'vprintf'
p6373
(lp6374
S'int'
p6375
aS'const char *restrict'
p6376
aS'struct __va_list_tag [1]'
p6377
asS'emit_bug_reporting_address'
p6378
(lp6379
S'void'
p6380
asS'rpl_lseek'
p6381
(lp6382
S'long'
p6383
aS'int'
p6384
aS'long'
p6385
aS'int'
p6386
asS'atoi'
p6387
(lp6388
S'int'
p6389
aS'const char *'
p6390
asS'link'
p6391
(lp6392
S'int'
p6393
aS'const char *'
p6394
aS'const char *'
p6395
asS'vfprintf'
p6396
(lp6397
S'int'
p6398
aS'struct _IO_FILE *restrict'
p6399
aS'const char *restrict'
p6400
aS'struct __va_list_tag [1]'
p6401
asS'atol'
p6402
(lp6403
S'long'
p6404
aS'const char *'
p6405
asS'atom'
p6406
(lp6407
S'void'
p6408
asS'atof'
p6409
(lp6410
S'double'
p6411
aS'const char *'
p6412
asS'STREQ'
p6413
(lp6414
S'int'
p6415
asS'erand48'
p6416
(lp6417
S'double'
p6418
aS'unsigned short [3]'
p6419
asS'alloc_position_set'
p6420
(lp6421
S'void'
p6422
aS'position_set *'
p6423
aS'unsigned long'
p6424
asS'wcstol'
p6425
(lp6426
S'long'
p6427
aS'const int *restrict'
p6428
aS'int **restrict'
p6429
aS'int'
p6430
asS'pthread_yield'
p6431
(lp6432
S'int'
p6433
asS'duplicate_node'
p6434
(lp6435
S'int'
p6436
aS'int *'
p6437
aS'int'
p6438
aS'unsigned int'
p6439
asS'imaxdiv'
p6440
(lp6441
S'imaxdiv_t'
p6442
aS'long'
p6443
aS'long'
p6444
asS'ungetc'
p6445
(lp6446
S'int'
p6447
aS'int'
p6448
aS'struct _IO_FILE *'
p6449
asS'pthread_rwlock_init'
p6450
(lp6451
S'int'
p6452
aS'pthread_rwlock_t *restrict'
p6453
aS'const pthread_rwlockattr_t *restrict'
p6454
asS'dfaexec_sb'
p6455
(lp6456
S'char *'
p6457
aS'struct dfa *'
p6458
aS'const char *'
p6459
aS'char *'
p6460
aS'int'
p6461
aS'unsigned long *'
p6462
aS'int *'
p6463
asS'transfer_entries'
p6464
(lp6465
S'int'
p6466
aS'int *'
p6467
aS'int *'
p6468
aS'int'
p6469
asS'ffsl'
p6470
(lp6471
S'int'
p6472
aS'long'
p6473
asS'pthread_barrierattr_getpshared'
p6474
(lp6475
S'int'
p6476
aS'const pthread_barrierattr_t *restrict'
p6477
aS'int *restrict'
p6478
asS'fread'
p6479
(lp6480
S'unsigned long'
p6481
aS'void *restrict'
p6482
aS'unsigned long'
p6483
aS'unsigned long'
p6484
aS'struct _IO_FILE *restrict'
p6485
asS'pcre_copy_named_substring'
p6486
(lp6487
S'int'
p6488
aS'const struct real_pcre *'
p6489
aS'const char *'
p6490
aS'int *'
p6491
aS'int'
p6492
aS'const char *'
p6493
aS'char *'
p6494
aS'int'
p6495
asS'pread64'
p6496
(lp6497
S'long'
p6498
aS'int'
p6499
aS'void *'
p6500
aS'unsigned long'
p6501
aS'long'
p6502
asS'isdigit'
p6503
(lp6504
S'int'
p6505
aS'int'
p6506
asS'stat64'
p6507
(lp6508
S'int'
p6509
aS'const char *restrict'
p6510
aS'struct stat64 *restrict'
p6511
asS'is_nonblocking'
p6512
(lp6513
S'_Bool'
p6514
aS'int'
p6515
asS'crypt'
p6516
(lp6517
S'char *'
p6518
aS'const char *'
p6519
aS'const char *'
p6520
asS'transit_state_consume_1char'
p6521
(lp6522
S'status_transit_state'
p6523
aS'struct dfa *'
p6524
aS'long'
p6525
aS'const unsigned char **'
p6526
aS'unsigned int'
p6527
aS'unsigned long'
p6528
aS'int *'
p6529
asS'xstrdup'
p6530
(lp6531
S'char *'
p6532
aS'const char *'
p6533
asS'quotearg_colon_mem'
p6534
(lp6535
S'char *'
p6536
aS'const char *'
p6537
aS'unsigned long'
p6538
asS'nice'
p6539
(lp6540
S'int'
p6541
aS'int'
p6542
asS'__strtoull_internal'
p6543
(lp6544
S'unsigned long long'
p6545
aS'const char *'
p6546
aS'char **'
p6547
aS'int'
p6548
aS'int'
p6549
asS'sigsuspend'
p6550
(lp6551
S'int'
p6552
aS'const __sigset_t *'
p6553
asS'__ctype_toupper_loc'
p6554
(lp6555
S'const int **'
p6556
asS'statfs64'
p6557
(lp6558
S'int'
p6559
aS'const char *'
p6560
aS'struct statfs64 *'
p6561
asS'INT_ADD_OVERFLOW'
p6562
(lp6563
S'int'
p6564
asS'closedir'
p6565
(lp6566
S'int'
p6567
aS'struct __dirstream *'
p6568
asS'INT_MULTIPLY_OVERFLOW'
p6569
(lp6570
S'int'
p6571
asS'mkostemp64'
p6572
(lp6573
S'int'
p6574
aS'char *'
p6575
aS'int'
p6576
asS'gettimeofday'
p6577
(lp6578
S'int'
p6579
aS'struct timeval *restrict'
p6580
aS'struct timezone *restrict'
p6581
asS'print_sep'
p6582
(lp6583
S'void'
p6584
aS'char'
p6585
asS'skipped_file'
p6586
(lp6587
S'_Bool'
p6588
aS'const char *'
p6589
aS'_Bool'
p6590
aS'_Bool'
p6591
asS'AD_hash'
p6592
(lp6593
S'unsigned long'
p6594
aS'const void *'
p6595
aS'unsigned long'
p6596
asS'mkstemps'
p6597
(lp6598
S'int'
p6599
aS'char *'
p6600
aS'int'
p6601
asS'pthread_mutex_lock'
p6602
(lp6603
S'int'
p6604
aS'pthread_mutex_t *'
p6605
asS'towlower_l'
p6606
(lp6607
S'unsigned int'
p6608
aS'unsigned int'
p6609
aS'struct __locale_struct *'
p6610
asS'do_allocation'
p6611
(lp6612
S'void'
p6613
aS'int'
p6614
asS'getline'
p6615
(lp6616
S'long'
p6617
aS'char **restrict'
p6618
aS'unsigned long *restrict'
p6619
aS'struct _IO_FILE *restrict'
p6620
asS'func2'
p6621
(lp6622
S'int'
p6623
aS'int'
p6624
asS'func1'
p6625
(lp6626
S'int'
p6627
aS'int'
p6628
asS'pcre16_fullinfo'
p6629
(lp6630
S'int'
p6631
aS'const struct real_pcre16 *'
p6632
aS'const struct pcre16_extra *'
p6633
aS'int'
p6634
aS'void *'
p6635
asS'pthread_setspecific'
p6636
(lp6637
S'int'
p6638
aS'unsigned int'
p6639
aS'const void *'
p6640
asS'_IO_putc'
p6641
(lp6642
S'int'
p6643
aS'int'
p6644
aS'struct _IO_FILE *'
p6645
asS'pthread_rwlockattr_destroy'
p6646
(lp6647
S'int'
p6648
aS'pthread_rwlockattr_t *'
p6649
asS'charclass_index'
p6650
(lp6651
S'unsigned long'
p6652
aS'unsigned int const[0]'
p6653
asS'pcre16_copy_substring'
p6654
(lp6655
S'int'
p6656
aS'const unsigned short *'
p6657
aS'int *'
p6658
aS'int'
p6659
aS'int'
p6660
aS'unsigned short *'
p6661
aS'int'
p6662
asS'cdb_advance_fd'
p6663
(lp6664
S'int'
p6665
aS'struct cd_buf *'
p6666
aS'const char *'
p6667
asS'hash_freer'
p6668
(lp6669
S'void'
p6670
aS'void *'
p6671
asS'getumask'
p6672
(lp6673
S'unsigned int'
p6674
asS're_free'
p6675
(lp6676
S'int'
p6677
asS'setlogin'
p6678
(lp6679
S'int'
p6680
aS'const char *'
p6681
asS'sigorset'
p6682
(lp6683
S'int'
p6684
aS'__sigset_t *'
p6685
aS'const __sigset_t *'
p6686
aS'const __sigset_t *'
p6687
asS'isblank'
p6688
(lp6689
S'int'
p6690
aS'int'
p6691
asS'ttyname'
p6692
(lp6693
S'char *'
p6694
aS'int'
p6695
asS'snprintf'
p6696
(lp6697
S'int'
p6698
aS'char *restrict'
p6699
aS'unsigned long'
p6700
aS'const char *restrict'
p6701
asS'memset'
p6702
(lp6703
S'void *'
p6704
aS'void *'
p6705
aS'int'
p6706
aS'unsigned long'
p6707
asS'pcre16_jit_stack_alloc'
p6708
(lp6709
S'struct real_pcre16_jit_stack *'
p6710
aS'int'
p6711
aS'int'
p6712
asS'pthread_setconcurrency'
p6713
(lp6714
S'int'
p6715
aS'int'
p6716
asS'strcasestr'
p6717
(lp6718
S'char *'
p6719
aS'const char *'
p6720
aS'const char *'
p6721
asS'mkostemps'
p6722
(lp6723
S'int'
p6724
aS'char *'
p6725
aS'int'
p6726
aS'int'
p6727
asS'__ctype_get_mb_cur_max'
p6728
(lp6729
S'unsigned long'
p6730
asS'calc_inveclosure'
p6731
(lp6732
S'reg_errcode_t'
p6733
aS'int *'
p6734
asS'mktemp'
p6735
(lp6736
S'char *'
p6737
aS'char *'
p6738
asS'index'
p6739
(lp6740
S'char *'
p6741
aS'const char *'
p6742
aS'int'
p6743
asS'bkm_scale_by_power'
p6744
(lp6745
S'int'
p6746
aS'long *'
p6747
aS'int'
p6748
aS'int'
p6749
asS'hash_get_n_buckets_used'
p6750
(lp6751
S'unsigned long'
p6752
aS'const int *'
p6753
asS'access'
p6754
(lp6755
S'int'
p6756
aS'const char *'
p6757
aS'int'
p6758
asS'grantpt'
p6759
(lp6760
S'int'
p6761
aS'int'
p6762
asS'settimeofday'
p6763
(lp6764
S'int'
p6765
aS'const struct timeval *'
p6766
aS'const struct timezone *'
p6767
asS'check_tuning'
p6768
(lp6769
S'int'
p6770
aS'int *'
p6771
asS'exchange'
p6772
(lp6773
S'void'
p6774
aS'char **'
p6775
aS'struct _getopt_data *'
p6776
asS'mbsinit'
p6777
(lp6778
S'int'
p6779
aS'const __mbstate_t *'
p6780
asS'lex'
p6781
(lp6782
S'long'
p6783
asS'fgetws_unlocked'
p6784
(lp6785
S'int *'
p6786
aS'int *restrict'
p6787
aS'int'
p6788
aS'struct _IO_FILE *restrict'
p6789
asS'pipe2'
p6790
(lp6791
S'int'
p6792
aS'int [2]'
p6793
aS'int'
p6794
asS'sethostid'
p6795
(lp6796
S'int'
p6797
aS'long'
p6798
asS'rpl_dup2'
p6799
(lp6800
S'int'
p6801
aS'int'
p6802
aS'int'
p6803
asS'psignal'
p6804
(lp6805
S'void'
p6806
aS'int'
p6807
aS'const char *'
p6808
asS'set_custom_quoting'
p6809
(lp6810
S'int'
p6811
asS'S_ISWHT'
p6812
(lp6813
S'int'
p6814
asS'realloc'
p6815
(lp6816
S'void *'
p6817
aS'void *'
p6818
aS'unsigned long'
p6819
asS'get_charset_aliases'
p6820
(lp6821
S'const char *'
p6822
asS'sched_rr_get_interval'
p6823
(lp6824
S'int'
p6825
aS'int'
p6826
aS'struct timespec *'
p6827
asS'regexp'
p6828
(lp6829
S'void'
p6830
asS'fmemopen'
p6831
(lp6832
S'struct _IO_FILE *'
p6833
aS'void *'
p6834
aS'unsigned long'
p6835
aS'const char *'
p6836
asS'getpriority'
p6837
(lp6838
S'int'
p6839
aS'enum __priority_which'
p6840
aS'unsigned int'
p6841
asS'lrand48_r'
p6842
(lp6843
S'int'
p6844
aS'struct drand48_data *restrict'
p6845
aS'long *restrict'
p6846
asS'free_dfa_content'
p6847
(lp6848
S'void'
p6849
aS'int *'
p6850
asS'set_char_quoting'
p6851
(lp6852
S'int'
p6853
aS'struct quoting_options *'
p6854
aS'char'
p6855
aS'int'
p6856
asS'wcstoimax'
p6857
(lp6858
S'long'
p6859
aS'const int *restrict'
p6860
aS'int **restrict'
p6861
aS'int'
p6862
asS'islower_l'
p6863
(lp6864
S'int'
p6865
aS'int'
p6866
aS'struct __locale_struct *'
p6867
asS'sigset'
p6868
(lp6869
S'void (*)(int)'
p6870
aS'int'
p6871
aS'void (*)(int)'
p6872
asS'isgraph_l'
p6873
(lp6874
S'int'
p6875
aS'int'
p6876
aS'struct __locale_struct *'
p6877
asS'sched_getscheduler'
p6878
(lp6879
S'int'
p6880
aS'int'
p6881
asS'pcre16_maketables'
p6882
(lp6883
S'const unsigned char *'
p6884
asS'rotl16'
p6885
(lp6886
S'int'
p6887
asS'duplicate_tree'
p6888
(lp6889
S'int *'
p6890
aS'const int *'
p6891
aS'int *'
p6892
asS'erand48_r'
p6893
(lp6894
S'int'
p6895
aS'unsigned short [3]'
p6896
aS'struct drand48_data *restrict'
p6897
aS'double *restrict'
p6898
asS'chdir'
p6899
(lp6900
S'int'
p6901
aS'const char *'
p6902
asS'strftime_l'
p6903
(lp6904
S'unsigned long'
p6905
aS'char *restrict'
p6906
aS'unsigned long'
p6907
aS'const char *restrict'
p6908
aS'const struct tm *restrict'
p6909
aS'struct __locale_struct *'
p6910
asS'__errno_location'
p6911
(lp6912
S'int *'
p6913
asS'iswlower'
p6914
(lp6915
S'int'
p6916
aS'unsigned int'
p6917
asS'fstat'
p6918
(lp6919
S'int'
p6920
aS'int'
p6921
aS'struct stat *'
p6922
asS'openat_save_fail'
p6923
(lp6924
S'void'
p6925
aS'int'
p6926
asS'abort'
p6927
(lp6928
S'void'
p6929
asS'version_etc'
p6930
(lp6931
S'void'
p6932
aS'struct _IO_FILE *'
p6933
aS'const char *'
p6934
aS'const char *'
p6935
aS'const char *'
p6936
asS'doInt'
p6937
(lp6938
S'int'
p6939
asS'dos_binary'
p6940
(lp6941
S'void'
p6942
asS'mb_clen'
p6943
(lp6944
S'unsigned long'
p6945
aS'const char *'
p6946
aS'unsigned long'
p6947
aS'__mbstate_t *'
p6948
asS'rpl_openat'
p6949
(lp6950
S'int'
p6951
aS'int'
p6952
aS'const char *'
p6953
aS'int'
p6954
asS'wprintf'
p6955
(lp6956
S'int'
p6957
aS'const int *restrict'
p6958
asS'fprintf'
p6959
(lp6960
S'int'
p6961
aS'struct _IO_FILE *restrict'
p6962
aS'const char *restrict'
p6963
asS'__sigaddset'
p6964
(lp6965
S'int'
p6966
aS'__sigset_t *'
p6967
aS'int'
p6968
asS'towupper'
p6969
(lp6970
S'unsigned int'
p6971
aS'unsigned int'
p6972
asS're_search_2_stub'
p6973
(lp6974
S'int'
p6975
aS'struct re_pattern_buffer *'
p6976
aS'const char *'
p6977
aS'int'
p6978
aS'const char *'
p6979
aS'int'
p6980
aS'int'
p6981
aS'int'
p6982
aS'struct re_registers *'
p6983
aS'int'
p6984
aS'int'
p6985
asS'timespec_get'
p6986
(lp6987
S'int'
p6988
aS'struct timespec *'
p6989
aS'int'
p6990
asS'towctrans_l'
p6991
(lp6992
S'unsigned int'
p6993
aS'unsigned int'
p6994
aS'const int *'
p6995
aS'struct __locale_struct *'
p6996
asS'dup3'
p6997
(lp6998
S'int'
p6999
aS'int'
p7000
aS'int'
p7001
aS'int'
p7002
asS'lcong48'
p7003
(lp7004
S'void'
p7005
aS'unsigned short [7]'
p7006
asS'STRCASEEQ'
p7007
(lp7008
S'int'
p7009
asS'rotl8'
p7010
(lp7011
S'int'
p7012
asS'wmemchr'
p7013
(lp7014
S'int *'
p7015
aS'const int *'
p7016
aS'int'
p7017
aS'unsigned long'
p7018
asS'on_exit'
p7019
(lp7020
S'int'
p7021
aS'void (*)(int, void *)'
p7022
aS'void *'
p7023
asS'g_on_error_query'
p7024
(lp7025
S'void'
p7026
aS'const int *'
p7027
asS'vasprintf'
p7028
(lp7029
S'int'
p7030
aS'char **restrict'
p7031
aS'const char *restrict'
p7032
aS'struct __va_list_tag [1]'
p7033
asS'_IO_free_backup_area'
p7034
(lp7035
S'void'
p7036
aS'struct _IO_FILE *'
p7037
asS'random_r'
p7038
(lp7039
S'int'
p7040
aS'struct random_data *restrict'
p7041
aS'int *restrict'
p7042
asS'string_free'
p7043
(lp7044
S'void'
p7045
aS'void *'
p7046
asS'iconv_close'
p7047
(lp7048
S'int'
p7049
aS'void *'
p7050
asS'pwrite'
p7051
(lp7052
S'long'
p7053
aS'int'
p7054
aS'const void *'
p7055
aS'unsigned long'
p7056
aS'long'
p7057
asS'kwsfree'
p7058
(lp7059
S'void'
p7060
aS'struct kwset *'
p7061
asS'quotearg_custom_mem'
p7062
(lp7063
S'char *'
p7064
aS'const char *'
p7065
aS'const char *'
p7066
aS'const char *'
p7067
aS'unsigned long'
p7068
asS'fnmatch_no_wildcards'
p7069
(lp7070
S'int'
p7071
aS'const char *'
p7072
aS'const char *'
p7073
aS'int'
p7074
asS'wctype_l'
p7075
(lp7076
S'unsigned long'
p7077
aS'const char *'
p7078
aS'struct __locale_struct *'
p7079
asS'syncfs'
p7080
(lp7081
S'int'
p7082
aS'int'
p7083
asS'getdomainname'
p7084
(lp7085
S'int'
p7086
aS'char *'
p7087
aS'unsigned long'
p7088
asS'quote_n_mem'
p7089
(lp7090
S'const char *'
p7091
aS'int'
p7092
aS'const char *'
p7093
aS'unsigned long'
p7094
asS'execle'
p7095
(lp7096
S'int'
p7097
aS'const char *'
p7098
aS'const char *'
p7099
asS'xrealloc'
p7100
(lp7101
S'int'
p7102
asS'grepdirent'
p7103
(lp7104
S'_Bool'
p7105
aS'int *'
p7106
aS'int *'
p7107
aS'_Bool'
p7108
asS'pthread_kill'
p7109
(lp7110
S'int'
p7111
aS'unsigned long'
p7112
aS'int'
p7113
asS'execlp'
p7114
(lp7115
S'int'
p7116
aS'const char *'
p7117
aS'const char *'
p7118
asS'restore_cwd'
p7119
(lp7120
S'int'
p7121
aS'const struct saved_cwd *'
p7122
asS'is_zero_or_power_of_two'
p7123
(lp7124
S'_Bool'
p7125
aS'int'
p7126
asS'dfasuperset'
p7127
(lp7128
S'struct dfa *'
p7129
aS'const struct dfa *'
p7130
asS'obstack_printf'
p7131
(lp7132
S'int'
p7133
aS'struct obstack *restrict'
p7134
aS'const char *restrict'
p7135
asS'quotearg_n_mem'
p7136
(lp7137
S'char *'
p7138
aS'int'
p7139
aS'const char *'
p7140
aS'unsigned long'
p7141
asS'pthread_mutexattr_setpshared'
p7142
(lp7143
S'int'
p7144
aS'pthread_mutexattr_t *'
p7145
aS'int'
p7146
asS'readlinkat'
p7147
(lp7148
S'long'
p7149
aS'int'
p7150
aS'const char *restrict'
p7151
aS'char *restrict'
p7152
aS'unsigned long'
p7153
asS'c_strcasecmp'
p7154
(lp7155
S'int'
p7156
aS'const char *'
p7157
aS'const char *'
p7158
asS'rewinddir'
p7159
(lp7160
S'void'
p7161
aS'struct __dirstream *'
p7162
asS'add_exclude'
p7163
(lp7164
S'void'
p7165
aS'struct exclude *'
p7166
aS'const char *'
p7167
aS'int'
p7168
asS'S_ISMPX'
p7169
(lp7170
S'int'
p7171
asS'pthread_attr_getschedparam'
p7172
(lp7173
S'int'
p7174
aS'const union pthread_attr_t *restrict'
p7175
aS'struct sched_param *restrict'
p7176
asS'merge'
p7177
(lp7178
S'void'
p7179
aS'const position_set *'
p7180
aS'const position_set *'
p7181
aS'position_set *'
p7182
asS'_getopt_long_r'
p7183
(lp7184
S'int'
p7185
aS'int'
p7186
aS'char **'
p7187
aS'const char *'
p7188
aS'const struct option *'
p7189
aS'int *'
p7190
aS'struct _getopt_data *'
p7191
asS'S_ISMPB'
p7192
(lp7193
S'int'
p7194
asS'pcre16_compile'
p7195
(lp7196
S'struct real_pcre16 *'
p7197
aS'const unsigned short *'
p7198
aS'int'
p7199
aS'const char **'
p7200
aS'int *'
p7201
aS'const unsigned char *'
p7202
asS'mkfifo'
p7203
(lp7204
S'int'
p7205
aS'const char *'
p7206
aS'unsigned int'
p7207
asS'quote_n'
p7208
(lp7209
S'const char *'
p7210
aS'int'
p7211
aS'const char *'
p7212
asS'unescape_pattern'
p7213
(lp7214
S'void'
p7215
aS'char *'
p7216
asS'sigemptyset'
p7217
(lp7218
S'int'
p7219
aS'__sigset_t *'
p7220
asS'LCO_compare'
p7221
(lp7222
S'_Bool'
p7223
aS'const void *'
p7224
aS'const void *'
p7225
asS'killpg'
p7226
(lp7227
S'int'
p7228
aS'int'
p7229
aS'int'
p7230
asS'isdigit_l'
p7231
(lp7232
S'int'
p7233
aS'int'
p7234
aS'struct __locale_struct *'
p7235
asS'g_date_time_add_seconds'
p7236
(lp7237
S'struct _GDateTime *'
p7238
aS'struct _GDateTime *'
p7239
aS'int'
p7240
asS'pthread_key_delete'
p7241
(lp7242
S'int'
p7243
aS'unsigned int'
p7244
asS'hash_table_ok'
p7245
(lp7246
S'int'
p7247
aS'const int *'
p7248
asS'dirent_inode_sort_may_be_useful'
p7249
(lp7250
S'_Bool'
p7251
aS'int'
p7252
asS'xnrealloc'
p7253
(lp7254
S'int'
p7255
asS'quote_mem'
p7256
(lp7257
S'const char *'
p7258
aS'const char *'
p7259
aS'unsigned long'
p7260
asS'_getopt_internal'
p7261
(lp7262
S'int'
p7263
aS'int'
p7264
aS'char **'
p7265
aS'const char *'
p7266
aS'const struct option *'
p7267
aS'int *'
p7268
aS'int'
p7269
aS'int'
p7270
asS'_IO_cookie_init'
p7271
(lp7272
S'void'
p7273
aS'struct _IO_cookie_file *'
p7274
aS'int'
p7275
aS'void *'
p7276
aS'_IO_cookie_io_functions_t'
p7277
asS'pcre_free_study'
p7278
(lp7279
S'void'
p7280
aS'struct pcre_extra *'
p7281
asS'fseeko'
p7282
(lp7283
S'int'
p7284
aS'struct _IO_FILE *'
p7285
aS'long'
p7286
aS'int'
p7287
asS'glthread_rwlock_init_multithreaded'
p7288
(lp7289
S'int'
p7290
aS'int *'
p7291
asS'sigsetmask'
p7292
(lp7293
S'int'
p7294
aS'int'
p7295
asS'pthread_rwlock_wrlock'
p7296
(lp7297
S'int'
p7298
aS'pthread_rwlock_t *'
p7299
asS'string_compare_ci'
p7300
(lp7301
S'_Bool'
p7302
aS'const void *'
p7303
aS'const void *'
p7304
asS'bcopy'
p7305
(lp7306
S'void'
p7307
aS'const void *'
p7308
aS'void *'
p7309
aS'unsigned long'
p7310
asS'rpl_lstat'
p7311
(lp7312
S'int'
p7313
aS'const char *'
p7314
aS'struct stat *'
p7315
asS'getopt_long'
p7316
(lp7317
S'int'
p7318
aS'int'
p7319
aS'char *const *'
p7320
aS'const char *'
p7321
aS'const struct option *'
p7322
aS'int *'
p7323
asS'setup_dir'
p7324
(lp7325
S'_Bool'
p7326
aS'int *'
p7327
asS'scanf'
p7328
(lp7329
S'int'
p7330
aS'const char *restrict'
p7331
asS'mkdir'
p7332
(lp7333
S'int'
p7334
aS'const char *'
p7335
aS'unsigned int'
p7336
asS'system'
p7337
(lp7338
S'int'
p7339
aS'const char *'
p7340
asS'next_prime'
p7341
(lp7342
S'unsigned long'
p7343
aS'unsigned long'
p7344
asS'exclude_fnmatch'
p7345
(lp7346
S'_Bool'
p7347
aS'const char *'
p7348
aS'const char *'
p7349
aS'int'
p7350
asS'mkstemp64'
p7351
(lp7352
S'int'
p7353
aS'char *'
p7354
asS'secure_getenv'
p7355
(lp7356
S'char *'
p7357
aS'const char *'
p7358
asS'rpl_iconv_open'
p7359
(lp7360
S'void *'
p7361
aS'const char *'
p7362
aS'const char *'
p7363
asS'dcngettext'
p7364
(lp7365
S'char *'
p7366
aS'const char *'
p7367
aS'const char *'
p7368
aS'const char *'
p7369
aS'unsigned long'
p7370
aS'int'
p7371
asS'__sigismember'
p7372
(lp7373
S'int'
p7374
aS'const __sigset_t *'
p7375
aS'int'
p7376
asS'fscanf'
p7377
(lp7378
S'int'
p7379
aS'struct _IO_FILE *restrict'
p7380
aS'const char *restrict'
p7381
asS'ignore_value'
p7382
(lp7383
S'int'
p7384
asS'quick_exit'
p7385
(lp7386
S'void'
p7387
aS'int'
p7388
asS'fexecve'
p7389
(lp7390
S'int'
p7391
aS'int'
p7392
aS'char *const[]'
p7393
aS'char *const[]'
p7394
asS'__assert_fail'
p7395
(lp7396
S'void'
p7397
aS'const char *'
p7398
aS'const char *'
p7399
aS'unsigned int'
p7400
aS'const char *'
p7401
asS'wcstoul'
p7402
(lp7403
S'unsigned long'
p7404
aS'const int *restrict'
p7405
aS'int **restrict'
p7406
aS'int'
p7407
asS'pcre16_get_named_substring'
p7408
(lp7409
S'int'
p7410
aS'const struct real_pcre16 *'
p7411
aS'const unsigned short *'
p7412
aS'int *'
p7413
aS'int'
p7414
aS'const unsigned short *'
p7415
aS'const unsigned short **'
p7416
asS'wcswidth'
p7417
(lp7418
S'int'
p7419
aS'const int *'
p7420
aS'unsigned long'
p7421
asS'clean_up_stdout'
p7422
(lp7423
S'void'
p7424
asS'wcstouq'
p7425
(lp7426
S'unsigned long long'
p7427
aS'const int *restrict'
p7428
aS'int **restrict'
p7429
aS'int'
p7430
asS'bindtextdomain'
p7431
(lp7432
S'char *'
p7433
aS'const char *'
p7434
aS'const char *'
p7435
asS'dos_unix_byte_offsets'
p7436
(lp7437
S'void'
p7438
asS'finish_interval'
p7439
(lp7440
S'void'
p7441
asS'fseek'
p7442
(lp7443
S'int'
p7444
aS'struct _IO_FILE *'
p7445
aS'long'
p7446
aS'int'
p7447
asS'getopt_long_only'
p7448
(lp7449
S'int'
p7450
aS'int'
p7451
aS'char *const *'
p7452
aS'const char *'
p7453
aS'const struct option *'
p7454
aS'int *'
p7455
asS'_obstack_newchunk'
p7456
(lp7457
S'void'
p7458
aS'struct obstack *'
p7459
aS'int'
p7460
asS'tolower'
p7461
(lp7462
S'int'
p7463
aS'int'
p7464
asS'dfafree'
p7465
(lp7466
S'void'
p7467
aS'struct dfa *'
p7468
asS'call_chunkfun'
p7469
(lp7470
S'void *'
p7471
aS'struct obstack *'
p7472
aS'unsigned long'
p7473
asS'wscanf'
p7474
(lp7475
S'int'
p7476
aS'const int *restrict'
p7477
asS'pthread_barrierattr_init'
p7478
(lp7479
S'int'
p7480
aS'pthread_barrierattr_t *'
p7481
asS'fts_padjust'
p7482
(lp7483
S'void'
p7484
aS'int *'
p7485
aS'int *'
p7486
asS'fgets_unlocked'
p7487
(lp7488
S'char *'
p7489
aS'char *restrict'
p7490
aS'int'
p7491
aS'struct _IO_FILE *restrict'
p7492
asS'g_date_time_add_weeks'
p7493
(lp7494
S'struct _GDateTime *'
p7495
aS'struct _GDateTime *'
p7496
aS'int'
p7497
asS'alignof_slot'
p7498
(lp7499
S'int'
p7500
asS'pipe'
p7501
(lp7502
S'int'
p7503
aS'int [2]'
p7504
asS'pthread_barrierattr_destroy'
p7505
(lp7506
S'int'
p7507
aS'pthread_barrierattr_t *'
p7508
asS'wcsstr'
p7509
(lp7510
S'int *'
p7511
aS'const int *'
p7512
aS'const int *'
p7513
asS'utimes'
p7514
(lp7515
S'int'
p7516
aS'const char *'
p7517
aS'struct timeval const[2]'
p7518
asS'mb_next_wc'
p7519
(lp7520
S'unsigned int'
p7521
aS'const char *'
p7522
aS'const char *'
p7523
asS'pcre16_get_substring_list'
p7524
(lp7525
S'int'
p7526
aS'const unsigned short *'
p7527
aS'int *'
p7528
aS'int'
p7529
aS'const unsigned short ***'
p7530
asS'find_pred'
p7531
(lp7532
S'const struct dfa_ctype *'
p7533
aS'const char *'
p7534
asS'PRINTF_FETCHARGS'
p7535
(lp7536
S'int'
p7537
aS'int'
p7538
aS'int *'
p7539
asS'strtol'
p7540
(lp7541
S'long'
p7542
aS'const char *restrict'
p7543
aS'char **restrict'
p7544
aS'int'
p7545
asS'pause'
p7546
(lp7547
S'int'
p7548
asS'strtok'
p7549
(lp7550
S'char *'
p7551
aS'char *restrict'
p7552
aS'const char *restrict'
p7553
asS'strtod'
p7554
(lp7555
S'double'
p7556
aS'const char *restrict'
p7557
aS'char **restrict'
p7558
asS'strtof'
p7559
(lp7560
S'float'
p7561
aS'const char *restrict'
p7562
aS'char **restrict'
p7563
asS'test_getopt_long_only'
p7564
(lp7565
S'int'
p7566
asS'is_mode'
p7567
(lp7568
S'int'
p7569
aS'int'
p7570
aS'int'
p7571
asS'color_cap_ne_fct'
p7572
(lp7573
S'void'
p7574
asS'ext_wmatch'
p7575
(lp7576
S'int'
p7577
aS'unsigned int'
p7578
aS'const int *'
p7579
aS'const int *'
p7580
aS'const int *'
p7581
aS'_Bool'
p7582
aS'int'
p7583
asS'strtoq'
p7584
(lp7585
S'long long'
p7586
aS'const char *restrict'
p7587
aS'char **restrict'
p7588
aS'int'
p7589
asS'create_initial_state'
p7590
(lp7591
S'reg_errcode_t'
p7592
aS'int *'
p7593
asS'xsum'
p7594
(lp7595
S'int'
p7596
asS'wcscoll'
p7597
(lp7598
S'int'
p7599
aS'const int *'
p7600
aS'const int *'
p7601
asS'rpl_fcntl'
p7602
(lp7603
S'int'
p7604
aS'int'
p7605
aS'int'
p7606
asS'bcmp'
p7607
(lp7608
S'int'
p7609
aS'const void *'
p7610
aS'const void *'
p7611
aS'unsigned long'
p7612
asS'strxfrm_l'
p7613
(lp7614
S'unsigned long'
p7615
aS'char *'
p7616
aS'const char *'
p7617
aS'unsigned long'
p7618
aS'struct __locale_struct *'
p7619
asS'getpgrp'
p7620
(lp7621
S'int'
p7622
asS'parse_branch'
p7623
(lp7624
S'int *'
p7625
aS'int *'
p7626
aS'struct re_pattern_buffer *'
p7627
aS'int *'
p7628
aS'unsigned long'
p7629
aS'int'
p7630
aS'reg_errcode_t *'
p7631
asS'memcpy'
p7632
(lp7633
S'void *'
p7634
aS'void *restrict'
p7635
aS'const void *restrict'
p7636
aS'unsigned long'
p7637
asS'pow2d'
p7638
(lp7639
S'double'
p7640
aS'int'
p7641
asS'g_date_time_add_full'
p7642
(lp7643
S'struct _GDateTime *'
p7644
aS'struct _GDateTime *'
p7645
aS'int'
p7646
aS'int'
p7647
aS'int'
p7648
aS'int'
p7649
aS'int'
p7650
aS'int'
p7651
asS'pow2f'
p7652
(lp7653
S'float'
p7654
aS'int'
p7655
asS'pow2l'
p7656
(lp7657
S'long double'
p7658
aS'int'
p7659
asS'str_iconv'
p7660
(lp7661
S'int'
p7662
asS'guint64'
p7663
(lp7664
S'int'
p7665
aS'int *'
p7666
asS'sigismember'
p7667
(lp7668
S'int'
p7669
aS'const __sigset_t *'
p7670
aS'int'
p7671
asS'diropen'
p7672
(lp7673
S'int'
p7674
aS'int'
p7675
asS'lcong48_r'
p7676
(lp7677
S'int'
p7678
aS'unsigned short [7]'
p7679
aS'struct drand48_data *'
p7680
asS'stpcpy'
p7681
(lp7682
S'char *'
p7683
aS'char *restrict'
p7684
aS'const char *restrict'
p7685
asS'quotearg_free'
p7686
(lp7687
S'int'
p7688
asS'rpl_fdopen'
p7689
(lp7690
S'struct _IO_FILE *'
p7691
aS'int'
p7692
aS'const char *'
p7693
asS'test_locale_name_posix'
p7694
(lp7695
S'void'
p7696
asS'g_date_time_add_months'
p7697
(lp7698
S'struct _GDateTime *'
p7699
aS'struct _GDateTime *'
p7700
aS'int'
p7701
asS'lstat'
p7702
(lp7703
S'int'
p7704
aS'const char *restrict'
p7705
aS'struct stat *restrict'
p7706
asS'AT_FUNC_NAME'
p7707
(lp7708
S'int'
p7709
aS'int'
p7710
aS'const char *'
p7711
asS'pthread_rwlock_timedrdlock'
p7712
(lp7713
S'int'
p7714
aS'pthread_rwlock_t *restrict'
p7715
aS'const struct timespec *restrict'
p7716
asS'test_function'
p7717
(lp7718
S'void'
p7719
aS'char *(*)(char *, unsigned long *, const char *, ...)'
p7720
asS'getwchar'
p7721
(lp7722
S'unsigned int'
p7723
asS'getdtablesize'
p7724
(lp7725
S'int'
p7726
asS'sigaction'
p7727
(lp7728
S'int'
p7729
aS'int'
p7730
aS'const struct sigaction *restrict'
p7731
aS'struct sigaction *restrict'
p7732
asS'tmpnam_r'
p7733
(lp7734
S'char *'
p7735
aS'char *'
p7736
asS'equal'
p7737
(lp7738
S'_Bool'
p7739
aS'unsigned int const[0]'
p7740
aS'unsigned int const[0]'
p7741
asS'c_strncasecmp'
p7742
(lp7743
S'int'
p7744
aS'const char *'
p7745
aS'const char *'
p7746
aS'int'
p7747
asS'INT_DIVIDE_OVERFLOW'
p7748
(lp7749
S'int'
p7750
asS'test_symlink'
p7751
(lp7752
S'int'
p7753
asS'strftime'
p7754
(lp7755
S'unsigned long'
p7756
aS'char *restrict'
p7757
aS'unsigned long'
p7758
aS'const char *restrict'
p7759
aS'const struct tm *restrict'
p7760
asS'chmod'
p7761
(lp7762
S'int'
p7763
aS'const char *'
p7764
aS'unsigned int'
p7765
asS'walk'
p7766
(lp7767
S'_Bool'
p7768
aS'void *'
p7769
aS'void *'
p7770
asS'tmpfile64'
p7771
(lp7772
S'struct _IO_FILE *'
p7773
asS'c_isxdigit'
p7774
(lp7775
S'int'
p7776
asS'hash_find_entry'
p7777
(lp7778
S'void *'
p7779
aS'int *'
p7780
aS'const void *'
p7781
aS'struct hash_entry **'
p7782
aS'int'
p7783
asS'_obstack_begin_1'
p7784
(lp7785
S'int'
p7786
aS'struct obstack *'
p7787
aS'int'
p7788
aS'int'
p7789
aS'void *(*)(void *, long)'
p7790
aS'void (*)(void *, void *)'
p7791
aS'void *'
p7792
asS'_obstack_begin'
p7793
(lp7794
S'int'
p7795
aS'struct obstack *'
p7796
aS'int'
p7797
aS'int'
p7798
aS'void *(*)(long)'
p7799
aS'void (*)(void *)'
p7800
asS'getsubopt'
p7801
(lp7802
S'int'
p7803
aS'char **restrict'
p7804
aS'char *const *restrict'
p7805
aS'char **restrict'
p7806
asS'nanosleep'
p7807
(lp7808
S'int'
p7809
aS'const struct timespec *'
p7810
aS'struct timespec *'
p7811
asS'rpl_iconv'
p7812
(lp7813
S'unsigned long'
p7814
aS'void *'
p7815
aS'char **'
p7816
aS'unsigned long *'
p7817
aS'char **'
p7818
aS'unsigned long *'
p7819
asS'__sched_cpufree'
p7820
(lp7821
S'void'
p7822
aS'cpu_set_t *'
p7823
asS'vmsplice'
p7824
(lp7825
S'long'
p7826
aS'int'
p7827
aS'const struct iovec *'
p7828
aS'unsigned long'
p7829
aS'unsigned int'
p7830
asS'_obstack_free'
p7831
(lp7832
S'void'
p7833
aS'struct obstack *'
p7834
aS'void *'
p7835
asS'drand48'
p7836
(lp7837
S'double'
p7838
asS'strerror_override'
p7839
(lp7840
S'int'
p7841
asS'GEAcompile'
p7842
(lp7843
S'void'
p7844
aS'const char *'
p7845
aS'unsigned long'
p7846
aS'unsigned long'
p7847
asS'free_mbdata'
p7848
(lp7849
S'void'
p7850
aS'struct dfa *'
p7851
asS'xstrtoimax'
p7852
(lp7853
S'int'
p7854
aS'const char *'
p7855
aS'char **'
p7856
aS'int'
p7857
aS'int *'
p7858
aS'const char *'
p7859
asS'getrusage'
p7860
(lp7861
S'int'
p7862
aS'enum __rusage_who'
p7863
aS'struct rusage *'
p7864
asS'pthread_attr_getschedpolicy'
p7865
(lp7866
S'int'
p7867
aS'const union pthread_attr_t *restrict'
p7868
aS'int *restrict'
p7869
asS'vsprintf'
p7870
(lp7871
S'int'
p7872
aS'char *restrict'
p7873
aS'const char *restrict'
p7874
aS'struct __va_list_tag [1]'
p7875
asS'rename'
p7876
(lp7877
S'int'
p7878
aS'const char *'
p7879
aS'const char *'
p7880
asS'cfree'
p7881
(lp7882
S'void'
p7883
aS'void *'
p7884
asS'srand'
p7885
(lp7886
S'void'
p7887
aS'unsigned int'
p7888
asS'fwrite_unlocked'
p7889
(lp7890
S'unsigned long'
p7891
aS'const void *restrict'
p7892
aS'unsigned long'
p7893
aS'unsigned long'
p7894
aS'struct _IO_FILE *restrict'
p7895
asS'getwd'
p7896
(lp7897
S'char *'
p7898
aS'char *'
p7899
asS'lutimes'
p7900
(lp7901
S'int'
p7902
aS'const char *'
p7903
aS'struct timeval const[2]'
p7904
asS'pthread_getcpuclockid'
p7905
(lp7906
S'int'
p7907
aS'unsigned long'
p7908
aS'int *'
p7909
asS'exclude_patopts'
p7910
(lp7911
S'_Bool'
p7912
aS'const struct patopts *'
p7913
aS'const char *'
p7914
asS'getwc'
p7915
(lp7916
S'unsigned int'
p7917
aS'struct _IO_FILE *'
p7918
asS'_IO_seekpos'
p7919
(lp7920
S'long'
p7921
aS'struct _IO_FILE *'
p7922
aS'long'
p7923
aS'int'
p7924
asS'getc'
p7925
(lp7926
S'int'
p7927
aS'struct _IO_FILE *'
p7928
asS'strcasecmp_l'
p7929
(lp7930
S'int'
p7931
aS'const char *'
p7932
aS'const char *'
p7933
aS'struct __locale_struct *'
p7934
asS'tr'
p7935
(lp7936
S'char'
p7937
aS'const char *'
p7938
aS'char'
p7939
asS'S_ISOFD'
p7940
(lp7941
S'int'
p7942
asS'pthread_mutex_timedlock'
p7943
(lp7944
S'int'
p7945
aS'pthread_mutex_t *restrict'
p7946
aS'const struct timespec *restrict'
p7947
asS'wcstol_l'
p7948
(lp7949
S'long'
p7950
aS'const int *restrict'
p7951
aS'int **restrict'
p7952
aS'int'
p7953
aS'struct __locale_struct *'
p7954
asS'S_ISOFL'
p7955
(lp7956
S'int'
p7957
asS'setstate'
p7958
(lp7959
S'char *'
p7960
aS'char *'
p7961
asS'ssignal'
p7962
(lp7963
S'void (*)(int)'
p7964
aS'int'
p7965
aS'void (*)(int)'
p7966
asS'__strtok_r'
p7967
(lp7968
S'char *'
p7969
aS'char *restrict'
p7970
aS'const char *restrict'
p7971
aS'char **restrict'
p7972
asS'ISSLASH'
p7973
(lp7974
S'int'
p7975
asS'pthread_condattr_setclock'
p7976
(lp7977
S'int'
p7978
aS'pthread_condattr_t *'
p7979
aS'int'
p7980
asS'mbslen'
p7981
(lp7982
S'unsigned long'
p7983
aS'const char *'
p7984
asS'pthread_rwlock_rdlock'
p7985
(lp7986
S'int'
p7987
aS'pthread_rwlock_t *'
p7988
asS'setbuf'
p7989
(lp7990
S'void'
p7991
aS'struct _IO_FILE *restrict'
p7992
aS'char *restrict'
p7993
asS'pthread_attr_getguardsize'
p7994
(lp7995
S'int'
p7996
aS'const union pthread_attr_t *'
p7997
aS'unsigned long *'
p7998
asS'drand48_r'
p7999
(lp8000
S'int'
p8001
aS'struct drand48_data *restrict'
p8002
aS'double *restrict'
p8003
asS'g_uri_unescape_string'
p8004
(lp8005
S'char *'
p8006
aS'const char *'
p8007
aS'const char *'
p8008
asS'lseek'
p8009
(lp8010
S'long'
p8011
aS'int'
p8012
aS'long'
p8013
aS'int'
p8014
asS'i_ring_empty'
p8015
(lp8016
S'int'
p8017
aS'int'
p8018
asS'creat64'
p8019
(lp8020
S'int'
p8021
aS'const char *'
p8022
aS'unsigned int'
p8023
asS'c_toupper'
p8024
(lp8025
S'int'
p8026
asS'g_date_time_add_years'
p8027
(lp8028
S'struct _GDateTime *'
p8029
aS'struct _GDateTime *'
p8030
aS'int'
p8031
asS'clock_getres'
p8032
(lp8033
S'int'
p8034
aS'int'
p8035
aS'struct timespec *'
p8036
asS'openat_restore_fail'
p8037
(lp8038
S'void'
p8039
aS'int'
p8040
asS'sethostname'
p8041
(lp8042
S'int'
p8043
aS'const char *'
p8044
aS'unsigned long'
p8045
asS'hash_insert0'
p8046
(lp8047
S'int'
p8048
aS'int *'
p8049
aS'const void *'
p8050
aS'const void **'
p8051
asS'build_mbclen_cache'
p8052
(lp8053
S'void'
p8054
asS'S_ISCTG'
p8055
(lp8056
S'int'
p8057
asS'usage'
p8058
(lp8059
S'void'
p8060
aS'int'
p8061
asS'imaxabs'
p8062
(lp8063
S'long'
p8064
aS'long'
p8065
asS'iswcntrl'
p8066
(lp8067
S'int'
p8068
aS'unsigned int'
p8069
asS'insert'
p8070
(lp8071
S'void'
p8072
aS'position'
p8073
aS'position_set *'
p8074
asS'fts_set_stat_required'
p8075
(lp8076
S'void'
p8077
aS'int *'
p8078
aS'_Bool'
p8079
asS'lower_subexp'
p8080
(lp8081
S'int *'
p8082
aS'reg_errcode_t *'
p8083
aS'struct re_pattern_buffer *'
p8084
aS'int *'
p8085
asS'fsync'
p8086
(lp8087
S'int'
p8088
aS'int'
p8089
asS'get_quoting_style'
p8090
(lp8091
S'enum quoting_style'
p8092
aS'struct quoting_options *'
p8093
asS'quotearg_char_mem'
p8094
(lp8095
S'char *'
p8096
aS'const char *'
p8097
aS'unsigned long'
p8098
aS'char'
p8099
asS'dfaanalyze'
p8100
(lp8101
S'void'
p8102
aS'struct dfa *'
p8103
aS'int'
p8104
asS'iswpunct'
p8105
(lp8106
S'int'
p8107
aS'unsigned int'
p8108
asS'get_name'
p8109
(lp8110
S'char *'
p8111
aS'const char *'
p8112
asS'timer_create'
p8113
(lp8114
S'int'
p8115
aS'int'
p8116
aS'struct sigevent *restrict'
p8117
aS'void **restrict'
p8118
asS'ctype_codeset'
p8119
(lp8120
S'char *'
p8121
asS'glthread_rwlock_unlock_multithreaded'
p8122
(lp8123
S'int'
p8124
aS'int *'
p8125
asS'pclose'
p8126
(lp8127
S'int'
p8128
aS'struct _IO_FILE *'
p8129
asS'strnlen1'
p8130
(lp8131
S'unsigned long'
p8132
aS'const char *'
p8133
aS'unsigned long'
p8134
asS'llabs'
p8135
(lp8136
S'long long'
p8137
aS'long long'
p8138
asS'zerosize_ptr'
p8139
(lp8140
S'int'
p8141
asS'getdelim'
p8142
(lp8143
S'long'
p8144
aS'char **restrict'
p8145
aS'unsigned long *restrict'
p8146
aS'int'
p8147
aS'struct _IO_FILE *restrict'
p8148
asS'wcstod_l'
p8149
(lp8150
S'double'
p8151
aS'const int *restrict'
p8152
aS'int **restrict'
p8153
aS'struct __locale_struct *'
p8154
asS'fgetc_unlocked'
p8155
(lp8156
S'int'
p8157
aS'struct _IO_FILE *'
p8158
asS'isxdigit'
p8159
(lp8160
S'int'
p8161
aS'int'
p8162
asS'test_getopt'
p8163
(lp8164
S'int'
p8165
asS'asctime'
p8166
(lp8167
S'char *'
p8168
aS'const struct tm *'
p8169
asS'setrlimit'
p8170
(lp8171
S'int'
p8172
aS'enum __rlimit_resource'
p8173
aS'const struct rlimit *'
p8174
asS'pthread_exit'
p8175
(lp8176
S'void'
p8177
aS'void *'
p8178
asS'mb_goback'
p8179
(lp8180
S'long'
p8181
aS'const char **'
p8182
aS'const char *'
p8183
aS'const char *'
p8184
asS'char_context'
p8185
(lp8186
S'int'
p8187
aS'unsigned char'
p8188
asS'fstatfs64'
p8189
(lp8190
S'int'
p8191
aS'int'
p8192
aS'struct statfs64 *'
p8193
asS'fstatat64'
p8194
(lp8195
S'int'
p8196
aS'int'
p8197
aS'const char *restrict'
p8198
aS'struct stat64 *restrict'
p8199
aS'int'
p8200
asS'symlink'
p8201
(lp8202
S'int'
p8203
aS'const char *'
p8204
aS'const char *'
p8205
asS'__strtoul_internal'
p8206
(lp8207
S'unsigned long'
p8208
aS'const char *'
p8209
aS'char **'
p8210
aS'int'
p8211
aS'int'
p8212
asS'new_exclude_segment'
p8213
(lp8214
S'void'
p8215
aS'struct exclude *'
p8216
aS'enum exclude_type'
p8217
aS'int'
p8218
asS'__stpncpy'
p8219
(lp8220
S'char *'
p8221
aS'char *restrict'
p8222
aS'const char *restrict'
p8223
aS'unsigned long'
p8224
asS'g_date_time_add'
p8225
(lp8226
S'struct _GDateTime *'
p8227
aS'struct _GDateTime *'
p8228
aS'int'
p8229
asS'mark_opt_subexp'
p8230
(lp8231
S'reg_errcode_t'
p8232
aS'void *'
p8233
aS'int *'
p8234
asS'siginterrupt'
p8235
(lp8236
S'int'
p8237
aS'int'
p8238
aS'int'
p8239
asS'struniq'
p8240
(lp8241
S'const char *'
p8242
aS'const char *'
p8243
asS'strcpy'
p8244
(lp8245
S'char *'
p8246
aS'char *restrict'
p8247
aS'const char *restrict'
p8248
asS'_exit'
p8249
(lp8250
S'void'
p8251
aS'int'
p8252
asS'fcvt'
p8253
(lp8254
S'char *'
p8255
aS'double'
p8256
aS'int'
p8257
aS'int *restrict'
p8258
aS'int *restrict'
p8259
asS'endusershell'
p8260
(lp8261
S'void'
p8262
asS'wchar_context'
p8263
(lp8264
S'int'
p8265
aS'unsigned int'
p8266
asS'pcre16_study'
p8267
(lp8268
S'struct pcre16_extra *'
p8269
aS'const struct real_pcre16 *'
p8270
aS'int'
p8271
aS'const char **'
p8272
asS'pipe_safer'
p8273
(lp8274
S'int'
p8275
aS'int [2]'
p8276
asS'stat_func'
p8277
(lp8278
S'int'
p8279
aS'const char *'
p8280
aS'struct stat *'
p8281
asS'fwprintf'
p8282
(lp8283
S'int'
p8284
aS'struct _IO_FILE *restrict'
p8285
aS'const int *restrict'
p8286
asS'isprint'
p8287
(lp8288
S'int'
p8289
aS'int'
p8290
asS'exclude_add_pattern_buffer'
p8291
(lp8292
S'void'
p8293
aS'struct exclude *'
p8294
aS'char *'
p8295
asS'pthread_create'
p8296
(lp8297
S'int'
p8298
aS'unsigned long *restrict'
p8299
aS'const union pthread_attr_t *restrict'
p8300
aS'void *(*)(void *)'
p8301
aS'void *restrict'
p8302
asS'_g_utf8_make_valid'
p8303
(lp8304
S'int *'
p8305
aS'const int *'
p8306
asS'rotr8'
p8307
(lp8308
S'int'
p8309
asS'pcre_exec'
p8310
(lp8311
S'int'
p8312
aS'const struct real_pcre *'
p8313
aS'const struct pcre_extra *'
p8314
aS'const char *'
p8315
aS'int'
p8316
aS'int'
p8317
aS'int'
p8318
aS'int *'
p8319
aS'int'
p8320
asS'c_isalpha'
p8321
(lp8322
S'int'
p8323
asS'__strtoll_internal'
p8324
(lp8325
S'long long'
p8326
aS'const char *'
p8327
aS'char **'
p8328
aS'int'
p8329
aS'int'
p8330
asS'cycle_check_init'
p8331
(lp8332
S'void'
p8333
aS'struct cycle_check_state *'
p8334
asS'function'
p8335
(lp8336
S'int'
p8337
aS'int'
p8338
asS'EGexecute'
p8339
(lp8340
S'unsigned long'
p8341
aS'const char *'
p8342
aS'unsigned long'
p8343
aS'unsigned long *'
p8344
aS'const char *'
p8345
asS'S_ISNAM'
p8346
(lp8347
S'int'
p8348
asS'alphasort'
p8349
(lp8350
S'int'
p8351
aS'const struct dirent **'
p8352
aS'const struct dirent **'
p8353
asS'getenv'
p8354
(lp8355
S'char *'
p8356
aS'const char *'
p8357
asS'rpl_setlocale'
p8358
(lp8359
S'char *'
p8360
aS'int'
p8361
aS'const char *'
p8362
asS'tstbit'
p8363
(lp8364
S'_Bool'
p8365
aS'unsigned int'
p8366
aS'unsigned int const[0]'
p8367
asS'test_vasnprintf'
p8368
(lp8369
S'void'
p8370
asS'fts_lfree'
p8371
(lp8372
S'void'
p8373
aS'int *'
p8374
asS'wcstof_l'
p8375
(lp8376
S'float'
p8377
aS'const int *restrict'
p8378
aS'int **restrict'
p8379
aS'struct __locale_struct *'
p8380
asS'_IO_getc'
p8381
(lp8382
S'int'
p8383
aS'struct _IO_FILE *'
p8384
asS'knuth_morris_pratt_multibyte'
p8385
(lp8386
S'_Bool'
p8387
aS'const char *'
p8388
aS'const char *'
p8389
aS'const char **'
p8390
asS'localeconv'
p8391
(lp8392
S'struct lconv *'
p8393
asS'pcre16_config'
p8394
(lp8395
S'int'
p8396
aS'int'
p8397
aS'void *'
p8398
asS'cuserid'
p8399
(lp8400
S'char *'
p8401
aS'char *'
p8402
asS'strspn'
p8403
(lp8404
S'unsigned long'
p8405
aS'const char *'
p8406
aS'const char *'
p8407
asS'sscanf'
p8408
(lp8409
S'int'
p8410
aS'const char *restrict'
p8411
aS'const char *restrict'
p8412
asS'strndup'
p8413
(lp8414
S'char *'
p8415
aS'const char *'
p8416
aS'unsigned long'
p8417
asS'jrand48_r'
p8418
(lp8419
S'int'
p8420
aS'unsigned short [3]'
p8421
aS'struct drand48_data *restrict'
p8422
aS'long *restrict'
p8423
asS'__sigpause'
p8424
(lp8425
S'int'
p8426
aS'int'
p8427
aS'int'
p8428
asS'branch'
p8429
(lp8430
S'void'
p8431
asS'getopt'
p8432
(lp8433
S'int'
p8434
aS'int'
p8435
aS'char *const *'
p8436
aS'const char *'
p8437
asS'trim2'
p8438
(lp8439
S'char *'
p8440
aS'const char *'
p8441
aS'int'
p8442
asS'stat'
p8443
(lp8444
S'int'
p8445
aS'const char *restrict'
p8446
aS'struct stat *restrict'
p8447
asS'color_cap_rv_fct'
p8448
(lp8449
S'void'
p8450
asS'regerror'
p8451
(lp8452
S'unsigned long'
p8453
aS'int'
p8454
aS'const struct re_pattern_buffer *restrict'
p8455
aS'char *restrict'
p8456
aS'unsigned long'
p8457
asS'INT_SUBTRACT_OVERFLOW'
p8458
(lp8459
S'int'
p8460
asS'two_way_long_needle'
p8461
(lp8462
S'int'
p8463
asS'setusershell'
p8464
(lp8465
S'void'
p8466
asS'readlink'
p8467
(lp8468
S'long'
p8469
aS'const char *restrict'
p8470
aS'char *restrict'
p8471
aS'unsigned long'
p8472
asS'_toupper'
p8473
(lp8474
S'int'
p8475
aS'int'
p8476
asS'error_tail'
p8477
(lp8478
S'int'
p8479
asS'test_locale_name'
p8480
(lp8481
S'void'
p8482
asS'fpathconf'
p8483
(lp8484
S'long'
p8485
aS'int'
p8486
aS'int'
p8487
asS'iswalnum_l'
p8488
(lp8489
S'int'
p8490
aS'unsigned int'
p8491
aS'struct __locale_struct *'
p8492
asS'pthread_self'
p8493
(lp8494
S'unsigned long'
p8495
asS'mbsnrtowcs'
p8496
(lp8497
S'unsigned long'
p8498
aS'int *restrict'
p8499
aS'const char **restrict'
p8500
aS'unsigned long'
p8501
aS'unsigned long'
p8502
aS'__mbstate_t *restrict'
p8503
as.